---
triple:          'arm64-apple-darwin'
binary-path:     '/Users/wscholl/drex/target/debug/deps/lib_sys.dylib'
relocations:
  - { offset: 0x1E, size: 0x8, addend: 0x0, symName: '__ZN97_$LT$alloc..ffi..c_str..CString$u20$as$u20$core..borrow..Borrow$LT$core..ffi..c_str..CStr$GT$$GT$6borrow17ha82c1d5cd2e92fcbE', symObjAddr: 0x0, symBinAddr: 0x880, symSize: 0x20 }
  - { offset: 0xA4, size: 0x8, addend: 0x0, symName: '__ZN97_$LT$alloc..ffi..c_str..CString$u20$as$u20$core..borrow..Borrow$LT$core..ffi..c_str..CStr$GT$$GT$6borrow17ha82c1d5cd2e92fcbE', symObjAddr: 0x0, symBinAddr: 0x880, symSize: 0x20 }
  - { offset: 0x229, size: 0x8, addend: 0x0, symName: __ZN5tokio7runtime9scheduler12multi_thread11MultiThread8block_on17h048f707eef873632E, symObjAddr: 0x0, symBinAddr: 0x8A0, symSize: 0x48 }
  - { offset: 0x1606, size: 0x8, addend: 0x0, symName: '__ZN5tokio7runtime9scheduler12multi_thread11MultiThread8block_on28_$u7b$$u7b$closure$u7d$$u7d$17h02d5d445d5278411E', symObjAddr: 0x6E4, symBinAddr: 0xF84, symSize: 0x84 }
  - { offset: 0x164B, size: 0x8, addend: 0x0, symName: '__ZN5tokio7runtime9scheduler12multi_thread11MultiThread8block_on28_$u7b$$u7b$closure$u7d$$u7d$17h064388f348522b45E', symObjAddr: 0x768, symBinAddr: 0x1008, symSize: 0x68 }
  - { offset: 0x168F, size: 0x8, addend: 0x0, symName: '__ZN5tokio7runtime9scheduler12multi_thread11MultiThread8block_on28_$u7b$$u7b$closure$u7d$$u7d$17h0dd6c53ac43834e6E', symObjAddr: 0x7D0, symBinAddr: 0x1070, symSize: 0x68 }
  - { offset: 0x16D3, size: 0x8, addend: 0x0, symName: '__ZN5tokio7runtime9scheduler12multi_thread11MultiThread8block_on28_$u7b$$u7b$closure$u7d$$u7d$17h140b0fd6afbe1f38E', symObjAddr: 0x838, symBinAddr: 0x10D8, symSize: 0x68 }
  - { offset: 0x1717, size: 0x8, addend: 0x0, symName: '__ZN5tokio7runtime9scheduler12multi_thread11MultiThread8block_on28_$u7b$$u7b$closure$u7d$$u7d$17h15cebb6c4e71f49cE', symObjAddr: 0x8A0, symBinAddr: 0x1140, symSize: 0x68 }
  - { offset: 0x175B, size: 0x8, addend: 0x0, symName: '__ZN5tokio7runtime9scheduler12multi_thread11MultiThread8block_on28_$u7b$$u7b$closure$u7d$$u7d$17h19b53cd17f49bea8E', symObjAddr: 0x908, symBinAddr: 0x11A8, symSize: 0x84 }
  - { offset: 0x17A0, size: 0x8, addend: 0x0, symName: '__ZN5tokio7runtime9scheduler12multi_thread11MultiThread8block_on28_$u7b$$u7b$closure$u7d$$u7d$17h1f9967dac41790c5E', symObjAddr: 0x98C, symBinAddr: 0x122C, symSize: 0x84 }
  - { offset: 0x17E5, size: 0x8, addend: 0x0, symName: '__ZN5tokio7runtime9scheduler12multi_thread11MultiThread8block_on28_$u7b$$u7b$closure$u7d$$u7d$17h4b3e2ce7095a49aaE', symObjAddr: 0xA10, symBinAddr: 0x12B0, symSize: 0x68 }
  - { offset: 0x1829, size: 0x8, addend: 0x0, symName: '__ZN5tokio7runtime9scheduler12multi_thread11MultiThread8block_on28_$u7b$$u7b$closure$u7d$$u7d$17h4d58607ab0b8b1eeE', symObjAddr: 0xA78, symBinAddr: 0x1318, symSize: 0x68 }
  - { offset: 0x186D, size: 0x8, addend: 0x0, symName: '__ZN5tokio7runtime9scheduler12multi_thread11MultiThread8block_on28_$u7b$$u7b$closure$u7d$$u7d$17h61234b51fb7ab3e5E', symObjAddr: 0xAE0, symBinAddr: 0x1380, symSize: 0x68 }
  - { offset: 0x18B1, size: 0x8, addend: 0x0, symName: '__ZN5tokio7runtime9scheduler12multi_thread11MultiThread8block_on28_$u7b$$u7b$closure$u7d$$u7d$17h729259e27c8b51a2E', symObjAddr: 0xB48, symBinAddr: 0x13E8, symSize: 0x84 }
  - { offset: 0x18F6, size: 0x8, addend: 0x0, symName: '__ZN5tokio7runtime9scheduler12multi_thread11MultiThread8block_on28_$u7b$$u7b$closure$u7d$$u7d$17h78a0e7f43dd55160E', symObjAddr: 0xBCC, symBinAddr: 0x146C, symSize: 0x68 }
  - { offset: 0x193A, size: 0x8, addend: 0x0, symName: '__ZN5tokio7runtime9scheduler12multi_thread11MultiThread8block_on28_$u7b$$u7b$closure$u7d$$u7d$17h79184733e6c2f554E', symObjAddr: 0xC34, symBinAddr: 0x14D4, symSize: 0x84 }
  - { offset: 0x197F, size: 0x8, addend: 0x0, symName: '__ZN5tokio7runtime9scheduler12multi_thread11MultiThread8block_on28_$u7b$$u7b$closure$u7d$$u7d$17h89ca3640c2371a36E', symObjAddr: 0xCB8, symBinAddr: 0x1558, symSize: 0x84 }
  - { offset: 0x19C4, size: 0x8, addend: 0x0, symName: '__ZN5tokio7runtime9scheduler12multi_thread11MultiThread8block_on28_$u7b$$u7b$closure$u7d$$u7d$17h89eccf6116763a90E', symObjAddr: 0xD3C, symBinAddr: 0x15DC, symSize: 0x68 }
  - { offset: 0x1A08, size: 0x8, addend: 0x0, symName: '__ZN5tokio7runtime9scheduler12multi_thread11MultiThread8block_on28_$u7b$$u7b$closure$u7d$$u7d$17h8ee30a36a708196aE', symObjAddr: 0xDA4, symBinAddr: 0x1644, symSize: 0x5C }
  - { offset: 0x1A4D, size: 0x8, addend: 0x0, symName: '__ZN5tokio7runtime9scheduler12multi_thread11MultiThread8block_on28_$u7b$$u7b$closure$u7d$$u7d$17h936d237c39c9ab08E', symObjAddr: 0xE00, symBinAddr: 0x16A0, symSize: 0x84 }
  - { offset: 0x1A92, size: 0x8, addend: 0x0, symName: '__ZN5tokio7runtime9scheduler12multi_thread11MultiThread8block_on28_$u7b$$u7b$closure$u7d$$u7d$17h9e4fdb67de214f88E', symObjAddr: 0xE84, symBinAddr: 0x1724, symSize: 0x84 }
  - { offset: 0x1AD7, size: 0x8, addend: 0x0, symName: '__ZN5tokio7runtime9scheduler12multi_thread11MultiThread8block_on28_$u7b$$u7b$closure$u7d$$u7d$17hac7f674cbe19c2ebE', symObjAddr: 0xF08, symBinAddr: 0x17A8, symSize: 0x54 }
  - { offset: 0x1B1B, size: 0x8, addend: 0x0, symName: '__ZN5tokio7runtime9scheduler12multi_thread11MultiThread8block_on28_$u7b$$u7b$closure$u7d$$u7d$17hfb45f60c5c1b3c2aE', symObjAddr: 0xF5C, symBinAddr: 0x17FC, symSize: 0x84 }
  - { offset: 0x9D2F, size: 0x8, addend: 0x0, symName: __ZN5tokio7runtime9scheduler12multi_thread11MultiThread8block_on17h048f707eef873632E, symObjAddr: 0x0, symBinAddr: 0x8A0, symSize: 0x48 }
  - { offset: 0x9D83, size: 0x8, addend: 0x0, symName: __ZN5tokio7runtime9scheduler12multi_thread11MultiThread8block_on17h05d66cd7b5e02175E, symObjAddr: 0x48, symBinAddr: 0x8E8, symSize: 0x64 }
  - { offset: 0xA166, size: 0x8, addend: 0x0, symName: __ZN5tokio7runtime9scheduler12multi_thread11MultiThread8block_on17h1d57553fb15362bcE, symObjAddr: 0xAC, symBinAddr: 0x94C, symSize: 0x6C }
  - { offset: 0xA1BB, size: 0x8, addend: 0x0, symName: __ZN5tokio7runtime9scheduler12multi_thread11MultiThread8block_on17h235c760b94e5f25fE, symObjAddr: 0x118, symBinAddr: 0x9B8, symSize: 0x48 }
  - { offset: 0xA20F, size: 0x8, addend: 0x0, symName: __ZN5tokio7runtime9scheduler12multi_thread11MultiThread8block_on17h24835bf991b8121eE, symObjAddr: 0x160, symBinAddr: 0xA00, symSize: 0x48 }
  - { offset: 0xA263, size: 0x8, addend: 0x0, symName: __ZN5tokio7runtime9scheduler12multi_thread11MultiThread8block_on17h2ac1411948551429E, symObjAddr: 0x1A8, symBinAddr: 0xA48, symSize: 0x48 }
  - { offset: 0xA4CB, size: 0x8, addend: 0x0, symName: __ZN5tokio7runtime9scheduler12multi_thread11MultiThread8block_on17h319ac53987abc4dfE, symObjAddr: 0x1F0, symBinAddr: 0xA90, symSize: 0x6C }
  - { offset: 0xA513, size: 0x8, addend: 0x0, symName: __ZN5tokio7runtime9scheduler12multi_thread11MultiThread8block_on17h5b3abad7ad156a1aE, symObjAddr: 0x25C, symBinAddr: 0xAFC, symSize: 0x58 }
  - { offset: 0xA55B, size: 0x8, addend: 0x0, symName: __ZN5tokio7runtime9scheduler12multi_thread11MultiThread8block_on17h5d6c2474a9db9ec5E, symObjAddr: 0x2B4, symBinAddr: 0xB54, symSize: 0x6C }
  - { offset: 0xA5A3, size: 0x8, addend: 0x0, symName: __ZN5tokio7runtime9scheduler12multi_thread11MultiThread8block_on17h9a2ef45babd91552E, symObjAddr: 0x320, symBinAddr: 0xBC0, symSize: 0x6C }
  - { offset: 0xA5F8, size: 0x8, addend: 0x0, symName: __ZN5tokio7runtime9scheduler12multi_thread11MultiThread8block_on17h9ed9832727b42884E, symObjAddr: 0x38C, symBinAddr: 0xC2C, symSize: 0x48 }
  - { offset: 0xA63F, size: 0x8, addend: 0x0, symName: __ZN5tokio7runtime9scheduler12multi_thread11MultiThread8block_on17hb1449689e823fd97E, symObjAddr: 0x3D4, symBinAddr: 0xC74, symSize: 0x6C }
  - { offset: 0xA687, size: 0x8, addend: 0x0, symName: __ZN5tokio7runtime9scheduler12multi_thread11MultiThread8block_on17hbb49bda946e0e533E, symObjAddr: 0x440, symBinAddr: 0xCE0, symSize: 0x6C }
  - { offset: 0xA6DC, size: 0x8, addend: 0x0, symName: __ZN5tokio7runtime9scheduler12multi_thread11MultiThread8block_on17hbc7da6b8bb794e64E, symObjAddr: 0x4AC, symBinAddr: 0xD4C, symSize: 0x48 }
  - { offset: 0xA730, size: 0x8, addend: 0x0, symName: __ZN5tokio7runtime9scheduler12multi_thread11MultiThread8block_on17he04d3b07a91a8fd7E, symObjAddr: 0x4F4, symBinAddr: 0xD94, symSize: 0x48 }
  - { offset: 0xA784, size: 0x8, addend: 0x0, symName: __ZN5tokio7runtime9scheduler12multi_thread11MultiThread8block_on17he322b4b13154a9efE, symObjAddr: 0x53C, symBinAddr: 0xDDC, symSize: 0x48 }
  - { offset: 0xA7CB, size: 0x8, addend: 0x0, symName: __ZN5tokio7runtime9scheduler12multi_thread11MultiThread8block_on17hf18296843a04b5efE, symObjAddr: 0x584, symBinAddr: 0xE24, symSize: 0x64 }
  - { offset: 0xA813, size: 0x8, addend: 0x0, symName: __ZN5tokio7runtime9scheduler12multi_thread11MultiThread8block_on17hf7a1fa669e909638E, symObjAddr: 0x5E8, symBinAddr: 0xE88, symSize: 0x6C }
  - { offset: 0xA868, size: 0x8, addend: 0x0, symName: __ZN5tokio7runtime9scheduler12multi_thread11MultiThread8block_on17hfb44a518e045bb7aE, symObjAddr: 0x654, symBinAddr: 0xEF4, symSize: 0x48 }
  - { offset: 0xA8BC, size: 0x8, addend: 0x0, symName: __ZN5tokio7runtime9scheduler12multi_thread11MultiThread8block_on17hfc5640b61132bd61E, symObjAddr: 0x69C, symBinAddr: 0xF3C, symSize: 0x48 }
  - { offset: 0xA92E, size: 0x8, addend: 0x0, symName: '__ZN109_$LT$pyo3..types..dict..borrowed_iter..BorrowedDictIter$u20$as$u20$core..iter..traits..iterator..Iterator$GT$4next17h2d155b10988b3e95E', symObjAddr: 0x0, symBinAddr: 0x1880, symSize: 0xE4 }
  - { offset: 0xBB07, size: 0x8, addend: 0x0, symName: '__ZN109_$LT$pyo3..types..dict..borrowed_iter..BorrowedDictIter$u20$as$u20$core..iter..traits..iterator..Iterator$GT$4next17h2d155b10988b3e95E', symObjAddr: 0x0, symBinAddr: 0x1880, symSize: 0xE4 }
  - { offset: 0xC228, size: 0x8, addend: 0x0, symName: '__ZN4core3ptr8non_null16NonNull$LT$T$GT$13new_unchecked18precondition_check17hde5299d2eff3df00E', symObjAddr: 0x0, symBinAddr: 0x1964, symSize: 0xA4 }
  - { offset: 0xC4AA, size: 0x8, addend: 0x0, symName: '__ZN4core3ptr8non_null16NonNull$LT$T$GT$13new_unchecked18precondition_check17hde5299d2eff3df00E', symObjAddr: 0x0, symBinAddr: 0x1964, symSize: 0xA4 }
  - { offset: 0xC757, size: 0x8, addend: 0x0, symName: '__ZN3std3ffi6os_str103_$LT$impl$u20$core..convert..AsRef$LT$std..ffi..os_str..OsStr$GT$$u20$for$u20$alloc..string..String$GT$6as_ref17h054b9dfea0c97b3fE', symObjAddr: 0x0, symBinAddr: 0x1A08, symSize: 0x80 }
  - { offset: 0xC88C, size: 0x8, addend: 0x0, symName: '__ZN58_$LT$alloc..string..String$u20$as$u20$core..fmt..Write$GT$10write_char17h1c36b052aa92323eE', symObjAddr: 0xA4, symBinAddr: 0x1AAC, symSize: 0x38 }
  - { offset: 0xC8C9, size: 0x8, addend: 0x0, symName: '__ZN58_$LT$alloc..string..String$u20$as$u20$core..fmt..Write$GT$9write_str17h646f34ea049afe58E', symObjAddr: 0xDC, symBinAddr: 0x1AE4, symSize: 0x40 }
  - { offset: 0xC90C, size: 0x8, addend: 0x0, symName: '__ZN60_$LT$alloc..string..String$u20$as$u20$core..fmt..Display$GT$3fmt17he8fc5a69a537c0e0E', symObjAddr: 0x2C0, symBinAddr: 0x1CC8, symSize: 0x88 }
  - { offset: 0xCA71, size: 0x8, addend: 0x0, symName: '__ZN82_$LT$alloc..string..String$u20$as$u20$core..convert..AsRef$LT$$u5b$u8$u5d$$GT$$GT$6as_ref17hc48b1e5d492e199eE', symObjAddr: 0x348, symBinAddr: 0x1D50, symSize: 0x24 }
  - { offset: 0xD371, size: 0x8, addend: 0x0, symName: '__ZN3std3ffi6os_str103_$LT$impl$u20$core..convert..AsRef$LT$std..ffi..os_str..OsStr$GT$$u20$for$u20$alloc..string..String$GT$6as_ref17h054b9dfea0c97b3fE', symObjAddr: 0x0, symBinAddr: 0x1A08, symSize: 0x80 }
  - { offset: 0xD535, size: 0x8, addend: 0x0, symName: '__ZN3std4path95_$LT$impl$u20$core..convert..AsRef$LT$std..path..Path$GT$$u20$for$u20$alloc..string..String$GT$6as_ref17h560743866fdee0b9E', symObjAddr: 0x80, symBinAddr: 0x1A88, symSize: 0x24 }
  - { offset: 0xD5EE, size: 0x8, addend: 0x0, symName: __ZN5alloc6string6String10into_bytes17h4a0c27e6cd590919E, symObjAddr: 0x11C, symBinAddr: 0x1B24, symSize: 0x18 }
  - { offset: 0xD611, size: 0x8, addend: 0x0, symName: __ZN5alloc6string6String19from_utf8_unchecked17h67321458d4f1430cE, symObjAddr: 0x134, symBinAddr: 0x1B3C, symSize: 0x18 }
  - { offset: 0xD765, size: 0x8, addend: 0x0, symName: __ZN5alloc6string6String4push17h885a51f8736b24bdE, symObjAddr: 0x14C, symBinAddr: 0x1B54, symSize: 0xF8 }
  - { offset: 0xD95D, size: 0x8, addend: 0x0, symName: __ZN5alloc6string6String8as_bytes17h2b2c6b4386cc9fd4E, symObjAddr: 0x244, symBinAddr: 0x1C4C, symSize: 0x24 }
  - { offset: 0xDA60, size: 0x8, addend: 0x0, symName: __ZN5alloc6string6String8push_str17h3f23e443a98aac59E, symObjAddr: 0x268, symBinAddr: 0x1C70, symSize: 0x58 }
  - { offset: 0xDD24, size: 0x8, addend: 0x0, symName: '__ZN5tokio7runtime4task17Notified$LT$S$GT$6header17h05df4959cccbb0ddE', symObjAddr: 0x0, symBinAddr: 0x1D74, symSize: 0x24 }
  - { offset: 0xE371, size: 0x8, addend: 0x0, symName: __ZN5tokio7runtime4task7unowned17h0820b5f0aca76495E, symObjAddr: 0x5C, symBinAddr: 0x1DD0, symSize: 0xFC }
  - { offset: 0xE43F, size: 0x8, addend: 0x0, symName: __ZN5tokio7runtime4task7unowned17h131a1d8426f209ffE, symObjAddr: 0x158, symBinAddr: 0x1ECC, symSize: 0xFC }
  - { offset: 0xE50D, size: 0x8, addend: 0x0, symName: __ZN5tokio7runtime4task7unowned17h22cf089c3112af5dE, symObjAddr: 0x254, symBinAddr: 0x1FC8, symSize: 0xFC }
  - { offset: 0xE5DB, size: 0x8, addend: 0x0, symName: __ZN5tokio7runtime4task7unowned17h3036b7a1c71c41beE, symObjAddr: 0x350, symBinAddr: 0x20C4, symSize: 0xFC }
  - { offset: 0xE6A9, size: 0x8, addend: 0x0, symName: __ZN5tokio7runtime4task7unowned17h31975d83d87629a4E, symObjAddr: 0x44C, symBinAddr: 0x21C0, symSize: 0x104 }
  - { offset: 0xE776, size: 0x8, addend: 0x0, symName: __ZN5tokio7runtime4task7unowned17h3a2d59258922f21aE, symObjAddr: 0x550, symBinAddr: 0x22C4, symSize: 0x104 }
  - { offset: 0xE843, size: 0x8, addend: 0x0, symName: __ZN5tokio7runtime4task7unowned17h44db1029478d46f6E, symObjAddr: 0x654, symBinAddr: 0x23C8, symSize: 0x104 }
  - { offset: 0xE910, size: 0x8, addend: 0x0, symName: __ZN5tokio7runtime4task7unowned17h4e5a6a1fbf597490E, symObjAddr: 0x758, symBinAddr: 0x24CC, symSize: 0xFC }
  - { offset: 0xE9DE, size: 0x8, addend: 0x0, symName: __ZN5tokio7runtime4task7unowned17h6a469d8ef5674adaE, symObjAddr: 0x854, symBinAddr: 0x25C8, symSize: 0x104 }
  - { offset: 0xEAAB, size: 0x8, addend: 0x0, symName: __ZN5tokio7runtime4task7unowned17h77ac0b90607ce3e2E, symObjAddr: 0x958, symBinAddr: 0x26CC, symSize: 0xFC }
  - { offset: 0xEB79, size: 0x8, addend: 0x0, symName: __ZN5tokio7runtime4task7unowned17h8f03e56026c5dcfdE, symObjAddr: 0xA54, symBinAddr: 0x27C8, symSize: 0x104 }
  - { offset: 0xEC46, size: 0x8, addend: 0x0, symName: __ZN5tokio7runtime4task7unowned17hb0583019d6127893E, symObjAddr: 0xB58, symBinAddr: 0x28CC, symSize: 0xFC }
  - { offset: 0xED14, size: 0x8, addend: 0x0, symName: __ZN5tokio7runtime4task7unowned17hb5bae58665c86014E, symObjAddr: 0xC54, symBinAddr: 0x29C8, symSize: 0x104 }
  - { offset: 0xEDE1, size: 0x8, addend: 0x0, symName: __ZN5tokio7runtime4task7unowned17hcc038d9d0b39f52aE, symObjAddr: 0xD58, symBinAddr: 0x2ACC, symSize: 0xFC }
  - { offset: 0xEEAF, size: 0x8, addend: 0x0, symName: __ZN5tokio7runtime4task7unowned17he053a63c750a161dE, symObjAddr: 0xE54, symBinAddr: 0x2BC8, symSize: 0x104 }
  - { offset: 0xEF7C, size: 0x8, addend: 0x0, symName: __ZN5tokio7runtime4task7unowned17hfa1dcda0b08e1695E, symObjAddr: 0xF58, symBinAddr: 0x2CCC, symSize: 0x104 }
  - { offset: 0xF049, size: 0x8, addend: 0x0, symName: __ZN5tokio7runtime4task8new_task17h0836657c34cc153fE, symObjAddr: 0x105C, symBinAddr: 0x2DD0, symSize: 0xA8 }
  - { offset: 0xF12B, size: 0x8, addend: 0x0, symName: __ZN5tokio7runtime4task8new_task17h0e04dbad787cbefcE, symObjAddr: 0x1104, symBinAddr: 0x2E78, symSize: 0xB0 }
  - { offset: 0xF20D, size: 0x8, addend: 0x0, symName: __ZN5tokio7runtime4task8new_task17h0f9e9d90e75249e2E, symObjAddr: 0x11B4, symBinAddr: 0x2F28, symSize: 0xB8 }
  - { offset: 0xF2EE, size: 0x8, addend: 0x0, symName: __ZN5tokio7runtime4task8new_task17h1c2bbaeecd5cd367E, symObjAddr: 0x126C, symBinAddr: 0x2FE0, symSize: 0xB0 }
  - { offset: 0xF3D0, size: 0x8, addend: 0x0, symName: __ZN5tokio7runtime4task8new_task17h31a016842640046bE, symObjAddr: 0x131C, symBinAddr: 0x3090, symSize: 0xB0 }
  - { offset: 0xF4B2, size: 0x8, addend: 0x0, symName: __ZN5tokio7runtime4task8new_task17h335698ad0bbd5891E, symObjAddr: 0x13CC, symBinAddr: 0x3140, symSize: 0xB8 }
  - { offset: 0xF593, size: 0x8, addend: 0x0, symName: __ZN5tokio7runtime4task8new_task17h3ea69633728fc60cE, symObjAddr: 0x1484, symBinAddr: 0x31F8, symSize: 0xA8 }
  - { offset: 0xF675, size: 0x8, addend: 0x0, symName: __ZN5tokio7runtime4task8new_task17h44a2b7b069fb18daE, symObjAddr: 0x152C, symBinAddr: 0x32A0, symSize: 0xB0 }
  - { offset: 0xF756, size: 0x8, addend: 0x0, symName: __ZN5tokio7runtime4task8new_task17h6a98848da9a43375E, symObjAddr: 0x15DC, symBinAddr: 0x3350, symSize: 0xB8 }
  - { offset: 0xF837, size: 0x8, addend: 0x0, symName: __ZN5tokio7runtime4task8new_task17h8821cf80014687f9E, symObjAddr: 0x1694, symBinAddr: 0x3408, symSize: 0xB0 }
  - { offset: 0xF919, size: 0x8, addend: 0x0, symName: __ZN5tokio7runtime4task8new_task17ha54d3c66bb954917E, symObjAddr: 0x1744, symBinAddr: 0x34B8, symSize: 0xB8 }
  - { offset: 0xF9FA, size: 0x8, addend: 0x0, symName: __ZN5tokio7runtime4task8new_task17hab16b81348d6749fE, symObjAddr: 0x17FC, symBinAddr: 0x3570, symSize: 0xB0 }
  - { offset: 0xFADC, size: 0x8, addend: 0x0, symName: __ZN5tokio7runtime4task8new_task17hab36f6f500828959E, symObjAddr: 0x18AC, symBinAddr: 0x3620, symSize: 0xB8 }
  - { offset: 0xFBBD, size: 0x8, addend: 0x0, symName: __ZN5tokio7runtime4task8new_task17hb11ccf29e1062f12E, symObjAddr: 0x1964, symBinAddr: 0x36D8, symSize: 0xB8 }
  - { offset: 0xFC9E, size: 0x8, addend: 0x0, symName: __ZN5tokio7runtime4task8new_task17hb665f08c6589aab0E, symObjAddr: 0x1A1C, symBinAddr: 0x3790, symSize: 0xB0 }
  - { offset: 0xFD80, size: 0x8, addend: 0x0, symName: __ZN5tokio7runtime4task8new_task17hd8463f7706828e79E, symObjAddr: 0x1ACC, symBinAddr: 0x3840, symSize: 0xB8 }
  - { offset: 0xFE61, size: 0x8, addend: 0x0, symName: __ZN5tokio7runtime4task8new_task17he99d72c5eaeca58bE, symObjAddr: 0x1B84, symBinAddr: 0x38F8, symSize: 0xB0 }
  - { offset: 0xFF42, size: 0x8, addend: 0x0, symName: __ZN5tokio7runtime4task8new_task17hf18c3362f28bd90aE, symObjAddr: 0x1C34, symBinAddr: 0x39A8, symSize: 0xB0 }
  - { offset: 0x10024, size: 0x8, addend: 0x0, symName: __ZN5tokio7runtime4task8new_task17hf5906b9ceb612a21E, symObjAddr: 0x1CE4, symBinAddr: 0x3A58, symSize: 0xB8 }
  - { offset: 0x10105, size: 0x8, addend: 0x0, symName: __ZN5tokio7runtime4task8new_task17hfceecce68053f61bE, symObjAddr: 0x1D9C, symBinAddr: 0x3B10, symSize: 0xB0 }
  - { offset: 0x101EC, size: 0x8, addend: 0x0, symName: '__ZN86_$LT$tokio..runtime..task..Task$LT$S$GT$$u20$as$u20$tokio..util..linked_list..Link$GT$6as_raw17hdfcb549c6f62f78aE', symObjAddr: 0x1E4C, symBinAddr: 0x3BC0, symSize: 0x24 }
  - { offset: 0x10223, size: 0x8, addend: 0x0, symName: '__ZN86_$LT$tokio..runtime..task..Task$LT$S$GT$$u20$as$u20$tokio..util..linked_list..Link$GT$6as_raw17hfae7fe28d0512388E', symObjAddr: 0x1E70, symBinAddr: 0x3BE4, symSize: 0x24 }
  - { offset: 0x16057, size: 0x8, addend: 0x0, symName: '__ZN5tokio7runtime4task17Notified$LT$S$GT$6header17h05df4959cccbb0ddE', symObjAddr: 0x0, symBinAddr: 0x1D74, symSize: 0x24 }
  - { offset: 0x16083, size: 0x8, addend: 0x0, symName: '__ZN5tokio7runtime4task22LocalNotified$LT$S$GT$3run17h38c2c7ed5ddd3000E', symObjAddr: 0x24, symBinAddr: 0x1D98, symSize: 0x38 }
  - { offset: 0x16C55, size: 0x8, addend: 0x0, symName: '__ZN5tokio4task4coop11with_budget28_$u7b$$u7b$closure$u7d$$u7d$17h024ed8c0fa6ce95dE', symObjAddr: 0x0, symBinAddr: 0x3C08, symSize: 0x74 }
  - { offset: 0x1A3CE, size: 0x8, addend: 0x0, symName: '__ZN5tokio4task4coop11with_budget28_$u7b$$u7b$closure$u7d$$u7d$17h024ed8c0fa6ce95dE', symObjAddr: 0x0, symBinAddr: 0x3C08, symSize: 0x74 }
  - { offset: 0x1A439, size: 0x8, addend: 0x0, symName: '__ZN5tokio4task4coop11with_budget28_$u7b$$u7b$closure$u7d$$u7d$17h05fe57eceefd2254E', symObjAddr: 0x74, symBinAddr: 0x3C7C, symSize: 0x74 }
  - { offset: 0x1A4A4, size: 0x8, addend: 0x0, symName: '__ZN5tokio4task4coop11with_budget28_$u7b$$u7b$closure$u7d$$u7d$17h06275492a049a612E', symObjAddr: 0xE8, symBinAddr: 0x3CF0, symSize: 0x74 }
  - { offset: 0x1A50F, size: 0x8, addend: 0x0, symName: '__ZN5tokio4task4coop11with_budget28_$u7b$$u7b$closure$u7d$$u7d$17h06538e7380530bceE', symObjAddr: 0x15C, symBinAddr: 0x3D64, symSize: 0x74 }
  - { offset: 0x1A57A, size: 0x8, addend: 0x0, symName: '__ZN5tokio4task4coop11with_budget28_$u7b$$u7b$closure$u7d$$u7d$17h075fc082cd25131bE', symObjAddr: 0x1D0, symBinAddr: 0x3DD8, symSize: 0x74 }
  - { offset: 0x1A5E5, size: 0x8, addend: 0x0, symName: '__ZN5tokio4task4coop11with_budget28_$u7b$$u7b$closure$u7d$$u7d$17h084adfc7300c0b9fE', symObjAddr: 0x244, symBinAddr: 0x3E4C, symSize: 0x74 }
  - { offset: 0x1A650, size: 0x8, addend: 0x0, symName: '__ZN5tokio4task4coop11with_budget28_$u7b$$u7b$closure$u7d$$u7d$17h0877b6d1b1e7921cE', symObjAddr: 0x2B8, symBinAddr: 0x3EC0, symSize: 0x74 }
  - { offset: 0x1A6BB, size: 0x8, addend: 0x0, symName: '__ZN5tokio4task4coop11with_budget28_$u7b$$u7b$closure$u7d$$u7d$17h08a5c78222ceab9eE', symObjAddr: 0x32C, symBinAddr: 0x3F34, symSize: 0x74 }
  - { offset: 0x1A726, size: 0x8, addend: 0x0, symName: '__ZN5tokio4task4coop11with_budget28_$u7b$$u7b$closure$u7d$$u7d$17h09f87080b4df1974E', symObjAddr: 0x3A0, symBinAddr: 0x3FA8, symSize: 0x74 }
  - { offset: 0x1A791, size: 0x8, addend: 0x0, symName: '__ZN5tokio4task4coop11with_budget28_$u7b$$u7b$closure$u7d$$u7d$17h14729ff3817e2a40E', symObjAddr: 0x414, symBinAddr: 0x401C, symSize: 0x74 }
  - { offset: 0x1A7FC, size: 0x8, addend: 0x0, symName: '__ZN5tokio4task4coop11with_budget28_$u7b$$u7b$closure$u7d$$u7d$17h1493c31857664d31E', symObjAddr: 0x488, symBinAddr: 0x4090, symSize: 0x74 }
  - { offset: 0x1A867, size: 0x8, addend: 0x0, symName: '__ZN5tokio4task4coop11with_budget28_$u7b$$u7b$closure$u7d$$u7d$17h1c465f0a29530e70E', symObjAddr: 0x4FC, symBinAddr: 0x4104, symSize: 0x74 }
  - { offset: 0x1A8D2, size: 0x8, addend: 0x0, symName: '__ZN5tokio4task4coop11with_budget28_$u7b$$u7b$closure$u7d$$u7d$17h238b879fad46d19eE', symObjAddr: 0x570, symBinAddr: 0x4178, symSize: 0x74 }
  - { offset: 0x1A93D, size: 0x8, addend: 0x0, symName: '__ZN5tokio4task4coop11with_budget28_$u7b$$u7b$closure$u7d$$u7d$17h29815149aa89dee4E', symObjAddr: 0x5E4, symBinAddr: 0x41EC, symSize: 0x74 }
  - { offset: 0x1A9A8, size: 0x8, addend: 0x0, symName: '__ZN5tokio4task4coop11with_budget28_$u7b$$u7b$closure$u7d$$u7d$17h2c48136471201c31E', symObjAddr: 0x658, symBinAddr: 0x4260, symSize: 0x74 }
  - { offset: 0x1AA13, size: 0x8, addend: 0x0, symName: '__ZN5tokio4task4coop11with_budget28_$u7b$$u7b$closure$u7d$$u7d$17h2db39bc6bf676d31E', symObjAddr: 0x6CC, symBinAddr: 0x42D4, symSize: 0x74 }
  - { offset: 0x1AA7E, size: 0x8, addend: 0x0, symName: '__ZN5tokio4task4coop11with_budget28_$u7b$$u7b$closure$u7d$$u7d$17h314d6288531ae5eeE', symObjAddr: 0x740, symBinAddr: 0x4348, symSize: 0x74 }
  - { offset: 0x1AAE9, size: 0x8, addend: 0x0, symName: '__ZN5tokio4task4coop11with_budget28_$u7b$$u7b$closure$u7d$$u7d$17h31510660e7102d67E', symObjAddr: 0x7B4, symBinAddr: 0x43BC, symSize: 0x74 }
  - { offset: 0x1AB54, size: 0x8, addend: 0x0, symName: '__ZN5tokio4task4coop11with_budget28_$u7b$$u7b$closure$u7d$$u7d$17h34dc827e77de4261E', symObjAddr: 0x828, symBinAddr: 0x4430, symSize: 0x74 }
  - { offset: 0x1ABBF, size: 0x8, addend: 0x0, symName: '__ZN5tokio4task4coop11with_budget28_$u7b$$u7b$closure$u7d$$u7d$17h37989b0be6e211b7E', symObjAddr: 0x89C, symBinAddr: 0x44A4, symSize: 0x74 }
  - { offset: 0x1AC2A, size: 0x8, addend: 0x0, symName: '__ZN5tokio4task4coop11with_budget28_$u7b$$u7b$closure$u7d$$u7d$17h38691525f6c10752E', symObjAddr: 0x910, symBinAddr: 0x4518, symSize: 0x74 }
  - { offset: 0x1AC95, size: 0x8, addend: 0x0, symName: '__ZN5tokio4task4coop11with_budget28_$u7b$$u7b$closure$u7d$$u7d$17h3c6a2b399c395635E', symObjAddr: 0x984, symBinAddr: 0x458C, symSize: 0x74 }
  - { offset: 0x1AD00, size: 0x8, addend: 0x0, symName: '__ZN5tokio4task4coop11with_budget28_$u7b$$u7b$closure$u7d$$u7d$17h42c607781946997cE', symObjAddr: 0x9F8, symBinAddr: 0x4600, symSize: 0x74 }
  - { offset: 0x1AD6B, size: 0x8, addend: 0x0, symName: '__ZN5tokio4task4coop11with_budget28_$u7b$$u7b$closure$u7d$$u7d$17h443b74d6354f811bE', symObjAddr: 0xA6C, symBinAddr: 0x4674, symSize: 0x74 }
  - { offset: 0x1ADD6, size: 0x8, addend: 0x0, symName: '__ZN5tokio4task4coop11with_budget28_$u7b$$u7b$closure$u7d$$u7d$17h4c5f3d5909ff0644E', symObjAddr: 0xAE0, symBinAddr: 0x46E8, symSize: 0x74 }
  - { offset: 0x1AE41, size: 0x8, addend: 0x0, symName: '__ZN5tokio4task4coop11with_budget28_$u7b$$u7b$closure$u7d$$u7d$17h4d0cea33d6f86fdbE', symObjAddr: 0xB54, symBinAddr: 0x475C, symSize: 0x74 }
  - { offset: 0x1AEAC, size: 0x8, addend: 0x0, symName: '__ZN5tokio4task4coop11with_budget28_$u7b$$u7b$closure$u7d$$u7d$17h502194fbe0359ac8E', symObjAddr: 0xBC8, symBinAddr: 0x47D0, symSize: 0x74 }
  - { offset: 0x1AF17, size: 0x8, addend: 0x0, symName: '__ZN5tokio4task4coop11with_budget28_$u7b$$u7b$closure$u7d$$u7d$17h577028daff97267bE', symObjAddr: 0xC3C, symBinAddr: 0x4844, symSize: 0x74 }
  - { offset: 0x1AF82, size: 0x8, addend: 0x0, symName: '__ZN5tokio4task4coop11with_budget28_$u7b$$u7b$closure$u7d$$u7d$17h589314c4323f03d1E', symObjAddr: 0xCB0, symBinAddr: 0x48B8, symSize: 0x74 }
  - { offset: 0x1AFED, size: 0x8, addend: 0x0, symName: '__ZN5tokio4task4coop11with_budget28_$u7b$$u7b$closure$u7d$$u7d$17h5a4e03e1b71c5b5cE', symObjAddr: 0xD24, symBinAddr: 0x492C, symSize: 0x74 }
  - { offset: 0x1B058, size: 0x8, addend: 0x0, symName: '__ZN5tokio4task4coop11with_budget28_$u7b$$u7b$closure$u7d$$u7d$17h5cbe0706c92eca63E', symObjAddr: 0xD98, symBinAddr: 0x49A0, symSize: 0x74 }
  - { offset: 0x1B0C3, size: 0x8, addend: 0x0, symName: '__ZN5tokio4task4coop11with_budget28_$u7b$$u7b$closure$u7d$$u7d$17h5f4fa941df3b4e52E', symObjAddr: 0xE0C, symBinAddr: 0x4A14, symSize: 0x74 }
  - { offset: 0x1B12E, size: 0x8, addend: 0x0, symName: '__ZN5tokio4task4coop11with_budget28_$u7b$$u7b$closure$u7d$$u7d$17h643b723a0ad4eef1E', symObjAddr: 0xE80, symBinAddr: 0x4A88, symSize: 0x74 }
  - { offset: 0x1B199, size: 0x8, addend: 0x0, symName: '__ZN5tokio4task4coop11with_budget28_$u7b$$u7b$closure$u7d$$u7d$17h65bf6a71d681ca03E', symObjAddr: 0xEF4, symBinAddr: 0x4AFC, symSize: 0x74 }
  - { offset: 0x1B204, size: 0x8, addend: 0x0, symName: '__ZN5tokio4task4coop11with_budget28_$u7b$$u7b$closure$u7d$$u7d$17h696fe634988554abE', symObjAddr: 0xF68, symBinAddr: 0x4B70, symSize: 0x74 }
  - { offset: 0x1B26F, size: 0x8, addend: 0x0, symName: '__ZN5tokio4task4coop11with_budget28_$u7b$$u7b$closure$u7d$$u7d$17h6b5eb6aefaf8d381E', symObjAddr: 0xFDC, symBinAddr: 0x4BE4, symSize: 0x74 }
  - { offset: 0x1B2DA, size: 0x8, addend: 0x0, symName: '__ZN5tokio4task4coop11with_budget28_$u7b$$u7b$closure$u7d$$u7d$17h6cd7029627b48ae3E', symObjAddr: 0x1050, symBinAddr: 0x4C58, symSize: 0x74 }
  - { offset: 0x1B345, size: 0x8, addend: 0x0, symName: '__ZN5tokio4task4coop11with_budget28_$u7b$$u7b$closure$u7d$$u7d$17h70b2b010f9f17d3eE', symObjAddr: 0x10C4, symBinAddr: 0x4CCC, symSize: 0x74 }
  - { offset: 0x1B3B0, size: 0x8, addend: 0x0, symName: '__ZN5tokio4task4coop11with_budget28_$u7b$$u7b$closure$u7d$$u7d$17h731d3349944839aaE', symObjAddr: 0x1138, symBinAddr: 0x4D40, symSize: 0x74 }
  - { offset: 0x1B41B, size: 0x8, addend: 0x0, symName: '__ZN5tokio4task4coop11with_budget28_$u7b$$u7b$closure$u7d$$u7d$17h74288d80f4d25a69E', symObjAddr: 0x11AC, symBinAddr: 0x4DB4, symSize: 0x74 }
  - { offset: 0x1B486, size: 0x8, addend: 0x0, symName: '__ZN5tokio4task4coop11with_budget28_$u7b$$u7b$closure$u7d$$u7d$17h75f6303fe587a11bE', symObjAddr: 0x1220, symBinAddr: 0x4E28, symSize: 0x74 }
  - { offset: 0x1B4F1, size: 0x8, addend: 0x0, symName: '__ZN5tokio4task4coop11with_budget28_$u7b$$u7b$closure$u7d$$u7d$17h7dd907fe0c840196E', symObjAddr: 0x1294, symBinAddr: 0x4E9C, symSize: 0x74 }
  - { offset: 0x1B55C, size: 0x8, addend: 0x0, symName: '__ZN5tokio4task4coop11with_budget28_$u7b$$u7b$closure$u7d$$u7d$17h80e29472eef6c657E', symObjAddr: 0x1308, symBinAddr: 0x4F10, symSize: 0x74 }
  - { offset: 0x1B5C7, size: 0x8, addend: 0x0, symName: '__ZN5tokio4task4coop11with_budget28_$u7b$$u7b$closure$u7d$$u7d$17h814646af688ced47E', symObjAddr: 0x137C, symBinAddr: 0x4F84, symSize: 0x74 }
  - { offset: 0x1B632, size: 0x8, addend: 0x0, symName: '__ZN5tokio4task4coop11with_budget28_$u7b$$u7b$closure$u7d$$u7d$17h81d75fe15199aa6dE', symObjAddr: 0x13F0, symBinAddr: 0x4FF8, symSize: 0x74 }
  - { offset: 0x1B69D, size: 0x8, addend: 0x0, symName: '__ZN5tokio4task4coop11with_budget28_$u7b$$u7b$closure$u7d$$u7d$17h90075bd7cca20670E', symObjAddr: 0x1464, symBinAddr: 0x506C, symSize: 0x74 }
  - { offset: 0x1B708, size: 0x8, addend: 0x0, symName: '__ZN5tokio4task4coop11with_budget28_$u7b$$u7b$closure$u7d$$u7d$17h9a0c89ed5e8c0af8E', symObjAddr: 0x14D8, symBinAddr: 0x50E0, symSize: 0x74 }
  - { offset: 0x1B773, size: 0x8, addend: 0x0, symName: '__ZN5tokio4task4coop11with_budget28_$u7b$$u7b$closure$u7d$$u7d$17h9f5f18dd39e70776E', symObjAddr: 0x154C, symBinAddr: 0x5154, symSize: 0x74 }
  - { offset: 0x1B7DE, size: 0x8, addend: 0x0, symName: '__ZN5tokio4task4coop11with_budget28_$u7b$$u7b$closure$u7d$$u7d$17ha464a7af4bdd3528E', symObjAddr: 0x15C0, symBinAddr: 0x51C8, symSize: 0x74 }
  - { offset: 0x1B849, size: 0x8, addend: 0x0, symName: '__ZN5tokio4task4coop11with_budget28_$u7b$$u7b$closure$u7d$$u7d$17ha56eb9a7fd66c6e9E', symObjAddr: 0x1634, symBinAddr: 0x523C, symSize: 0x74 }
  - { offset: 0x1B8B4, size: 0x8, addend: 0x0, symName: '__ZN5tokio4task4coop11with_budget28_$u7b$$u7b$closure$u7d$$u7d$17ha8d211c222f4acdfE', symObjAddr: 0x16A8, symBinAddr: 0x52B0, symSize: 0x74 }
  - { offset: 0x1B91F, size: 0x8, addend: 0x0, symName: '__ZN5tokio4task4coop11with_budget28_$u7b$$u7b$closure$u7d$$u7d$17haa0e0bcf9de387fcE', symObjAddr: 0x171C, symBinAddr: 0x5324, symSize: 0x74 }
  - { offset: 0x1B98A, size: 0x8, addend: 0x0, symName: '__ZN5tokio4task4coop11with_budget28_$u7b$$u7b$closure$u7d$$u7d$17hafd0d6adb0711230E', symObjAddr: 0x1790, symBinAddr: 0x5398, symSize: 0x74 }
  - { offset: 0x1B9F5, size: 0x8, addend: 0x0, symName: '__ZN5tokio4task4coop11with_budget28_$u7b$$u7b$closure$u7d$$u7d$17hb0d4c7af42a245a6E', symObjAddr: 0x1804, symBinAddr: 0x540C, symSize: 0x74 }
  - { offset: 0x1BA60, size: 0x8, addend: 0x0, symName: '__ZN5tokio4task4coop11with_budget28_$u7b$$u7b$closure$u7d$$u7d$17hb333ea1d64a4cf01E', symObjAddr: 0x1878, symBinAddr: 0x5480, symSize: 0x74 }
  - { offset: 0x1BACB, size: 0x8, addend: 0x0, symName: '__ZN5tokio4task4coop11with_budget28_$u7b$$u7b$closure$u7d$$u7d$17hb466c64d77538405E', symObjAddr: 0x18EC, symBinAddr: 0x54F4, symSize: 0x74 }
  - { offset: 0x1BB36, size: 0x8, addend: 0x0, symName: '__ZN5tokio4task4coop11with_budget28_$u7b$$u7b$closure$u7d$$u7d$17hbb0803c140d5b971E', symObjAddr: 0x1960, symBinAddr: 0x5568, symSize: 0x74 }
  - { offset: 0x1BBA1, size: 0x8, addend: 0x0, symName: '__ZN5tokio4task4coop11with_budget28_$u7b$$u7b$closure$u7d$$u7d$17hc22b777d16238967E', symObjAddr: 0x19D4, symBinAddr: 0x55DC, symSize: 0x74 }
  - { offset: 0x1BC0C, size: 0x8, addend: 0x0, symName: '__ZN5tokio4task4coop11with_budget28_$u7b$$u7b$closure$u7d$$u7d$17hc3361141d0304c05E', symObjAddr: 0x1A48, symBinAddr: 0x5650, symSize: 0x74 }
  - { offset: 0x1BC77, size: 0x8, addend: 0x0, symName: '__ZN5tokio4task4coop11with_budget28_$u7b$$u7b$closure$u7d$$u7d$17hc63cec5b124a68faE', symObjAddr: 0x1ABC, symBinAddr: 0x56C4, symSize: 0x74 }
  - { offset: 0x1BCE2, size: 0x8, addend: 0x0, symName: '__ZN5tokio4task4coop11with_budget28_$u7b$$u7b$closure$u7d$$u7d$17hcb2351bac6de7c76E', symObjAddr: 0x1B30, symBinAddr: 0x5738, symSize: 0x74 }
  - { offset: 0x1BD4D, size: 0x8, addend: 0x0, symName: '__ZN5tokio4task4coop11with_budget28_$u7b$$u7b$closure$u7d$$u7d$17hcd1e24d8a5a7fd5cE', symObjAddr: 0x1BA4, symBinAddr: 0x57AC, symSize: 0x74 }
  - { offset: 0x1BDB8, size: 0x8, addend: 0x0, symName: '__ZN5tokio4task4coop11with_budget28_$u7b$$u7b$closure$u7d$$u7d$17hd0a1aac719d51deeE', symObjAddr: 0x1C18, symBinAddr: 0x5820, symSize: 0x74 }
  - { offset: 0x1BE23, size: 0x8, addend: 0x0, symName: '__ZN5tokio4task4coop11with_budget28_$u7b$$u7b$closure$u7d$$u7d$17hd2b5590681efbd3cE', symObjAddr: 0x1C8C, symBinAddr: 0x5894, symSize: 0x74 }
  - { offset: 0x1BE8E, size: 0x8, addend: 0x0, symName: '__ZN5tokio4task4coop11with_budget28_$u7b$$u7b$closure$u7d$$u7d$17hd33b968d966ad8eeE', symObjAddr: 0x1D00, symBinAddr: 0x5908, symSize: 0x74 }
  - { offset: 0x1BEF9, size: 0x8, addend: 0x0, symName: '__ZN5tokio4task4coop11with_budget28_$u7b$$u7b$closure$u7d$$u7d$17hd3511672a8c39099E', symObjAddr: 0x1D74, symBinAddr: 0x597C, symSize: 0x74 }
  - { offset: 0x1BF64, size: 0x8, addend: 0x0, symName: '__ZN5tokio4task4coop11with_budget28_$u7b$$u7b$closure$u7d$$u7d$17hd5b5dc36d2e91012E', symObjAddr: 0x1DE8, symBinAddr: 0x59F0, symSize: 0x74 }
  - { offset: 0x1BFCF, size: 0x8, addend: 0x0, symName: '__ZN5tokio4task4coop11with_budget28_$u7b$$u7b$closure$u7d$$u7d$17hd6bd5e25d98c0dcbE', symObjAddr: 0x1E5C, symBinAddr: 0x5A64, symSize: 0x74 }
  - { offset: 0x1C03A, size: 0x8, addend: 0x0, symName: '__ZN5tokio4task4coop11with_budget28_$u7b$$u7b$closure$u7d$$u7d$17hd7e6f16f423861acE', symObjAddr: 0x1ED0, symBinAddr: 0x5AD8, symSize: 0x74 }
  - { offset: 0x1C0A5, size: 0x8, addend: 0x0, symName: '__ZN5tokio4task4coop11with_budget28_$u7b$$u7b$closure$u7d$$u7d$17hda1a64c2a671e6aeE', symObjAddr: 0x1F44, symBinAddr: 0x5B4C, symSize: 0x74 }
  - { offset: 0x1C110, size: 0x8, addend: 0x0, symName: '__ZN5tokio4task4coop11with_budget28_$u7b$$u7b$closure$u7d$$u7d$17hdaabb121258f5cb0E', symObjAddr: 0x1FB8, symBinAddr: 0x5BC0, symSize: 0x74 }
  - { offset: 0x1C17B, size: 0x8, addend: 0x0, symName: '__ZN5tokio4task4coop11with_budget28_$u7b$$u7b$closure$u7d$$u7d$17hdb1af64ccba7be8eE', symObjAddr: 0x202C, symBinAddr: 0x5C34, symSize: 0x74 }
  - { offset: 0x1C1E6, size: 0x8, addend: 0x0, symName: '__ZN5tokio4task4coop11with_budget28_$u7b$$u7b$closure$u7d$$u7d$17hdd183040a31d4427E', symObjAddr: 0x20A0, symBinAddr: 0x5CA8, symSize: 0x74 }
  - { offset: 0x1C251, size: 0x8, addend: 0x0, symName: '__ZN5tokio4task4coop11with_budget28_$u7b$$u7b$closure$u7d$$u7d$17he2454d62a77323b3E', symObjAddr: 0x2114, symBinAddr: 0x5D1C, symSize: 0x74 }
  - { offset: 0x1C2BC, size: 0x8, addend: 0x0, symName: '__ZN5tokio4task4coop11with_budget28_$u7b$$u7b$closure$u7d$$u7d$17he41cd7e3fc283c65E', symObjAddr: 0x2188, symBinAddr: 0x5D90, symSize: 0x74 }
  - { offset: 0x1C327, size: 0x8, addend: 0x0, symName: '__ZN5tokio4task4coop11with_budget28_$u7b$$u7b$closure$u7d$$u7d$17he8b76a7c7db3eb13E', symObjAddr: 0x21FC, symBinAddr: 0x5E04, symSize: 0x74 }
  - { offset: 0x1C392, size: 0x8, addend: 0x0, symName: '__ZN5tokio4task4coop11with_budget28_$u7b$$u7b$closure$u7d$$u7d$17hf110f330b80755daE', symObjAddr: 0x2270, symBinAddr: 0x5E78, symSize: 0x74 }
  - { offset: 0x1C3FD, size: 0x8, addend: 0x0, symName: '__ZN5tokio4task4coop11with_budget28_$u7b$$u7b$closure$u7d$$u7d$17hf43181c30f15d804E', symObjAddr: 0x22E4, symBinAddr: 0x5EEC, symSize: 0x74 }
  - { offset: 0x1C468, size: 0x8, addend: 0x0, symName: '__ZN5tokio4task4coop11with_budget28_$u7b$$u7b$closure$u7d$$u7d$17hf4c97e05d283dfbfE', symObjAddr: 0x2358, symBinAddr: 0x5F60, symSize: 0x74 }
  - { offset: 0x1C4D3, size: 0x8, addend: 0x0, symName: '__ZN5tokio4task4coop11with_budget28_$u7b$$u7b$closure$u7d$$u7d$17hfe5555b411cc1ea6E', symObjAddr: 0x23CC, symBinAddr: 0x5FD4, symSize: 0x74 }
  - { offset: 0x23DA3, size: 0x8, addend: 0x0, symName: '__ZN60_$LT$$RF$mut$u20$T$u20$as$u20$core..ops..deref..DerefMut$GT$9deref_mut17h0592fbbc6ae3f0d9E', symObjAddr: 0x0, symBinAddr: 0x6048, symSize: 0x18 }
  - { offset: 0x259E5, size: 0x8, addend: 0x0, symName: '__ZN60_$LT$$RF$mut$u20$T$u20$as$u20$core..ops..deref..DerefMut$GT$9deref_mut17h0592fbbc6ae3f0d9E', symObjAddr: 0x0, symBinAddr: 0x6048, symSize: 0x18 }
  - { offset: 0x25A1C, size: 0x8, addend: 0x0, symName: '__ZN60_$LT$$RF$mut$u20$T$u20$as$u20$core..ops..deref..DerefMut$GT$9deref_mut17h07a0dbea9e263919E', symObjAddr: 0x18, symBinAddr: 0x6060, symSize: 0x18 }
  - { offset: 0x25A53, size: 0x8, addend: 0x0, symName: '__ZN60_$LT$$RF$mut$u20$T$u20$as$u20$core..ops..deref..DerefMut$GT$9deref_mut17h14598233614a08d3E', symObjAddr: 0x30, symBinAddr: 0x6078, symSize: 0x18 }
  - { offset: 0x25A8A, size: 0x8, addend: 0x0, symName: '__ZN60_$LT$$RF$mut$u20$T$u20$as$u20$core..ops..deref..DerefMut$GT$9deref_mut17h1b6afa7a22be7f3eE', symObjAddr: 0x48, symBinAddr: 0x6090, symSize: 0x18 }
  - { offset: 0x25AC1, size: 0x8, addend: 0x0, symName: '__ZN60_$LT$$RF$mut$u20$T$u20$as$u20$core..ops..deref..DerefMut$GT$9deref_mut17h1d53d688bb3143a0E', symObjAddr: 0x60, symBinAddr: 0x60A8, symSize: 0x18 }
  - { offset: 0x25AF8, size: 0x8, addend: 0x0, symName: '__ZN60_$LT$$RF$mut$u20$T$u20$as$u20$core..ops..deref..DerefMut$GT$9deref_mut17h312a253fa0bf42b5E', symObjAddr: 0x78, symBinAddr: 0x60C0, symSize: 0x18 }
  - { offset: 0x25B2F, size: 0x8, addend: 0x0, symName: '__ZN60_$LT$$RF$mut$u20$T$u20$as$u20$core..ops..deref..DerefMut$GT$9deref_mut17h3e5dfa49e2badccfE', symObjAddr: 0x90, symBinAddr: 0x60D8, symSize: 0x18 }
  - { offset: 0x25B66, size: 0x8, addend: 0x0, symName: '__ZN60_$LT$$RF$mut$u20$T$u20$as$u20$core..ops..deref..DerefMut$GT$9deref_mut17h4f7a201d43f15a25E', symObjAddr: 0xA8, symBinAddr: 0x60F0, symSize: 0x18 }
  - { offset: 0x25B9D, size: 0x8, addend: 0x0, symName: '__ZN60_$LT$$RF$mut$u20$T$u20$as$u20$core..ops..deref..DerefMut$GT$9deref_mut17h5d3d6584b5869191E', symObjAddr: 0xC0, symBinAddr: 0x6108, symSize: 0x18 }
  - { offset: 0x25BD4, size: 0x8, addend: 0x0, symName: '__ZN60_$LT$$RF$mut$u20$T$u20$as$u20$core..ops..deref..DerefMut$GT$9deref_mut17h628302601ca3a2e7E', symObjAddr: 0xD8, symBinAddr: 0x6120, symSize: 0x18 }
  - { offset: 0x25C0B, size: 0x8, addend: 0x0, symName: '__ZN60_$LT$$RF$mut$u20$T$u20$as$u20$core..ops..deref..DerefMut$GT$9deref_mut17h673b2c38eec0b594E', symObjAddr: 0xF0, symBinAddr: 0x6138, symSize: 0x18 }
  - { offset: 0x25C42, size: 0x8, addend: 0x0, symName: '__ZN60_$LT$$RF$mut$u20$T$u20$as$u20$core..ops..deref..DerefMut$GT$9deref_mut17h68d48e6dad864927E', symObjAddr: 0x108, symBinAddr: 0x6150, symSize: 0x18 }
  - { offset: 0x25C79, size: 0x8, addend: 0x0, symName: '__ZN60_$LT$$RF$mut$u20$T$u20$as$u20$core..ops..deref..DerefMut$GT$9deref_mut17h6c144d0a9c730b24E', symObjAddr: 0x120, symBinAddr: 0x6168, symSize: 0x18 }
  - { offset: 0x25CB0, size: 0x8, addend: 0x0, symName: '__ZN60_$LT$$RF$mut$u20$T$u20$as$u20$core..ops..deref..DerefMut$GT$9deref_mut17h6cd1e9a59462d61fE', symObjAddr: 0x138, symBinAddr: 0x6180, symSize: 0x18 }
  - { offset: 0x25CE7, size: 0x8, addend: 0x0, symName: '__ZN60_$LT$$RF$mut$u20$T$u20$as$u20$core..ops..deref..DerefMut$GT$9deref_mut17h72d91e3c8b2ccff8E', symObjAddr: 0x150, symBinAddr: 0x6198, symSize: 0x18 }
  - { offset: 0x25D1E, size: 0x8, addend: 0x0, symName: '__ZN60_$LT$$RF$mut$u20$T$u20$as$u20$core..ops..deref..DerefMut$GT$9deref_mut17h7514fd8d5711e7c2E', symObjAddr: 0x168, symBinAddr: 0x61B0, symSize: 0x18 }
  - { offset: 0x25D55, size: 0x8, addend: 0x0, symName: '__ZN60_$LT$$RF$mut$u20$T$u20$as$u20$core..ops..deref..DerefMut$GT$9deref_mut17h8530154a9eb93cadE', symObjAddr: 0x180, symBinAddr: 0x61C8, symSize: 0x18 }
  - { offset: 0x25D8C, size: 0x8, addend: 0x0, symName: '__ZN60_$LT$$RF$mut$u20$T$u20$as$u20$core..ops..deref..DerefMut$GT$9deref_mut17h94b469a7e8c354d1E', symObjAddr: 0x198, symBinAddr: 0x61E0, symSize: 0x18 }
  - { offset: 0x25DC3, size: 0x8, addend: 0x0, symName: '__ZN60_$LT$$RF$mut$u20$T$u20$as$u20$core..ops..deref..DerefMut$GT$9deref_mut17haab959015a1c5fceE', symObjAddr: 0x1B0, symBinAddr: 0x61F8, symSize: 0x18 }
  - { offset: 0x25DFA, size: 0x8, addend: 0x0, symName: '__ZN60_$LT$$RF$mut$u20$T$u20$as$u20$core..ops..deref..DerefMut$GT$9deref_mut17hbc7fdf00bf4e22daE', symObjAddr: 0x1C8, symBinAddr: 0x6210, symSize: 0x18 }
  - { offset: 0x25E31, size: 0x8, addend: 0x0, symName: '__ZN60_$LT$$RF$mut$u20$T$u20$as$u20$core..ops..deref..DerefMut$GT$9deref_mut17hc2286ac534517c1bE', symObjAddr: 0x1E0, symBinAddr: 0x6228, symSize: 0x18 }
  - { offset: 0x25E68, size: 0x8, addend: 0x0, symName: '__ZN60_$LT$$RF$mut$u20$T$u20$as$u20$core..ops..deref..DerefMut$GT$9deref_mut17hcaf325ed98c90cd6E', symObjAddr: 0x1F8, symBinAddr: 0x6240, symSize: 0x18 }
  - { offset: 0x25E9F, size: 0x8, addend: 0x0, symName: '__ZN60_$LT$$RF$mut$u20$T$u20$as$u20$core..ops..deref..DerefMut$GT$9deref_mut17hdcb4442efd4a46b0E', symObjAddr: 0x210, symBinAddr: 0x6258, symSize: 0x18 }
  - { offset: 0x25ED6, size: 0x8, addend: 0x0, symName: '__ZN60_$LT$$RF$mut$u20$T$u20$as$u20$core..ops..deref..DerefMut$GT$9deref_mut17hdffcecf452b0de78E', symObjAddr: 0x228, symBinAddr: 0x6270, symSize: 0x18 }
  - { offset: 0x25F0D, size: 0x8, addend: 0x0, symName: '__ZN60_$LT$$RF$mut$u20$T$u20$as$u20$core..ops..deref..DerefMut$GT$9deref_mut17he59573635da8a2d4E', symObjAddr: 0x240, symBinAddr: 0x6288, symSize: 0x18 }
  - { offset: 0x25F44, size: 0x8, addend: 0x0, symName: '__ZN60_$LT$$RF$mut$u20$T$u20$as$u20$core..ops..deref..DerefMut$GT$9deref_mut17he6fb78993e7a9a08E', symObjAddr: 0x258, symBinAddr: 0x62A0, symSize: 0x18 }
  - { offset: 0x25F7B, size: 0x8, addend: 0x0, symName: '__ZN60_$LT$$RF$mut$u20$T$u20$as$u20$core..ops..deref..DerefMut$GT$9deref_mut17hf3c5b8f3adacbb51E', symObjAddr: 0x270, symBinAddr: 0x62B8, symSize: 0x18 }
  - { offset: 0x25FB2, size: 0x8, addend: 0x0, symName: '__ZN60_$LT$$RF$mut$u20$T$u20$as$u20$core..ops..deref..DerefMut$GT$9deref_mut17hfa2ebf8e0833106bE', symObjAddr: 0x288, symBinAddr: 0x62D0, symSize: 0x18 }
  - { offset: 0x25FE9, size: 0x8, addend: 0x0, symName: '__ZN60_$LT$$RF$mut$u20$T$u20$as$u20$core..ops..deref..DerefMut$GT$9deref_mut17hfd8510e751f2f886E', symObjAddr: 0x2A0, symBinAddr: 0x62E8, symSize: 0x18 }
  - { offset: 0x26020, size: 0x8, addend: 0x0, symName: '__ZN60_$LT$$RF$mut$u20$T$u20$as$u20$core..ops..deref..DerefMut$GT$9deref_mut17hfe379aea0fceef66E', symObjAddr: 0x2B8, symBinAddr: 0x6300, symSize: 0x18 }
  - { offset: 0x26163, size: 0x8, addend: 0x0, symName: '__ZN69_$LT$core..pin..Pin$LT$Ptr$GT$$u20$as$u20$core..ops..deref..Deref$GT$5deref17h39c139a55bfd833cE', symObjAddr: 0x2D0, symBinAddr: 0x6318, symSize: 0x34 }
  - { offset: 0x261D6, size: 0x8, addend: 0x0, symName: '__ZN69_$LT$core..pin..Pin$LT$Ptr$GT$$u20$as$u20$core..ops..deref..Deref$GT$5deref17h847036cd2606a821E', symObjAddr: 0x304, symBinAddr: 0x634C, symSize: 0x34 }
  - { offset: 0x26249, size: 0x8, addend: 0x0, symName: '__ZN69_$LT$core..pin..Pin$LT$Ptr$GT$$u20$as$u20$core..ops..deref..Deref$GT$5deref17h8e6db0119262ee65E', symObjAddr: 0x338, symBinAddr: 0x6380, symSize: 0x34 }
  - { offset: 0x262BC, size: 0x8, addend: 0x0, symName: '__ZN69_$LT$core..pin..Pin$LT$Ptr$GT$$u20$as$u20$core..ops..deref..Deref$GT$5deref17h93741ef9c7d020f8E', symObjAddr: 0x36C, symBinAddr: 0x63B4, symSize: 0x34 }
  - { offset: 0x2632F, size: 0x8, addend: 0x0, symName: '__ZN69_$LT$core..pin..Pin$LT$Ptr$GT$$u20$as$u20$core..ops..deref..Deref$GT$5deref17hee993daeadf176e7E', symObjAddr: 0x3A0, symBinAddr: 0x63E8, symSize: 0x34 }
  - { offset: 0x27765, size: 0x8, addend: 0x0, symName: '__ZN72_$LT$core..pin..Pin$LT$Ptr$GT$$u20$as$u20$core..ops..deref..DerefMut$GT$9deref_mut17h0422da7d6b23bacdE', symObjAddr: 0xCE8, symBinAddr: 0x6D30, symSize: 0x34 }
  - { offset: 0x277D8, size: 0x8, addend: 0x0, symName: '__ZN72_$LT$core..pin..Pin$LT$Ptr$GT$$u20$as$u20$core..ops..deref..DerefMut$GT$9deref_mut17h134d9ec42464f256E', symObjAddr: 0xD1C, symBinAddr: 0x6D64, symSize: 0x34 }
  - { offset: 0x2784B, size: 0x8, addend: 0x0, symName: '__ZN72_$LT$core..pin..Pin$LT$Ptr$GT$$u20$as$u20$core..ops..deref..DerefMut$GT$9deref_mut17h2422421eedc96808E', symObjAddr: 0xD50, symBinAddr: 0x6D98, symSize: 0x34 }
  - { offset: 0x278BE, size: 0x8, addend: 0x0, symName: '__ZN72_$LT$core..pin..Pin$LT$Ptr$GT$$u20$as$u20$core..ops..deref..DerefMut$GT$9deref_mut17h34896fd51d418187E', symObjAddr: 0xD84, symBinAddr: 0x6DCC, symSize: 0x34 }
  - { offset: 0x27931, size: 0x8, addend: 0x0, symName: '__ZN72_$LT$core..pin..Pin$LT$Ptr$GT$$u20$as$u20$core..ops..deref..DerefMut$GT$9deref_mut17h5a8a090f41c96484E', symObjAddr: 0xDB8, symBinAddr: 0x6E00, symSize: 0x34 }
  - { offset: 0x279A4, size: 0x8, addend: 0x0, symName: '__ZN72_$LT$core..pin..Pin$LT$Ptr$GT$$u20$as$u20$core..ops..deref..DerefMut$GT$9deref_mut17h5eda251e200ffc55E', symObjAddr: 0xDEC, symBinAddr: 0x6E34, symSize: 0x34 }
  - { offset: 0x27A17, size: 0x8, addend: 0x0, symName: '__ZN72_$LT$core..pin..Pin$LT$Ptr$GT$$u20$as$u20$core..ops..deref..DerefMut$GT$9deref_mut17h658f19024e0e7bb7E', symObjAddr: 0xE20, symBinAddr: 0x6E68, symSize: 0x34 }
  - { offset: 0x27A8A, size: 0x8, addend: 0x0, symName: '__ZN72_$LT$core..pin..Pin$LT$Ptr$GT$$u20$as$u20$core..ops..deref..DerefMut$GT$9deref_mut17h6fff06dc10af95c9E', symObjAddr: 0xE54, symBinAddr: 0x6E9C, symSize: 0x34 }
  - { offset: 0x27AFD, size: 0x8, addend: 0x0, symName: '__ZN72_$LT$core..pin..Pin$LT$Ptr$GT$$u20$as$u20$core..ops..deref..DerefMut$GT$9deref_mut17h7787161b7c802260E', symObjAddr: 0xE88, symBinAddr: 0x6ED0, symSize: 0x34 }
  - { offset: 0x27B70, size: 0x8, addend: 0x0, symName: '__ZN72_$LT$core..pin..Pin$LT$Ptr$GT$$u20$as$u20$core..ops..deref..DerefMut$GT$9deref_mut17h870f3bbc7ec3673bE', symObjAddr: 0xEBC, symBinAddr: 0x6F04, symSize: 0x34 }
  - { offset: 0x27BE3, size: 0x8, addend: 0x0, symName: '__ZN72_$LT$core..pin..Pin$LT$Ptr$GT$$u20$as$u20$core..ops..deref..DerefMut$GT$9deref_mut17hb8692e2220bd9b27E', symObjAddr: 0xEF0, symBinAddr: 0x6F38, symSize: 0x34 }
  - { offset: 0x27C56, size: 0x8, addend: 0x0, symName: '__ZN72_$LT$core..pin..Pin$LT$Ptr$GT$$u20$as$u20$core..ops..deref..DerefMut$GT$9deref_mut17hbc7610d4882e232dE', symObjAddr: 0xF24, symBinAddr: 0x6F6C, symSize: 0x34 }
  - { offset: 0x27CC9, size: 0x8, addend: 0x0, symName: '__ZN72_$LT$core..pin..Pin$LT$Ptr$GT$$u20$as$u20$core..ops..deref..DerefMut$GT$9deref_mut17he951c178941939f6E', symObjAddr: 0xF58, symBinAddr: 0x6FA0, symSize: 0x34 }
  - { offset: 0x27D3C, size: 0x8, addend: 0x0, symName: '__ZN72_$LT$core..pin..Pin$LT$Ptr$GT$$u20$as$u20$core..ops..deref..DerefMut$GT$9deref_mut17heb134ab861c54f60E', symObjAddr: 0xF8C, symBinAddr: 0x6FD4, symSize: 0x34 }
  - { offset: 0x27DAF, size: 0x8, addend: 0x0, symName: '__ZN72_$LT$core..pin..Pin$LT$Ptr$GT$$u20$as$u20$core..ops..deref..DerefMut$GT$9deref_mut17heba65294b164d407E', symObjAddr: 0xFC0, symBinAddr: 0x7008, symSize: 0x34 }
  - { offset: 0x27E22, size: 0x8, addend: 0x0, symName: '__ZN72_$LT$core..pin..Pin$LT$Ptr$GT$$u20$as$u20$core..ops..deref..DerefMut$GT$9deref_mut17hf314da3306316bf4E', symObjAddr: 0xFF4, symBinAddr: 0x703C, symSize: 0x34 }
  - { offset: 0x27E95, size: 0x8, addend: 0x0, symName: '__ZN72_$LT$core..pin..Pin$LT$Ptr$GT$$u20$as$u20$core..ops..deref..DerefMut$GT$9deref_mut17hfe440958898d0442E', symObjAddr: 0x1028, symBinAddr: 0x7070, symSize: 0x34 }
  - { offset: 0x2A2B7, size: 0x8, addend: 0x0, symName: '__ZN72_$LT$core..pin..Pin$LT$P$GT$$u20$as$u20$core..future..future..Future$GT$4poll17h0398fc881f046f3bE', symObjAddr: 0x3D4, symBinAddr: 0x641C, symSize: 0x4C }
  - { offset: 0x2A353, size: 0x8, addend: 0x0, symName: '__ZN72_$LT$core..pin..Pin$LT$P$GT$$u20$as$u20$core..future..future..Future$GT$4poll17h098cfe11b2cbe9e2E', symObjAddr: 0x420, symBinAddr: 0x6468, symSize: 0x4C }
  - { offset: 0x2A3EF, size: 0x8, addend: 0x0, symName: '__ZN72_$LT$core..pin..Pin$LT$P$GT$$u20$as$u20$core..future..future..Future$GT$4poll17h16138be8c17a1a10E', symObjAddr: 0x46C, symBinAddr: 0x64B4, symSize: 0x4C }
  - { offset: 0x2A48B, size: 0x8, addend: 0x0, symName: '__ZN72_$LT$core..pin..Pin$LT$P$GT$$u20$as$u20$core..future..future..Future$GT$4poll17h3197e2a2fe5c8f84E', symObjAddr: 0x4B8, symBinAddr: 0x6500, symSize: 0x4C }
  - { offset: 0x2A527, size: 0x8, addend: 0x0, symName: '__ZN72_$LT$core..pin..Pin$LT$P$GT$$u20$as$u20$core..future..future..Future$GT$4poll17h3938eccf37508897E', symObjAddr: 0x504, symBinAddr: 0x654C, symSize: 0x4C }
  - { offset: 0x2A5C3, size: 0x8, addend: 0x0, symName: '__ZN72_$LT$core..pin..Pin$LT$P$GT$$u20$as$u20$core..future..future..Future$GT$4poll17h3942b8239268e918E', symObjAddr: 0x550, symBinAddr: 0x6598, symSize: 0x4C }
  - { offset: 0x2A65F, size: 0x8, addend: 0x0, symName: '__ZN72_$LT$core..pin..Pin$LT$P$GT$$u20$as$u20$core..future..future..Future$GT$4poll17h3d17b148c6764cbbE', symObjAddr: 0x59C, symBinAddr: 0x65E4, symSize: 0x4C }
  - { offset: 0x2A6FB, size: 0x8, addend: 0x0, symName: '__ZN72_$LT$core..pin..Pin$LT$P$GT$$u20$as$u20$core..future..future..Future$GT$4poll17h3f27399178a68876E', symObjAddr: 0x5E8, symBinAddr: 0x6630, symSize: 0x4C }
  - { offset: 0x2A797, size: 0x8, addend: 0x0, symName: '__ZN72_$LT$core..pin..Pin$LT$P$GT$$u20$as$u20$core..future..future..Future$GT$4poll17h40d27c4a686223e5E', symObjAddr: 0x634, symBinAddr: 0x667C, symSize: 0x44 }
  - { offset: 0x2A833, size: 0x8, addend: 0x0, symName: '__ZN72_$LT$core..pin..Pin$LT$P$GT$$u20$as$u20$core..future..future..Future$GT$4poll17h454207893a7006c1E', symObjAddr: 0x678, symBinAddr: 0x66C0, symSize: 0x4C }
  - { offset: 0x2A8CF, size: 0x8, addend: 0x0, symName: '__ZN72_$LT$core..pin..Pin$LT$P$GT$$u20$as$u20$core..future..future..Future$GT$4poll17h48aaaf504e6d7f85E', symObjAddr: 0x6C4, symBinAddr: 0x670C, symSize: 0x4C }
  - { offset: 0x2A96B, size: 0x8, addend: 0x0, symName: '__ZN72_$LT$core..pin..Pin$LT$P$GT$$u20$as$u20$core..future..future..Future$GT$4poll17h774ce40c0db9f67cE', symObjAddr: 0x710, symBinAddr: 0x6758, symSize: 0x4C }
  - { offset: 0x2AA07, size: 0x8, addend: 0x0, symName: '__ZN72_$LT$core..pin..Pin$LT$P$GT$$u20$as$u20$core..future..future..Future$GT$4poll17h81987183e7dba567E', symObjAddr: 0x75C, symBinAddr: 0x67A4, symSize: 0x4C }
  - { offset: 0x2AAA3, size: 0x8, addend: 0x0, symName: '__ZN72_$LT$core..pin..Pin$LT$P$GT$$u20$as$u20$core..future..future..Future$GT$4poll17h8cd34da780f89556E', symObjAddr: 0x7A8, symBinAddr: 0x67F0, symSize: 0x4C }
  - { offset: 0x2AB3F, size: 0x8, addend: 0x0, symName: '__ZN72_$LT$core..pin..Pin$LT$P$GT$$u20$as$u20$core..future..future..Future$GT$4poll17h908db0e178455de5E', symObjAddr: 0x7F4, symBinAddr: 0x683C, symSize: 0x4C }
  - { offset: 0x2ABDB, size: 0x8, addend: 0x0, symName: '__ZN72_$LT$core..pin..Pin$LT$P$GT$$u20$as$u20$core..future..future..Future$GT$4poll17h9b0d31beb628a662E', symObjAddr: 0x840, symBinAddr: 0x6888, symSize: 0x44 }
  - { offset: 0x2AC77, size: 0x8, addend: 0x0, symName: '__ZN72_$LT$core..pin..Pin$LT$P$GT$$u20$as$u20$core..future..future..Future$GT$4poll17h9c910d50a1c0bf1cE', symObjAddr: 0x884, symBinAddr: 0x68CC, symSize: 0x4C }
  - { offset: 0x2AD13, size: 0x8, addend: 0x0, symName: '__ZN72_$LT$core..pin..Pin$LT$P$GT$$u20$as$u20$core..future..future..Future$GT$4poll17h9e6aaf2eec59cdbeE', symObjAddr: 0x8D0, symBinAddr: 0x6918, symSize: 0x4C }
  - { offset: 0x2ADAF, size: 0x8, addend: 0x0, symName: '__ZN72_$LT$core..pin..Pin$LT$P$GT$$u20$as$u20$core..future..future..Future$GT$4poll17ha5149e4500edde85E', symObjAddr: 0x91C, symBinAddr: 0x6964, symSize: 0x4C }
  - { offset: 0x2AE4B, size: 0x8, addend: 0x0, symName: '__ZN72_$LT$core..pin..Pin$LT$P$GT$$u20$as$u20$core..future..future..Future$GT$4poll17hc4bc5598b305ce4bE', symObjAddr: 0x968, symBinAddr: 0x69B0, symSize: 0x4C }
  - { offset: 0x2AEE7, size: 0x8, addend: 0x0, symName: '__ZN72_$LT$core..pin..Pin$LT$P$GT$$u20$as$u20$core..future..future..Future$GT$4poll17hc6ae10b73331e63cE', symObjAddr: 0x9B4, symBinAddr: 0x69FC, symSize: 0x4C }
  - { offset: 0x2AF83, size: 0x8, addend: 0x0, symName: '__ZN72_$LT$core..pin..Pin$LT$P$GT$$u20$as$u20$core..future..future..Future$GT$4poll17hc95d7bedc6119661E', symObjAddr: 0xA00, symBinAddr: 0x6A48, symSize: 0x4C }
  - { offset: 0x2B01F, size: 0x8, addend: 0x0, symName: '__ZN72_$LT$core..pin..Pin$LT$P$GT$$u20$as$u20$core..future..future..Future$GT$4poll17hd1016981327328efE', symObjAddr: 0xA4C, symBinAddr: 0x6A94, symSize: 0x44 }
  - { offset: 0x2B0BB, size: 0x8, addend: 0x0, symName: '__ZN72_$LT$core..pin..Pin$LT$P$GT$$u20$as$u20$core..future..future..Future$GT$4poll17hde3d5b944aa82680E', symObjAddr: 0xA90, symBinAddr: 0x6AD8, symSize: 0x4C }
  - { offset: 0x2B157, size: 0x8, addend: 0x0, symName: '__ZN72_$LT$core..pin..Pin$LT$P$GT$$u20$as$u20$core..future..future..Future$GT$4poll17he1adc7e81e6d5326E', symObjAddr: 0xADC, symBinAddr: 0x6B24, symSize: 0x44 }
  - { offset: 0x2B1F3, size: 0x8, addend: 0x0, symName: '__ZN72_$LT$core..pin..Pin$LT$P$GT$$u20$as$u20$core..future..future..Future$GT$4poll17he3f097be83a09c1aE', symObjAddr: 0xB20, symBinAddr: 0x6B68, symSize: 0x4C }
  - { offset: 0x2B28F, size: 0x8, addend: 0x0, symName: '__ZN72_$LT$core..pin..Pin$LT$P$GT$$u20$as$u20$core..future..future..Future$GT$4poll17heb1aec6e28a575ffE', symObjAddr: 0xB6C, symBinAddr: 0x6BB4, symSize: 0x4C }
  - { offset: 0x2B32B, size: 0x8, addend: 0x0, symName: '__ZN72_$LT$core..pin..Pin$LT$P$GT$$u20$as$u20$core..future..future..Future$GT$4poll17hede1ae0bb18a57acE', symObjAddr: 0xBB8, symBinAddr: 0x6C00, symSize: 0x4C }
  - { offset: 0x2B3C7, size: 0x8, addend: 0x0, symName: '__ZN72_$LT$core..pin..Pin$LT$P$GT$$u20$as$u20$core..future..future..Future$GT$4poll17hefd70de772fff7e8E', symObjAddr: 0xC04, symBinAddr: 0x6C4C, symSize: 0x4C }
  - { offset: 0x2B463, size: 0x8, addend: 0x0, symName: '__ZN72_$LT$core..pin..Pin$LT$P$GT$$u20$as$u20$core..future..future..Future$GT$4poll17hf07f3e30f91fcec6E', symObjAddr: 0xC50, symBinAddr: 0x6C98, symSize: 0x4C }
  - { offset: 0x2B4FF, size: 0x8, addend: 0x0, symName: '__ZN72_$LT$core..pin..Pin$LT$P$GT$$u20$as$u20$core..future..future..Future$GT$4poll17hf27aa78a7957bfa8E', symObjAddr: 0xC9C, symBinAddr: 0x6CE4, symSize: 0x4C }
  - { offset: 0x2F94A, size: 0x8, addend: 0x0, symName: '__ZN58_$LT$core..any..TypeId$u20$as$u20$core..cmp..PartialEq$GT$2eq17h38e1ccc274e8b258E', symObjAddr: 0x0, symBinAddr: 0x70A4, symSize: 0x2C }
  - { offset: 0x2F966, size: 0x8, addend: 0x0, symName: '__ZN58_$LT$core..any..TypeId$u20$as$u20$core..cmp..PartialEq$GT$2eq17h38e1ccc274e8b258E', symObjAddr: 0x0, symBinAddr: 0x70A4, symSize: 0x2C }
  - { offset: 0x2FA12, size: 0x8, addend: 0x0, symName: '__ZN4pyo36pycell14PyRef$LT$T$GT$10try_borrow17h5bed31574369b437E', symObjAddr: 0x0, symBinAddr: 0x70D0, symSize: 0x4C }
  - { offset: 0x32E7C, size: 0x8, addend: 0x0, symName: '__ZN50_$LT$T$u20$as$u20$core..convert..Into$LT$U$GT$$GT$4into17h59ab4e9712753651E', symObjAddr: 0x230, symBinAddr: 0x7300, symSize: 0x1C }
  - { offset: 0x32EBC, size: 0x8, addend: 0x0, symName: '__ZN50_$LT$T$u20$as$u20$core..convert..Into$LT$U$GT$$GT$4into17hdde5d8eec5945ca8E', symObjAddr: 0x24C, symBinAddr: 0x731C, symSize: 0x1C }
  - { offset: 0x349F9, size: 0x8, addend: 0x0, symName: '__ZN4pyo36pycell14PyRef$LT$T$GT$10try_borrow28_$u7b$$u7b$closure$u7d$$u7d$17h0be300f0e4d7418dE', symObjAddr: 0x130, symBinAddr: 0x7200, symSize: 0x24 }
  - { offset: 0x34A3D, size: 0x8, addend: 0x0, symName: '__ZN4pyo36pycell14PyRef$LT$T$GT$10try_borrow28_$u7b$$u7b$closure$u7d$$u7d$17h148f53170a6df9e4E', symObjAddr: 0x154, symBinAddr: 0x7224, symSize: 0x24 }
  - { offset: 0x34A81, size: 0x8, addend: 0x0, symName: '__ZN4pyo36pycell14PyRef$LT$T$GT$10try_borrow28_$u7b$$u7b$closure$u7d$$u7d$17hc4dd1ea176b21ff2E', symObjAddr: 0x178, symBinAddr: 0x7248, symSize: 0x24 }
  - { offset: 0x34AC5, size: 0x8, addend: 0x0, symName: '__ZN4pyo36pycell14PyRef$LT$T$GT$10try_borrow28_$u7b$$u7b$closure$u7d$$u7d$17hd5cd9294a2f33288E', symObjAddr: 0x19C, symBinAddr: 0x726C, symSize: 0x24 }
  - { offset: 0x34B67, size: 0x8, addend: 0x0, symName: '__ZN4pyo36pycell17PyRefMut$LT$T$GT$10try_borrow28_$u7b$$u7b$closure$u7d$$u7d$17h862977ea18d208e8E', symObjAddr: 0x20C, symBinAddr: 0x72DC, symSize: 0x24 }
  - { offset: 0x34BB2, size: 0x8, addend: 0x0, symName: '__ZN72_$LT$pyo3..pycell..PyRef$LT$T$GT$$u20$as$u20$core..ops..deref..Deref$GT$5deref17h7cede1fe919c3d90E', symObjAddr: 0x36C, symBinAddr: 0x743C, symSize: 0x74 }
  - { offset: 0x34BE9, size: 0x8, addend: 0x0, symName: '__ZN72_$LT$pyo3..pycell..PyRef$LT$T$GT$$u20$as$u20$core..ops..deref..Deref$GT$5deref17h8d7d6f3fa4473031E', symObjAddr: 0x3E0, symBinAddr: 0x74B0, symSize: 0x74 }
  - { offset: 0x34C20, size: 0x8, addend: 0x0, symName: '__ZN72_$LT$pyo3..pycell..PyRef$LT$T$GT$$u20$as$u20$core..ops..deref..Deref$GT$5deref17h9507fcd77393ff52E', symObjAddr: 0x454, symBinAddr: 0x7524, symSize: 0x74 }
  - { offset: 0x34C57, size: 0x8, addend: 0x0, symName: '__ZN72_$LT$pyo3..pycell..PyRef$LT$T$GT$$u20$as$u20$core..ops..deref..Deref$GT$5deref17hdbdd3a9f4028834cE', symObjAddr: 0x4C8, symBinAddr: 0x7598, symSize: 0x74 }
  - { offset: 0x34C94, size: 0x8, addend: 0x0, symName: '__ZN78_$LT$pyo3..pycell..PyRefMut$LT$T$GT$$u20$as$u20$core..ops..deref..DerefMut$GT$9deref_mut17h77b71a05fa26a442E', symObjAddr: 0x53C, symBinAddr: 0x760C, symSize: 0x74 }
  - { offset: 0x35225, size: 0x8, addend: 0x0, symName: '__ZN57_$LT$T$u20$as$u20$pyo3..conversion..FromPyObjectBound$GT$20from_py_object_bound17h2b36af77a73ca614E', symObjAddr: 0x268, symBinAddr: 0x7338, symSize: 0x34 }
  - { offset: 0x3525C, size: 0x8, addend: 0x0, symName: '__ZN57_$LT$T$u20$as$u20$pyo3..conversion..FromPyObjectBound$GT$20from_py_object_bound17h5a369721555435e6E', symObjAddr: 0x29C, symBinAddr: 0x736C, symSize: 0x34 }
  - { offset: 0x35293, size: 0x8, addend: 0x0, symName: '__ZN57_$LT$T$u20$as$u20$pyo3..conversion..FromPyObjectBound$GT$20from_py_object_bound17h7e5b25a5b52e514dE', symObjAddr: 0x2D0, symBinAddr: 0x73A0, symSize: 0x34 }
  - { offset: 0x352CA, size: 0x8, addend: 0x0, symName: '__ZN57_$LT$T$u20$as$u20$pyo3..conversion..FromPyObjectBound$GT$20from_py_object_bound17h82b5cf030b67f712E', symObjAddr: 0x304, symBinAddr: 0x73D4, symSize: 0x34 }
  - { offset: 0x35301, size: 0x8, addend: 0x0, symName: '__ZN57_$LT$T$u20$as$u20$pyo3..conversion..FromPyObjectBound$GT$20from_py_object_bound17hc670bf773f8c2979E', symObjAddr: 0x338, symBinAddr: 0x7408, symSize: 0x34 }
  - { offset: 0x3533E, size: 0x8, addend: 0x0, symName: '__ZN79_$LT$pyo3..pycell..PyRef$LT$T$GT$$u20$as$u20$pyo3..conversion..FromPyObject$GT$13extract_bound17h37ccaa49ccb52b4dE', symObjAddr: 0x5B0, symBinAddr: 0x7680, symSize: 0x94 }
  - { offset: 0x35393, size: 0x8, addend: 0x0, symName: '__ZN79_$LT$pyo3..pycell..PyRef$LT$T$GT$$u20$as$u20$pyo3..conversion..FromPyObject$GT$13extract_bound17h536485ff6109385bE', symObjAddr: 0x644, symBinAddr: 0x7714, symSize: 0x94 }
  - { offset: 0x353E8, size: 0x8, addend: 0x0, symName: '__ZN79_$LT$pyo3..pycell..PyRef$LT$T$GT$$u20$as$u20$pyo3..conversion..FromPyObject$GT$13extract_bound17h637fa83c5d0da6edE', symObjAddr: 0x6D8, symBinAddr: 0x77A8, symSize: 0x94 }
  - { offset: 0x3543D, size: 0x8, addend: 0x0, symName: '__ZN79_$LT$pyo3..pycell..PyRef$LT$T$GT$$u20$as$u20$pyo3..conversion..FromPyObject$GT$13extract_bound17he84ec25b1bf992b0E', symObjAddr: 0x76C, symBinAddr: 0x783C, symSize: 0x94 }
  - { offset: 0x35498, size: 0x8, addend: 0x0, symName: '__ZN82_$LT$pyo3..pycell..PyRefMut$LT$T$GT$$u20$as$u20$pyo3..conversion..FromPyObject$GT$13extract_bound17ha97f0d7923d501c9E', symObjAddr: 0x800, symBinAddr: 0x78D0, symSize: 0x94 }
  - { offset: 0x35E46, size: 0x8, addend: 0x0, symName: '__ZN4pyo36pycell14PyRef$LT$T$GT$10try_borrow17h5bed31574369b437E', symObjAddr: 0x0, symBinAddr: 0x70D0, symSize: 0x4C }
  - { offset: 0x38546, size: 0x8, addend: 0x0, symName: '__ZN4pyo36pycell14PyRef$LT$T$GT$10try_borrow17h6ef918024ebdb854E', symObjAddr: 0x4C, symBinAddr: 0x711C, symSize: 0x4C }
  - { offset: 0x38614, size: 0x8, addend: 0x0, symName: '__ZN4pyo36pycell14PyRef$LT$T$GT$10try_borrow17hde1fc3d36fa59c0eE', symObjAddr: 0x98, symBinAddr: 0x7168, symSize: 0x4C }
  - { offset: 0x3866B, size: 0x8, addend: 0x0, symName: '__ZN4pyo36pycell14PyRef$LT$T$GT$10try_borrow17hecdba9fefbb94ba9E', symObjAddr: 0xE4, symBinAddr: 0x71B4, symSize: 0x4C }
  - { offset: 0x386B5, size: 0x8, addend: 0x0, symName: '__ZN4pyo36pycell17PyRefMut$LT$T$GT$10try_borrow17h22b1d2cfe1e2b0eaE', symObjAddr: 0x1C0, symBinAddr: 0x7290, symSize: 0x4C }
  - { offset: 0x38839, size: 0x8, addend: 0x0, symName: __ZN4_sys5cache7manager17MemoryTierManager3new17hf32f02c5fc724707E, symObjAddr: 0x0, symBinAddr: 0x7964, symSize: 0x434 }
  - { offset: 0x3B53A, size: 0x8, addend: 0x0, symName: __ZN4_sys5cache7manager17MemoryTierManager3new17hf32f02c5fc724707E, symObjAddr: 0x0, symBinAddr: 0x7964, symSize: 0x434 }
  - { offset: 0x3B5FD, size: 0x8, addend: 0x0, symName: __ZN4_sys5cache7manager17MemoryTierManager22record_attention_score17h31a9fefe4b6da0e4E, symObjAddr: 0x434, symBinAddr: 0x7D98, symSize: 0x78 }
  - { offset: 0x3C9DE, size: 0x8, addend: 0x0, symName: __ZN4_sys5cache7manager17MemoryTierManager11maybe_evict17h2247caf16be7f771E, symObjAddr: 0x4AC, symBinAddr: 0x7E10, symSize: 0x1C }
  - { offset: 0x3CC21, size: 0x8, addend: 0x0, symName: __ZN4_sys5cache7manager17MemoryTierManager6demote17hec89489b833292ecE, symObjAddr: 0x4C8, symBinAddr: 0x7E2C, symSize: 0x48 }
  - { offset: 0x3CC7B, size: 0x8, addend: 0x0, symName: __ZN4_sys5cache7manager17MemoryTierManager7promote17hd4f9aa646d9c313bE, symObjAddr: 0x510, symBinAddr: 0x7E74, symSize: 0x34 }
  - { offset: 0x3CCC7, size: 0x8, addend: 0x0, symName: __ZN4_sys5cache7manager17MemoryTierManager14snapshot_count17h4ac1b70205270242E, symObjAddr: 0x544, symBinAddr: 0x7EA8, symSize: 0x28 }
  - { offset: 0x3CD07, size: 0x8, addend: 0x0, symName: '__ZN4pyo35impl_7pyclass16lazy_type_object23LazyTypeObject$LT$T$GT$11get_or_init17h0269cb5277b42fb1E', symObjAddr: 0x0, symBinAddr: 0x7ED0, symSize: 0x40 }
  - { offset: 0x41A6A, size: 0x8, addend: 0x0, symName: '__ZN4pyo35impl_7pyclass16lazy_type_object23LazyTypeObject$LT$T$GT$11get_or_init28_$u7b$$u7b$closure$u7d$$u7d$17h4cdc5b8287152b02E', symObjAddr: 0x100, symBinAddr: 0x7FD0, symSize: 0x98 }
  - { offset: 0x41AD7, size: 0x8, addend: 0x0, symName: '__ZN4pyo35impl_7pyclass16lazy_type_object23LazyTypeObject$LT$T$GT$11get_or_init28_$u7b$$u7b$closure$u7d$$u7d$17h8212a0993ec0c08fE', symObjAddr: 0x198, symBinAddr: 0x8068, symSize: 0x98 }
  - { offset: 0x41B44, size: 0x8, addend: 0x0, symName: '__ZN4pyo35impl_7pyclass16lazy_type_object23LazyTypeObject$LT$T$GT$11get_or_init28_$u7b$$u7b$closure$u7d$$u7d$17h97549625c25b516fE', symObjAddr: 0x230, symBinAddr: 0x8100, symSize: 0x98 }
  - { offset: 0x41BB1, size: 0x8, addend: 0x0, symName: '__ZN4pyo35impl_7pyclass16lazy_type_object23LazyTypeObject$LT$T$GT$11get_or_init28_$u7b$$u7b$closure$u7d$$u7d$17hc1e3ef11bea313beE', symObjAddr: 0x2C8, symBinAddr: 0x8198, symSize: 0x98 }
  - { offset: 0x44C1C, size: 0x8, addend: 0x0, symName: '__ZN4pyo35impl_7pyclass16lazy_type_object23LazyTypeObject$LT$T$GT$11get_or_init17h0269cb5277b42fb1E', symObjAddr: 0x0, symBinAddr: 0x7ED0, symSize: 0x40 }
  - { offset: 0x44C6D, size: 0x8, addend: 0x0, symName: '__ZN4pyo35impl_7pyclass16lazy_type_object23LazyTypeObject$LT$T$GT$11get_or_init17h856040212dbb1ac5E', symObjAddr: 0x40, symBinAddr: 0x7F10, symSize: 0x40 }
  - { offset: 0x45019, size: 0x8, addend: 0x0, symName: '__ZN4pyo35impl_7pyclass16lazy_type_object23LazyTypeObject$LT$T$GT$11get_or_init17hb483115fc8963512E', symObjAddr: 0x80, symBinAddr: 0x7F50, symSize: 0x40 }
  - { offset: 0x450E1, size: 0x8, addend: 0x0, symName: '__ZN4pyo35impl_7pyclass16lazy_type_object23LazyTypeObject$LT$T$GT$11get_or_init17hccca99875b14d10bE', symObjAddr: 0xC0, symBinAddr: 0x7F90, symSize: 0x40 }
  - { offset: 0x45125, size: 0x8, addend: 0x0, symName: '__ZN4pyo35impl_7pyclass16lazy_type_object23LazyTypeObject$LT$T$GT$15get_or_try_init17h77ea0176c27f96a0E', symObjAddr: 0x360, symBinAddr: 0x8230, symSize: 0x58 }
  - { offset: 0x45169, size: 0x8, addend: 0x0, symName: '__ZN4pyo35impl_7pyclass16lazy_type_object23LazyTypeObject$LT$T$GT$15get_or_try_init17h9d4c4b07a2dd72e1E', symObjAddr: 0x3B8, symBinAddr: 0x8288, symSize: 0x58 }
  - { offset: 0x451AD, size: 0x8, addend: 0x0, symName: '__ZN4pyo35impl_7pyclass16lazy_type_object23LazyTypeObject$LT$T$GT$15get_or_try_init17hc7365d1e86b72a24E', symObjAddr: 0x410, symBinAddr: 0x82E0, symSize: 0x58 }
  - { offset: 0x451F1, size: 0x8, addend: 0x0, symName: '__ZN4pyo35impl_7pyclass16lazy_type_object23LazyTypeObject$LT$T$GT$15get_or_try_init17hd0a3a321896ab526E', symObjAddr: 0x468, symBinAddr: 0x8338, symSize: 0x58 }
  - { offset: 0x452D2, size: 0x8, addend: 0x0, symName: '__ZN59_$LT$F$u20$as$u20$core..future..into_future..IntoFuture$GT$11into_future17ha69d1c549d1ce0e3E', symObjAddr: 0x0, symBinAddr: 0x8390, symSize: 0x30 }
  - { offset: 0x457AF, size: 0x8, addend: 0x0, symName: '__ZN4_sys7storage7journal17WriteAheadJournal6append28_$u7b$$u7b$closure$u7d$$u7d$17h9746c3f466ca52ecE', symObjAddr: 0x30, symBinAddr: 0x83C0, symSize: 0x530 }
  - { offset: 0x45960, size: 0x8, addend: 0x0, symName: '__ZN4_sys7storage7journal17WriteAheadJournal6append28_$u7b$$u7b$closure$u7d$$u7d$28_$u7b$$u7b$closure$u7d$$u7d$17h8844420f1678c3e0E', symObjAddr: 0x560, symBinAddr: 0x88F0, symSize: 0x80 }
  - { offset: 0x45AEB, size: 0x8, addend: 0x0, symName: '__ZN4_sys7storage7journal1_90_$LT$impl$u20$serde_core..ser..Serialize$u20$for$u20$_sys..storage..journal..JournalOp$GT$9serialize17he51ec5aedf555347E', symObjAddr: 0x5E0, symBinAddr: 0x8970, symSize: 0xA0 }
  - { offset: 0x45B2E, size: 0x8, addend: 0x0, symName: '__ZN4_sys7storage7journal1_93_$LT$impl$u20$serde_core..ser..Serialize$u20$for$u20$_sys..storage..journal..JournalEntry$GT$9serialize17h0b06a9cd1c8476b8E', symObjAddr: 0x680, symBinAddr: 0x8A10, symSize: 0x338 }
  - { offset: 0x460D9, size: 0x8, addend: 0x0, symName: '__ZN59_$LT$F$u20$as$u20$core..future..into_future..IntoFuture$GT$11into_future17ha69d1c549d1ce0e3E', symObjAddr: 0x0, symBinAddr: 0x8390, symSize: 0x30 }
  - { offset: 0x47B63, size: 0x8, addend: 0x0, symName: '__ZN4core4cell13Cell$LT$T$GT$3new17h935a9c5579c0215dE', symObjAddr: 0x0, symBinAddr: 0x8D48, symSize: 0x10 }
  - { offset: 0x47BFE, size: 0x8, addend: 0x0, symName: __ZN8pyo3_ffi13unicodeobject15PyUnicode_Check17hea9c603e905cd179E, symObjAddr: 0x10, symBinAddr: 0x8D58, symSize: 0x30 }
  - { offset: 0x48C9E, size: 0x8, addend: 0x0, symName: '__ZN4core4cell13Cell$LT$T$GT$3new17h935a9c5579c0215dE', symObjAddr: 0x0, symBinAddr: 0x8D48, symSize: 0x10 }
  - { offset: 0x49139, size: 0x8, addend: 0x0, symName: __ZN5alloc3vec16in_place_collect18from_iter_in_place17h0a1c5efa54361e31E, symObjAddr: 0x0, symBinAddr: 0x8D88, symSize: 0x40C }
  - { offset: 0x4A303, size: 0x8, addend: 0x0, symName: __ZN5alloc3vec16in_place_collect18from_iter_in_place17h0a1c5efa54361e31E, symObjAddr: 0x0, symBinAddr: 0x8D88, symSize: 0x40C }
  - { offset: 0x4A928, size: 0x8, addend: 0x0, symName: __ZN5alloc3vec16in_place_collect18from_iter_in_place17h30ae40e58ddb0353E, symObjAddr: 0x40C, symBinAddr: 0x9194, symSize: 0x268 }
  - { offset: 0x4ADB6, size: 0x8, addend: 0x0, symName: __ZN5alloc3vec16in_place_collect18from_iter_in_place17h3588bffad0d13183E, symObjAddr: 0x674, symBinAddr: 0x93FC, symSize: 0x404 }
  - { offset: 0x4B3DB, size: 0x8, addend: 0x0, symName: __ZN5alloc3vec16in_place_collect18from_iter_in_place17h5afb946c1ac76160E, symObjAddr: 0xA78, symBinAddr: 0x9800, symSize: 0x40C }
  - { offset: 0x4B9CC, size: 0x8, addend: 0x0, symName: '__ZN5alloc3vec16in_place_collect24write_in_place_with_drop28_$u7b$$u7b$closure$u7d$$u7d$17h1b26c42f0568deb2E', symObjAddr: 0xE84, symBinAddr: 0x9C0C, symSize: 0x48 }
  - { offset: 0x4BA4D, size: 0x8, addend: 0x0, symName: '__ZN5alloc3vec16in_place_collect24write_in_place_with_drop28_$u7b$$u7b$closure$u7d$$u7d$17ha02761bf19392824E', symObjAddr: 0xECC, symBinAddr: 0x9C54, symSize: 0x60 }
  - { offset: 0x4BACF, size: 0x8, addend: 0x0, symName: '__ZN5alloc3vec16in_place_collect24write_in_place_with_drop28_$u7b$$u7b$closure$u7d$$u7d$17hb0a171b36b608bdeE', symObjAddr: 0xF2C, symBinAddr: 0x9CB4, symSize: 0x60 }
  - { offset: 0x4C8C1, size: 0x8, addend: 0x0, symName: __ZN4core4task4wake5Waker8from_raw17h6b66514bde7fdf74E, symObjAddr: 0x0, symBinAddr: 0x9D14, symSize: 0x1C }
  - { offset: 0x4DDD7, size: 0x8, addend: 0x0, symName: __ZN4core4task4wake5Waker8from_raw17h6b66514bde7fdf74E, symObjAddr: 0x0, symBinAddr: 0x9D14, symSize: 0x1C }
  - { offset: 0x4DEA9, size: 0x8, addend: 0x0, symName: __ZN4core4task4wake7Context10from_waker17hcc76d18c8245eb1fE, symObjAddr: 0x1C, symBinAddr: 0x9D30, symSize: 0x40 }
  - { offset: 0x4DEEC, size: 0x8, addend: 0x0, symName: __ZN4core4task4wake7Context5waker17h282e826f608539aaE, symObjAddr: 0x5C, symBinAddr: 0x9D70, symSize: 0x18 }
  - { offset: 0x4DF18, size: 0x8, addend: 0x0, symName: __ZN4pyo38callback7convert17hd0a2120c65df9b16E, symObjAddr: 0x74, symBinAddr: 0x9D88, symSize: 0x1C }
  - { offset: 0x4E6B0, size: 0x8, addend: 0x0, symName: __ZN8pyo3_ffi7cpython10listobject15PyList_SET_ITEM17h231b057ca2af70b0E, symObjAddr: 0x0, symBinAddr: 0x9DA4, symSize: 0x110 }
  - { offset: 0x4EC92, size: 0x8, addend: 0x0, symName: __ZN8pyo3_ffi7cpython10listobject15PyList_SET_ITEM17h231b057ca2af70b0E, symObjAddr: 0x0, symBinAddr: 0x9DA4, symSize: 0x110 }
  - { offset: 0x4FC54, size: 0x8, addend: 0x0, symName: '__ZN7dashmap6mapref8multiple21RefMulti$LT$K$C$V$GT$3key17h68e487f7c7490c73E', symObjAddr: 0x0, symBinAddr: 0x9EB4, symSize: 0x30 }
  - { offset: 0x5056A, size: 0x8, addend: 0x0, symName: '__ZN7dashmap6mapref8multiple21RefMulti$LT$K$C$V$GT$3key17h68e487f7c7490c73E', symObjAddr: 0x0, symBinAddr: 0x9EB4, symSize: 0x30 }
  - { offset: 0x5063C, size: 0x8, addend: 0x0, symName: '__ZN7dashmap6mapref8multiple21RefMulti$LT$K$C$V$GT$3key17h9e439ed6eadcd680E', symObjAddr: 0x30, symBinAddr: 0x9EE4, symSize: 0x30 }
  - { offset: 0x50670, size: 0x8, addend: 0x0, symName: '__ZN7dashmap6mapref8multiple21RefMulti$LT$K$C$V$GT$3new17h3c87796873bb267cE', symObjAddr: 0x60, symBinAddr: 0x9F14, symSize: 0x30 }
  - { offset: 0x506C0, size: 0x8, addend: 0x0, symName: '__ZN7dashmap6mapref8multiple21RefMulti$LT$K$C$V$GT$3new17haa3853e021cad83fE', symObjAddr: 0x90, symBinAddr: 0x9F44, symSize: 0x30 }
  - { offset: 0x5073B, size: 0x8, addend: 0x0, symName: '__ZN7dashmap6mapref8multiple21RefMulti$LT$K$C$V$GT$4pair17h577f6e0a3f4ab58cE', symObjAddr: 0xC0, symBinAddr: 0x9F74, symSize: 0xC8 }
  - { offset: 0x5079A, size: 0x8, addend: 0x0, symName: '__ZN7dashmap6mapref8multiple21RefMulti$LT$K$C$V$GT$4pair17h5b94f3b691cf66f6E', symObjAddr: 0x188, symBinAddr: 0xA03C, symSize: 0xC8 }
  - { offset: 0x507CE, size: 0x8, addend: 0x0, symName: '__ZN7dashmap6mapref8multiple21RefMulti$LT$K$C$V$GT$5value17h62f58dc6cceaa8a4E', symObjAddr: 0x250, symBinAddr: 0xA104, symSize: 0x30 }
  - { offset: 0x50820, size: 0x8, addend: 0x0, symName: '__ZN59_$LT$alloc..alloc..Global$u20$as$u20$core..clone..Clone$GT$5clone17h1fdbb8a504fedb63E', symObjAddr: 0x0, symBinAddr: 0xA134, symSize: 0x10 }
  - { offset: 0x516C0, size: 0x8, addend: 0x0, symName: '__ZN59_$LT$alloc..alloc..Global$u20$as$u20$core..clone..Clone$GT$5clone17h1fdbb8a504fedb63E', symObjAddr: 0x0, symBinAddr: 0xA134, symSize: 0x10 }
  - { offset: 0x51716, size: 0x8, addend: 0x0, symName: '__ZN63_$LT$alloc..alloc..Global$u20$as$u20$core..alloc..Allocator$GT$10deallocate17h140072313364cc03E', symObjAddr: 0x34C, symBinAddr: 0xA480, symSize: 0x80 }
  - { offset: 0x51836, size: 0x8, addend: 0x0, symName: '__ZN63_$LT$alloc..alloc..Global$u20$as$u20$core..alloc..Allocator$GT$6shrink17ha41a0d90377e7378E', symObjAddr: 0x3CC, symBinAddr: 0xA500, symSize: 0x4D0 }
  - { offset: 0x51F8C, size: 0x8, addend: 0x0, symName: __ZN5alloc5alloc15exchange_malloc17h11fc2e37191b3d0aE, symObjAddr: 0x10, symBinAddr: 0xA144, symSize: 0xAC }
  - { offset: 0x52023, size: 0x8, addend: 0x0, symName: __ZN5alloc5alloc5alloc17h2b7fca340702ee38E, symObjAddr: 0xBC, symBinAddr: 0xA1F0, symSize: 0x48 }
  - { offset: 0x520C1, size: 0x8, addend: 0x0, symName: __ZN5alloc5alloc7dealloc17hfd137370b47f6d13E, symObjAddr: 0x308, symBinAddr: 0xA43C, symSize: 0x44 }
  - { offset: 0x523D6, size: 0x8, addend: 0x0, symName: __ZN5alloc5alloc6Global10alloc_impl17ha7b888039ca26965E, symObjAddr: 0x104, symBinAddr: 0xA238, symSize: 0x204 }
  - { offset: 0x52A92, size: 0x8, addend: 0x0, symName: '__ZN8lock_api6rwlock19RwLock$LT$R$C$T$GT$25make_read_guard_unchecked17h1973a679f8a7bc8dE', symObjAddr: 0x0, symBinAddr: 0xA9D0, symSize: 0x14 }
  - { offset: 0x5305A, size: 0x8, addend: 0x0, symName: '__ZN90_$LT$lock_api..rwlock..RwLockReadGuard$LT$R$C$T$GT$$u20$as$u20$core..ops..deref..Deref$GT$5deref17h37003405469b8648E', symObjAddr: 0x300, symBinAddr: 0xACD0, symSize: 0x24 }
  - { offset: 0x5309A, size: 0x8, addend: 0x0, symName: '__ZN90_$LT$lock_api..rwlock..RwLockReadGuard$LT$R$C$T$GT$$u20$as$u20$core..ops..deref..Deref$GT$5deref17h82bebd6800b89b32E', symObjAddr: 0x324, symBinAddr: 0xACF4, symSize: 0x24 }
  - { offset: 0x530DA, size: 0x8, addend: 0x0, symName: '__ZN90_$LT$lock_api..rwlock..RwLockReadGuard$LT$R$C$T$GT$$u20$as$u20$core..ops..deref..Deref$GT$5deref17had9a9fd254cafaaaE', symObjAddr: 0x348, symBinAddr: 0xAD18, symSize: 0x24 }
  - { offset: 0x5311A, size: 0x8, addend: 0x0, symName: '__ZN90_$LT$lock_api..rwlock..RwLockReadGuard$LT$R$C$T$GT$$u20$as$u20$core..ops..deref..Deref$GT$5deref17hbd12028a2650f5e5E', symObjAddr: 0x36C, symBinAddr: 0xAD3C, symSize: 0x24 }
  - { offset: 0x53160, size: 0x8, addend: 0x0, symName: '__ZN91_$LT$lock_api..rwlock..RwLockWriteGuard$LT$R$C$T$GT$$u20$as$u20$core..ops..deref..Deref$GT$5deref17h06297d63e9c4f4b7E', symObjAddr: 0x390, symBinAddr: 0xAD60, symSize: 0x24 }
  - { offset: 0x531A0, size: 0x8, addend: 0x0, symName: '__ZN91_$LT$lock_api..rwlock..RwLockWriteGuard$LT$R$C$T$GT$$u20$as$u20$core..ops..deref..Deref$GT$5deref17h2d08383fd631bc45E', symObjAddr: 0x3B4, symBinAddr: 0xAD84, symSize: 0x24 }
  - { offset: 0x531E0, size: 0x8, addend: 0x0, symName: '__ZN91_$LT$lock_api..rwlock..RwLockWriteGuard$LT$R$C$T$GT$$u20$as$u20$core..ops..deref..Deref$GT$5deref17hafddac09524c8f13E', symObjAddr: 0x3D8, symBinAddr: 0xADA8, symSize: 0x24 }
  - { offset: 0x53220, size: 0x8, addend: 0x0, symName: '__ZN91_$LT$lock_api..rwlock..RwLockWriteGuard$LT$R$C$T$GT$$u20$as$u20$core..ops..deref..Deref$GT$5deref17hfe95d44213dff10dE', symObjAddr: 0x3FC, symBinAddr: 0xADCC, symSize: 0x24 }
  - { offset: 0x53266, size: 0x8, addend: 0x0, symName: '__ZN94_$LT$lock_api..rwlock..RwLockWriteGuard$LT$R$C$T$GT$$u20$as$u20$core..ops..deref..DerefMut$GT$9deref_mut17h2bde3e536e07ec45E', symObjAddr: 0x420, symBinAddr: 0xADF0, symSize: 0x24 }
  - { offset: 0x532A6, size: 0x8, addend: 0x0, symName: '__ZN94_$LT$lock_api..rwlock..RwLockWriteGuard$LT$R$C$T$GT$$u20$as$u20$core..ops..deref..DerefMut$GT$9deref_mut17h39e7c87e09a40c9eE', symObjAddr: 0x444, symBinAddr: 0xAE14, symSize: 0x24 }
  - { offset: 0x532E6, size: 0x8, addend: 0x0, symName: '__ZN94_$LT$lock_api..rwlock..RwLockWriteGuard$LT$R$C$T$GT$$u20$as$u20$core..ops..deref..DerefMut$GT$9deref_mut17h4205103f472b2c06E', symObjAddr: 0x468, symBinAddr: 0xAE38, symSize: 0x24 }
  - { offset: 0x53326, size: 0x8, addend: 0x0, symName: '__ZN94_$LT$lock_api..rwlock..RwLockWriteGuard$LT$R$C$T$GT$$u20$as$u20$core..ops..deref..DerefMut$GT$9deref_mut17h73e1a3a8b3220d00E', symObjAddr: 0x48C, symBinAddr: 0xAE5C, symSize: 0x24 }
  - { offset: 0x53B75, size: 0x8, addend: 0x0, symName: '__ZN8lock_api6rwlock19RwLock$LT$R$C$T$GT$25make_read_guard_unchecked17h1973a679f8a7bc8dE', symObjAddr: 0x0, symBinAddr: 0xA9D0, symSize: 0x14 }
  - { offset: 0x53C07, size: 0x8, addend: 0x0, symName: '__ZN8lock_api6rwlock19RwLock$LT$R$C$T$GT$25make_read_guard_unchecked17h3344a9187306e24aE', symObjAddr: 0x14, symBinAddr: 0xA9E4, symSize: 0x14 }
  - { offset: 0x53CB7, size: 0x8, addend: 0x0, symName: '__ZN8lock_api6rwlock19RwLock$LT$R$C$T$GT$25make_read_guard_unchecked17h7823a44f48027fafE', symObjAddr: 0x28, symBinAddr: 0xA9F8, symSize: 0x14 }
  - { offset: 0x53D49, size: 0x8, addend: 0x0, symName: '__ZN8lock_api6rwlock19RwLock$LT$R$C$T$GT$25make_read_guard_unchecked17hd5612dd329414871E', symObjAddr: 0x3C, symBinAddr: 0xAA0C, symSize: 0x14 }
  - { offset: 0x53DA9, size: 0x8, addend: 0x0, symName: '__ZN8lock_api6rwlock19RwLock$LT$R$C$T$GT$26make_write_guard_unchecked17h45811a2e2806729aE', symObjAddr: 0x50, symBinAddr: 0xAA20, symSize: 0x14 }
  - { offset: 0x53E09, size: 0x8, addend: 0x0, symName: '__ZN8lock_api6rwlock19RwLock$LT$R$C$T$GT$26make_write_guard_unchecked17h7d256823bdd054e2E', symObjAddr: 0x64, symBinAddr: 0xAA34, symSize: 0x14 }
  - { offset: 0x53E69, size: 0x8, addend: 0x0, symName: '__ZN8lock_api6rwlock19RwLock$LT$R$C$T$GT$26make_write_guard_unchecked17haa7eb7aaa666cf53E', symObjAddr: 0x78, symBinAddr: 0xAA48, symSize: 0x14 }
  - { offset: 0x53EC9, size: 0x8, addend: 0x0, symName: '__ZN8lock_api6rwlock19RwLock$LT$R$C$T$GT$26make_write_guard_unchecked17hffb7cb0125ad441fE', symObjAddr: 0x8C, symBinAddr: 0xAA5C, symSize: 0x14 }
  - { offset: 0x53F1A, size: 0x8, addend: 0x0, symName: '__ZN8lock_api6rwlock19RwLock$LT$R$C$T$GT$3new17h63b1d03902eba0f9E', symObjAddr: 0xA0, symBinAddr: 0xAA70, symSize: 0x38 }
  - { offset: 0x53F89, size: 0x8, addend: 0x0, symName: '__ZN8lock_api6rwlock19RwLock$LT$R$C$T$GT$3new17h919e31e19b26b897E', symObjAddr: 0xD8, symBinAddr: 0xAAA8, symSize: 0x38 }
  - { offset: 0x53FF8, size: 0x8, addend: 0x0, symName: '__ZN8lock_api6rwlock19RwLock$LT$R$C$T$GT$3new17hbbfe201d6cbb9661E', symObjAddr: 0x110, symBinAddr: 0xAAE0, symSize: 0x38 }
  - { offset: 0x54067, size: 0x8, addend: 0x0, symName: '__ZN8lock_api6rwlock19RwLock$LT$R$C$T$GT$3new17hd66b8294e9d698eeE', symObjAddr: 0x148, symBinAddr: 0xAB18, symSize: 0x38 }
  - { offset: 0x540EE, size: 0x8, addend: 0x0, symName: '__ZN8lock_api6rwlock19RwLock$LT$R$C$T$GT$4read17h00e2bcf4c0e1089dE', symObjAddr: 0x180, symBinAddr: 0xAB50, symSize: 0x30 }
  - { offset: 0x54123, size: 0x8, addend: 0x0, symName: '__ZN8lock_api6rwlock19RwLock$LT$R$C$T$GT$4read17h141a61c4c3f3be92E', symObjAddr: 0x1B0, symBinAddr: 0xAB80, symSize: 0x30 }
  - { offset: 0x54158, size: 0x8, addend: 0x0, symName: '__ZN8lock_api6rwlock19RwLock$LT$R$C$T$GT$4read17h549c8aa0e463da9cE', symObjAddr: 0x1E0, symBinAddr: 0xABB0, symSize: 0x30 }
  - { offset: 0x5418D, size: 0x8, addend: 0x0, symName: '__ZN8lock_api6rwlock19RwLock$LT$R$C$T$GT$4read17haaebea8ebe16840bE', symObjAddr: 0x210, symBinAddr: 0xABE0, symSize: 0x30 }
  - { offset: 0x541C2, size: 0x8, addend: 0x0, symName: '__ZN8lock_api6rwlock19RwLock$LT$R$C$T$GT$5write17h0e9bb955a6daea02E', symObjAddr: 0x240, symBinAddr: 0xAC10, symSize: 0x30 }
  - { offset: 0x541F7, size: 0x8, addend: 0x0, symName: '__ZN8lock_api6rwlock19RwLock$LT$R$C$T$GT$5write17h1dbd3865dbe60d42E', symObjAddr: 0x270, symBinAddr: 0xAC40, symSize: 0x30 }
  - { offset: 0x5422C, size: 0x8, addend: 0x0, symName: '__ZN8lock_api6rwlock19RwLock$LT$R$C$T$GT$5write17h93dc0d475a972a6cE', symObjAddr: 0x2A0, symBinAddr: 0xAC70, symSize: 0x30 }
  - { offset: 0x54261, size: 0x8, addend: 0x0, symName: '__ZN8lock_api6rwlock19RwLock$LT$R$C$T$GT$5write17h9bcecd44cbf73808E', symObjAddr: 0x2D0, symBinAddr: 0xACA0, symSize: 0x30 }
  - { offset: 0x54350, size: 0x8, addend: 0x0, symName: '__ZN102_$LT$core..iter..adapters..filter..Filter$LT$I$C$P$GT$$u20$as$u20$core..iter..adapters..SourceIter$GT$8as_inner17h85effe667f1740a0E', symObjAddr: 0x0, symBinAddr: 0xAE80, symSize: 0x24 }
  - { offset: 0x54376, size: 0x8, addend: 0x0, symName: '__ZN102_$LT$core..iter..adapters..filter..Filter$LT$I$C$P$GT$$u20$as$u20$core..iter..adapters..SourceIter$GT$8as_inner17h85effe667f1740a0E', symObjAddr: 0x0, symBinAddr: 0xAE80, symSize: 0x24 }
  - { offset: 0x543BA, size: 0x8, addend: 0x0, symName: '__ZN108_$LT$core..iter..adapters..filter..Filter$LT$I$C$P$GT$$u20$as$u20$core..iter..traits..iterator..Iterator$GT$8try_fold17he470e1ad26215b67E', symObjAddr: 0x24, symBinAddr: 0xAEA4, symSize: 0x4C }
  - { offset: 0x54435, size: 0x8, addend: 0x0, symName: '__ZN4core4iter8adapters6filter15filter_try_fold28_$u7b$$u7b$closure$u7d$$u7d$17h8f90517fcbe04fceE', symObjAddr: 0xE4, symBinAddr: 0xAF64, symSize: 0x184 }
  - { offset: 0x54505, size: 0x8, addend: 0x0, symName: __ZN4core4iter6traits8iterator8Iterator7collect17h308fb9016e4a7ed8E, symObjAddr: 0x70, symBinAddr: 0xAEF0, symSize: 0x74 }
  - { offset: 0x545A7, size: 0x8, addend: 0x0, symName: '__ZN63_$LT$I$u20$as$u20$core..iter..traits..collect..IntoIterator$GT$9into_iter17h2bc2b4cd29bd4637E', symObjAddr: 0x268, symBinAddr: 0xB0E8, symSize: 0x30 }
  - { offset: 0x54D9A, size: 0x8, addend: 0x0, symName: '__ZN83_$LT$I$u20$as$u20$alloc..vec..in_place_collect..SpecInPlaceCollect$LT$T$C$I$GT$$GT$16collect_in_place17hd8bda2571a9ac90cE', symObjAddr: 0x298, symBinAddr: 0xB118, symSize: 0xD0 }
  - { offset: 0x551D7, size: 0x8, addend: 0x0, symName: '__ZN3std2io5impls57_$LT$impl$u20$std..io..Read$u20$for$u20$$RF$mut$u20$R$GT$8read_buf17h780c3de5ec158f94E', symObjAddr: 0x0, symBinAddr: 0xB1E8, symSize: 0x34 }
  - { offset: 0x5544A, size: 0x8, addend: 0x0, symName: '__ZN3std2io5impls57_$LT$impl$u20$std..io..Read$u20$for$u20$$RF$mut$u20$R$GT$8read_buf17h780c3de5ec158f94E', symObjAddr: 0x0, symBinAddr: 0xB1E8, symSize: 0x34 }
  - { offset: 0x55565, size: 0x8, addend: 0x0, symName: '__ZN66_$LT$std..io..cursor..Cursor$LT$T$GT$$u20$as$u20$std..io..Read$GT$8read_buf17ha4883c6224df929dE', symObjAddr: 0x2AC, symBinAddr: 0xB494, symSize: 0xF8 }
  - { offset: 0x556A5, size: 0x8, addend: 0x0, symName: '__ZN66_$LT$std..io..cursor..Cursor$LT$T$GT$$u20$as$u20$std..io..Read$GT$8read_buf17hd42077cc6e300a55E', symObjAddr: 0x3A4, symBinAddr: 0xB58C, symSize: 0xF8 }
  - { offset: 0x557F1, size: 0x8, addend: 0x0, symName: '__ZN55_$LT$T$u20$as$u20$std..io..copy..BufferedReaderSpec$GT$11buffer_size17h55707f1b4ee6bd29E', symObjAddr: 0x228, symBinAddr: 0xB410, symSize: 0x14 }
  - { offset: 0x55826, size: 0x8, addend: 0x0, symName: '__ZN55_$LT$T$u20$as$u20$std..io..copy..BufferedReaderSpec$GT$7copy_to17h0ae651c69bfdc7ffE', symObjAddr: 0x23C, symBinAddr: 0xB424, symSize: 0x70 }
  - { offset: 0x562D4, size: 0x8, addend: 0x0, symName: '__ZN3std2io6cursor15Cursor$LT$T$GT$3new17h1c1412f90cbc8fabE', symObjAddr: 0x34, symBinAddr: 0xB21C, symSize: 0x18 }
  - { offset: 0x56326, size: 0x8, addend: 0x0, symName: '__ZN3std2io6cursor15Cursor$LT$T$GT$3new17ha2a643059f02dd13E', symObjAddr: 0x4C, symBinAddr: 0xB234, symSize: 0x24 }
  - { offset: 0x564E4, size: 0x8, addend: 0x0, symName: '__ZN3std2io6cursor15Cursor$LT$T$GT$5split17ha4c5f23385f4a434E', symObjAddr: 0x70, symBinAddr: 0xB258, symSize: 0xDC }
  - { offset: 0x565AA, size: 0x8, addend: 0x0, symName: '__ZN3std2io6cursor15Cursor$LT$T$GT$5split17hb9bb089ee29cfdebE', symObjAddr: 0x14C, symBinAddr: 0xB334, symSize: 0xDC }
  - { offset: 0x5696D, size: 0x8, addend: 0x0, symName: '__ZN5tokio4util11linked_list81LinkedList$LT$L$C$$LT$L$u20$as$u20$tokio..util..linked_list..Link$GT$..Target$GT$10push_front17ha66127226d2ed8a8E', symObjAddr: 0x0, symBinAddr: 0xB684, symSize: 0x17C }
  - { offset: 0x5B340, size: 0x8, addend: 0x0, symName: '__ZN5tokio4util11linked_list81LinkedList$LT$L$C$$LT$L$u20$as$u20$tokio..util..linked_list..Link$GT$..Target$GT$10push_front17ha66127226d2ed8a8E', symObjAddr: 0x0, symBinAddr: 0xB684, symSize: 0x17C }
  - { offset: 0x5B496, size: 0x8, addend: 0x0, symName: '__ZN5tokio4util11linked_list81LinkedList$LT$L$C$$LT$L$u20$as$u20$tokio..util..linked_list..Link$GT$..Target$GT$10push_front17hfc6ff777211fa1f0E', symObjAddr: 0x17C, symBinAddr: 0xB800, symSize: 0x17C }
  - { offset: 0x5B5D6, size: 0x8, addend: 0x0, symName: '__ZN119_$LT$pyo3..instance..Bound$LT$pyo3..types..typeobject..PyType$GT$$u20$as$u20$pyo3..types..typeobject..PyTypeMethods$GT$11as_type_ptr17h76c0f1b29052bda7E', symObjAddr: 0x0, symBinAddr: 0xB97C, symSize: 0x24 }
  - { offset: 0x5CAF5, size: 0x8, addend: 0x0, symName: '__ZN119_$LT$pyo3..instance..Bound$LT$pyo3..types..typeobject..PyType$GT$$u20$as$u20$pyo3..types..typeobject..PyTypeMethods$GT$11as_type_ptr17h76c0f1b29052bda7E', symObjAddr: 0x0, symBinAddr: 0xB97C, symSize: 0x24 }
  - { offset: 0x5CB42, size: 0x8, addend: 0x0, symName: '__ZN123_$LT$pyo3..instance..Bound$LT$pyo3..types..sequence..PySequence$GT$$u20$as$u20$pyo3..types..sequence..PySequenceMethods$GT$3len17hbf144e0621d2f177E', symObjAddr: 0x24, symBinAddr: 0xB9A0, symSize: 0xAC }
  - { offset: 0x5CBCD, size: 0x8, addend: 0x0, symName: '__ZN4pyo35types8iterator131_$LT$impl$u20$core..iter..traits..iterator..Iterator$u20$for$u20$pyo3..instance..Bound$LT$pyo3..types..iterator..PyIterator$GT$$GT$4next17hc390bcf27cf7029eE', symObjAddr: 0xD0, symBinAddr: 0xBA4C, symSize: 0x30 }
  - { offset: 0x5D45E, size: 0x8, addend: 0x0, symName: '__ZN4pyo38instance36Bound$LT$pyo3..types..any..PyAny$GT$14from_owned_ptr17hb566d4dc2a4194d3E', symObjAddr: 0x100, symBinAddr: 0xBA7C, symSize: 0x2C }
  - { offset: 0x5D4A6, size: 0x8, addend: 0x0, symName: '__ZN4pyo38instance39Borrowed$LT$pyo3..types..any..PyAny$GT$15from_ptr_or_opt17h45bc2f7e620b464aE', symObjAddr: 0x12C, symBinAddr: 0xBAA8, symSize: 0x2C }
  - { offset: 0x5D4E4, size: 0x8, addend: 0x0, symName: '__ZN4pyo38instance39Borrowed$LT$pyo3..types..any..PyAny$GT$18from_ptr_unchecked17hb7d7e81416a420caE', symObjAddr: 0x158, symBinAddr: 0xBAD4, symSize: 0x2C }
  - { offset: 0x5D522, size: 0x8, addend: 0x0, symName: '__ZN4pyo38instance39Borrowed$LT$pyo3..types..any..PyAny$GT$8from_ptr17h8384deeff63506d6E', symObjAddr: 0x184, symBinAddr: 0xBB00, symSize: 0x34 }
  - { offset: 0x5D5ED, size: 0x8, addend: 0x0, symName: __ZN4core4iter6traits8iterator8Iterator3zip17h256a5bf3f51cdfb8E, symObjAddr: 0x0, symBinAddr: 0xBB34, symSize: 0xB4 }
  - { offset: 0x5DEDA, size: 0x8, addend: 0x0, symName: __ZN4core4iter6traits8iterator8Iterator3zip17h256a5bf3f51cdfb8E, symObjAddr: 0x0, symBinAddr: 0xBB34, symSize: 0xB4 }
  - { offset: 0x5DF50, size: 0x8, addend: 0x0, symName: __ZN4core4iter6traits8iterator8Iterator4take17h4dcfd3f2852c3005E, symObjAddr: 0xB4, symBinAddr: 0xBBE8, symSize: 0x24 }
  - { offset: 0x5EA03, size: 0x8, addend: 0x0, symName: '__ZN4pyo35types5tuple127_$LT$impl$u20$pyo3..conversion..IntoPy$LT$pyo3..instance..Py$LT$pyo3..types..any..PyAny$GT$$GT$$u20$for$u20$$LP$T0$C$T1$RP$$GT$7into_py17h109068484475c2b7E', symObjAddr: 0xD8, symBinAddr: 0xBC0C, symSize: 0xDC }
  - { offset: 0x5F118, size: 0x8, addend: 0x0, symName: '__ZN117_$LT$serde..private..de..missing_field..MissingFieldDeserializer$LT$E$GT$$u20$as$u20$serde_core..de..Deserializer$GT$15deserialize_any17h2dcc985fb2ff9407E', symObjAddr: 0x0, symBinAddr: 0xBCE8, symSize: 0x60 }
  - { offset: 0x5F3A3, size: 0x8, addend: 0x0, symName: '__ZN117_$LT$serde..private..de..missing_field..MissingFieldDeserializer$LT$E$GT$$u20$as$u20$serde_core..de..Deserializer$GT$15deserialize_any17h2dcc985fb2ff9407E', symObjAddr: 0x0, symBinAddr: 0xBCE8, symSize: 0x60 }
  - { offset: 0x5F3EF, size: 0x8, addend: 0x0, symName: '__ZN117_$LT$serde..private..de..missing_field..MissingFieldDeserializer$LT$E$GT$$u20$as$u20$serde_core..de..Deserializer$GT$15deserialize_any17h93efd97cbb7b1150E', symObjAddr: 0x60, symBinAddr: 0xBD48, symSize: 0x60 }
  - { offset: 0x5F43B, size: 0x8, addend: 0x0, symName: '__ZN117_$LT$serde..private..de..missing_field..MissingFieldDeserializer$LT$E$GT$$u20$as$u20$serde_core..de..Deserializer$GT$15deserialize_any17ha665c78945afe364E', symObjAddr: 0xC0, symBinAddr: 0xBDA8, symSize: 0x60 }
  - { offset: 0x5F487, size: 0x8, addend: 0x0, symName: '__ZN117_$LT$serde..private..de..missing_field..MissingFieldDeserializer$LT$E$GT$$u20$as$u20$serde_core..de..Deserializer$GT$15deserialize_any17habe57231f3d8745fE', symObjAddr: 0x120, symBinAddr: 0xBE08, symSize: 0x60 }
  - { offset: 0x5F4D3, size: 0x8, addend: 0x0, symName: '__ZN117_$LT$serde..private..de..missing_field..MissingFieldDeserializer$LT$E$GT$$u20$as$u20$serde_core..de..Deserializer$GT$15deserialize_any17hd73a6014fd6d68b0E', symObjAddr: 0x180, symBinAddr: 0xBE68, symSize: 0x60 }
  - { offset: 0x5F51F, size: 0x8, addend: 0x0, symName: '__ZN117_$LT$serde..private..de..missing_field..MissingFieldDeserializer$LT$E$GT$$u20$as$u20$serde_core..de..Deserializer$GT$15deserialize_u3217h72995774fadfb0efE', symObjAddr: 0x1E0, symBinAddr: 0xBEC8, symSize: 0x28 }
  - { offset: 0x5F56B, size: 0x8, addend: 0x0, symName: '__ZN117_$LT$serde..private..de..missing_field..MissingFieldDeserializer$LT$E$GT$$u20$as$u20$serde_core..de..Deserializer$GT$15deserialize_u6417h8feb8036583e197dE', symObjAddr: 0x208, symBinAddr: 0xBEF0, symSize: 0x28 }
  - { offset: 0x5F5B7, size: 0x8, addend: 0x0, symName: '__ZN117_$LT$serde..private..de..missing_field..MissingFieldDeserializer$LT$E$GT$$u20$as$u20$serde_core..de..Deserializer$GT$15deserialize_u6417hba320f401f86b93fE', symObjAddr: 0x230, symBinAddr: 0xBF18, symSize: 0x28 }
  - { offset: 0x5F603, size: 0x8, addend: 0x0, symName: '__ZN117_$LT$serde..private..de..missing_field..MissingFieldDeserializer$LT$E$GT$$u20$as$u20$serde_core..de..Deserializer$GT$16deserialize_bool17hf16fa97886719a92E', symObjAddr: 0x258, symBinAddr: 0xBF40, symSize: 0x28 }
  - { offset: 0x5F64F, size: 0x8, addend: 0x0, symName: '__ZN117_$LT$serde..private..de..missing_field..MissingFieldDeserializer$LT$E$GT$$u20$as$u20$serde_core..de..Deserializer$GT$18deserialize_struct17h63a0b5a0af2340f8E', symObjAddr: 0x280, symBinAddr: 0xBF68, symSize: 0x38 }
  - { offset: 0x5F6E3, size: 0x8, addend: 0x0, symName: __ZN5serde7private2de13missing_field17h53e73cc8ea364292E, symObjAddr: 0x2B8, symBinAddr: 0xBFA0, symSize: 0x34 }
  - { offset: 0x5F73E, size: 0x8, addend: 0x0, symName: __ZN5serde7private2de13missing_field17h5fd08295feefd836E, symObjAddr: 0x2EC, symBinAddr: 0xBFD4, symSize: 0x34 }
  - { offset: 0x5F799, size: 0x8, addend: 0x0, symName: __ZN5serde7private2de13missing_field17h7eefbb900532a87aE, symObjAddr: 0x320, symBinAddr: 0xC008, symSize: 0x34 }
  - { offset: 0x5F7F4, size: 0x8, addend: 0x0, symName: __ZN5serde7private2de13missing_field17hc8923edd1852bf95E, symObjAddr: 0x354, symBinAddr: 0xC03C, symSize: 0x34 }
  - { offset: 0x5F84F, size: 0x8, addend: 0x0, symName: __ZN5serde7private2de13missing_field17hfc93db0aaed16e26E, symObjAddr: 0x388, symBinAddr: 0xC070, symSize: 0x34 }
  - { offset: 0x60061, size: 0x8, addend: 0x0, symName: '__ZN4_sys8bindings10storage_py204_$LT$impl$u20$pyo3..impl_..pyclass..PyMethods$LT$_sys..bindings..storage_py..PySnapshotMeta$GT$$u20$for$u20$pyo3..impl_..pyclass..PyClassImplCollector$LT$_sys..bindings..storage_py..PySnapshotMeta$GT$$GT$10py_methods17h37c84f5898ef2bdfE', symObjAddr: 0x0, symBinAddr: 0xC0A4, symSize: 0x14 }
  - { offset: 0x64984, size: 0x8, addend: 0x0, symName: '__ZN4_sys8bindings10storage_py204_$LT$impl$u20$pyo3..impl_..pyclass..PyMethods$LT$_sys..bindings..storage_py..PySnapshotMeta$GT$$u20$for$u20$pyo3..impl_..pyclass..PyClassImplCollector$LT$_sys..bindings..storage_py..PySnapshotMeta$GT$$GT$10py_methods17h37c84f5898ef2bdfE', symObjAddr: 0x0, symBinAddr: 0xC0A4, symSize: 0x14 }
  - { offset: 0x649C1, size: 0x8, addend: 0x0, symName: '__ZN4_sys8bindings10storage_py206_$LT$impl$u20$pyo3..impl_..pyclass..PyMethods$LT$_sys..bindings..storage_py..PySnapshotStore$GT$$u20$for$u20$pyo3..impl_..pyclass..PyClassImplCollector$LT$_sys..bindings..storage_py..PySnapshotStore$GT$$GT$10py_methods17h833b8d00c6abf905E', symObjAddr: 0x14, symBinAddr: 0xC0B8, symSize: 0x14 }
  - { offset: 0x64A0C, size: 0x8, addend: 0x0, symName: '__ZN4_sys8bindings10storage_py206_$LT$impl$u20$pyo3..impl_..pyclass..PyMethods$LT$_sys..bindings..storage_py..PySnapshotStore$GT$$u20$for$u20$pyo3..impl_..pyclass..PyClassImplCollector$LT$_sys..bindings..storage_py..PySnapshotStore$GT$$GT$10py_methods5ITEMS10trampoline220_$LT$impl$u20$pyo3..impl_..pyclass..PyClassNewTextSignature$LT$_sys..bindings..storage_py..PySnapshotStore$GT$$u20$for$u20$pyo3..impl_..pyclass..PyClassImplCollector$LT$_sys..bindings..storage_py..PySnapshotStore$GT$$GT$18new_text_signature17h18f84e72bc15c5ceE', symObjAddr: 0x28, symBinAddr: 0xC0CC, symSize: 0x28 }
  - { offset: 0x64AC5, size: 0x8, addend: 0x0, symName: '__ZN4_sys8bindings8cache_py210_$LT$impl$u20$pyo3..impl_..pyclass..PyMethods$LT$_sys..bindings..cache_py..PyMemoryTierManager$GT$$u20$for$u20$pyo3..impl_..pyclass..PyClassImplCollector$LT$_sys..bindings..cache_py..PyMemoryTierManager$GT$$GT$10py_methods17h26fb7872a3e38793E', symObjAddr: 0x50, symBinAddr: 0xC0F4, symSize: 0x14 }
  - { offset: 0x64B10, size: 0x8, addend: 0x0, symName: '__ZN4_sys8bindings8cache_py210_$LT$impl$u20$pyo3..impl_..pyclass..PyMethods$LT$_sys..bindings..cache_py..PyMemoryTierManager$GT$$u20$for$u20$pyo3..impl_..pyclass..PyClassImplCollector$LT$_sys..bindings..cache_py..PyMemoryTierManager$GT$$GT$10py_methods5ITEMS10trampoline224_$LT$impl$u20$pyo3..impl_..pyclass..PyClassNewTextSignature$LT$_sys..bindings..cache_py..PyMemoryTierManager$GT$$u20$for$u20$pyo3..impl_..pyclass..PyClassImplCollector$LT$_sys..bindings..cache_py..PyMemoryTierManager$GT$$GT$18new_text_signature17h2dbb22e50a08c39dE', symObjAddr: 0x64, symBinAddr: 0xC108, symSize: 0x28 }
  - { offset: 0x64B78, size: 0x8, addend: 0x0, symName: '__ZN4_sys8bindings11prefetch_py210_$LT$impl$u20$pyo3..impl_..pyclass..PyMethods$LT$_sys..bindings..prefetch_py..PyPrefetchEngine$GT$$u20$for$u20$pyo3..impl_..pyclass..PyClassImplCollector$LT$_sys..bindings..prefetch_py..PyPrefetchEngine$GT$$GT$10py_methods17hb6f2857f8dc91a30E', symObjAddr: 0x8C, symBinAddr: 0xC130, symSize: 0x14 }
  - { offset: 0x64BC3, size: 0x8, addend: 0x0, symName: '__ZN4_sys8bindings11prefetch_py210_$LT$impl$u20$pyo3..impl_..pyclass..PyMethods$LT$_sys..bindings..prefetch_py..PyPrefetchEngine$GT$$u20$for$u20$pyo3..impl_..pyclass..PyClassImplCollector$LT$_sys..bindings..prefetch_py..PyPrefetchEngine$GT$$GT$10py_methods5ITEMS10trampoline224_$LT$impl$u20$pyo3..impl_..pyclass..PyClassNewTextSignature$LT$_sys..bindings..prefetch_py..PyPrefetchEngine$GT$$u20$for$u20$pyo3..impl_..pyclass..PyClassImplCollector$LT$_sys..bindings..prefetch_py..PyPrefetchEngine$GT$$GT$18new_text_signature17h5d2c4dd480c9cbacE', symObjAddr: 0xA0, symBinAddr: 0xC144, symSize: 0x28 }
  - { offset: 0x6808E, size: 0x8, addend: 0x0, symName: __ZN4pyo311type_object10PyTypeInfo16is_type_of_bound17hf79981c178b32acfE, symObjAddr: 0x0, symBinAddr: 0xC16C, symSize: 0x50 }
  - { offset: 0x6888D, size: 0x8, addend: 0x0, symName: '__ZN50_$LT$T$u20$as$u20$core..convert..Into$LT$U$GT$$GT$4into17hc706e1fdba1a9420E', symObjAddr: 0xC4, symBinAddr: 0xC230, symSize: 0x14 }
  - { offset: 0x6D204, size: 0x8, addend: 0x0, symName: __ZN4pyo311type_object10PyTypeInfo16is_type_of_bound17hf79981c178b32acfE, symObjAddr: 0x0, symBinAddr: 0xC16C, symSize: 0x50 }
  - { offset: 0x6D23F, size: 0x8, addend: 0x0, symName: '__ZN52_$LT$T$u20$as$u20$pyo3..type_object..PyTypeCheck$GT$10type_check17h401cda7f605b3003E', symObjAddr: 0xD8, symBinAddr: 0xC244, symSize: 0x24 }
  - { offset: 0x6D280, size: 0x8, addend: 0x0, symName: '__ZN4pyo312pyclass_init123_$LT$impl$u20$pyo3..callback..IntoPyCallbackOutput$LT$pyo3..pyclass_init..PyClassInitializer$LT$T$GT$$GT$$u20$for$u20$U$GT$7convert17h1dbd55b89d863ba0E', symObjAddr: 0x50, symBinAddr: 0xC1BC, symSize: 0x44 }
  - { offset: 0x6D3A2, size: 0x8, addend: 0x0, symName: __ZN4pyo35impl_7pyclass11PyClassImpl11dict_offset17hc22f24ae782511b8E, symObjAddr: 0x94, symBinAddr: 0xC200, symSize: 0x18 }
  - { offset: 0x6D3C9, size: 0x8, addend: 0x0, symName: __ZN4pyo35impl_7pyclass11PyClassImpl15weaklist_offset17h3707436ac5a13122E, symObjAddr: 0xAC, symBinAddr: 0xC218, symSize: 0x18 }
  - { offset: 0x6D626, size: 0x8, addend: 0x0, symName: __ZN4_sys8bindings8cache_py9to_py_err17h08e1d373551aa70fE, symObjAddr: 0xFC, symBinAddr: 0xC268, symSize: 0x74 }
  - { offset: 0x6D65B, size: 0x8, addend: 0x0, symName: __ZN4_sys8bindings8cache_py9to_py_err17h68063bb7b189b130E, symObjAddr: 0x170, symBinAddr: 0xC2DC, symSize: 0x6C }
  - { offset: 0x6D69B, size: 0x8, addend: 0x0, symName: '__ZN99_$LT$_sys..bindings..cache_py..PyMemoryTierManager$u20$as$u20$pyo3..impl_..pyclass..PyClassImpl$GT$3doc28_$u7b$$u7b$closure$u7d$$u7d$17he81af18d026a14b7E', symObjAddr: 0x1DC, symBinAddr: 0xC348, symSize: 0x54 }
  - { offset: 0x6D6F3, size: 0x8, addend: 0x0, symName: '__ZN4_sys8bindings8cache_py19PyMemoryTierManager20__pymethod___new____28_$u7b$$u7b$closure$u7d$$u7d$17h69f4315e4a93e040E', symObjAddr: 0x230, symBinAddr: 0xC39C, symSize: 0x18 }
  - { offset: 0x6D71B, size: 0x8, addend: 0x0, symName: '__ZN4_sys8bindings8cache_py19PyMemoryTierManager20__pymethod___new____28_$u7b$$u7b$closure$u7d$$u7d$17h199d7222a6778a1fE', symObjAddr: 0x248, symBinAddr: 0xC3B4, symSize: 0x18 }
  - { offset: 0x6D743, size: 0x8, addend: 0x0, symName: '__ZN4_sys8bindings8cache_py19PyMemoryTierManager20__pymethod___new____28_$u7b$$u7b$closure$u7d$$u7d$17h6e6b5701526e9f38E', symObjAddr: 0x260, symBinAddr: 0xC3CC, symSize: 0x18 }
  - { offset: 0x6D76B, size: 0x8, addend: 0x0, symName: '__ZN4_sys8bindings8cache_py19PyMemoryTierManager20__pymethod___new____28_$u7b$$u7b$closure$u7d$$u7d$17h2f37ce338da71367E', symObjAddr: 0x278, symBinAddr: 0xC3E4, symSize: 0x18 }
  - { offset: 0x6FDDC, size: 0x8, addend: 0x0, symName: __ZN3std2io5Write9write_all17hc02bcdac92bd1a92E, symObjAddr: 0x0, symBinAddr: 0xC3FC, symSize: 0x270 }
  - { offset: 0x70169, size: 0x8, addend: 0x0, symName: __ZN3std2io5Write9write_all17hc02bcdac92bd1a92E, symObjAddr: 0x0, symBinAddr: 0xC3FC, symSize: 0x270 }
  - { offset: 0x7030C, size: 0x8, addend: 0x0, symName: '__ZN55_$LT$W$u20$as$u20$std..io..copy..BufferedWriterSpec$GT$11buffer_size17h2979bccc7482d0b7E', symObjAddr: 0x610, symBinAddr: 0xCA0C, symSize: 0x14 }
  - { offset: 0x70341, size: 0x8, addend: 0x0, symName: '__ZN55_$LT$W$u20$as$u20$std..io..copy..BufferedWriterSpec$GT$9copy_from17hf1851e2a07c2ffa3E', symObjAddr: 0x624, symBinAddr: 0xCA20, symSize: 0x38 }
  - { offset: 0x70B57, size: 0x8, addend: 0x0, symName: '__ZN4zstd6stream5write16Encoder$LT$W$GT$6finish28_$u7b$$u7b$closure$u7d$$u7d$17hff428669e800456cE', symObjAddr: 0x5E4, symBinAddr: 0xC9E0, symSize: 0x2C }
  - { offset: 0x70BA4, size: 0x8, addend: 0x0, symName: '__ZN72_$LT$zstd..stream..write..Encoder$LT$W$GT$$u20$as$u20$std..io..Write$GT$5write17h6ceeb927b6200c25E', symObjAddr: 0x65C, symBinAddr: 0xCA58, symSize: 0x30 }
  - { offset: 0x70E45, size: 0x8, addend: 0x0, symName: '__ZN4zstd6stream5write16Encoder$LT$W$GT$10try_finish17h9f77aee437d0e851E', symObjAddr: 0x270, symBinAddr: 0xC66C, symSize: 0x140 }
  - { offset: 0x70E90, size: 0x8, addend: 0x0, symName: '__ZN4zstd6stream5write16Encoder$LT$W$GT$11with_writer17h29a7fa4ef692c2cfE', symObjAddr: 0x3B0, symBinAddr: 0xC7AC, symSize: 0x30 }
  - { offset: 0x70EBC, size: 0x8, addend: 0x0, symName: '__ZN4zstd6stream5write16Encoder$LT$W$GT$12with_encoder17h8045642a28935ac8E', symObjAddr: 0x3E0, symBinAddr: 0xC7DC, symSize: 0x48 }
  - { offset: 0x70F12, size: 0x8, addend: 0x0, symName: '__ZN4zstd6stream5write16Encoder$LT$W$GT$15with_dictionary17h18ea2358c0cb8592E', symObjAddr: 0x428, symBinAddr: 0xC824, symSize: 0x15C }
  - { offset: 0x70FA9, size: 0x8, addend: 0x0, symName: '__ZN4zstd6stream5write16Encoder$LT$W$GT$3new17hffc3736a0e88941fE', symObjAddr: 0x584, symBinAddr: 0xC980, symSize: 0x34 }
  - { offset: 0x70FE2, size: 0x8, addend: 0x0, symName: '__ZN4zstd6stream5write16Encoder$LT$W$GT$6finish17h20814c003087761eE', symObjAddr: 0x5B8, symBinAddr: 0xC9B4, symSize: 0x2C }
  - { offset: 0x71061, size: 0x8, addend: 0x0, symName: __ZN4pyo35impl_5panic9PanicTrap3new17h8fa9edb7294a7854E, symObjAddr: 0x0, symBinAddr: 0xCA88, symSize: 0x18 }
  - { offset: 0x72302, size: 0x8, addend: 0x0, symName: __ZN4pyo35impl_5panic9PanicTrap3new17h8fa9edb7294a7854E, symObjAddr: 0x0, symBinAddr: 0xCA88, symSize: 0x18 }
  - { offset: 0x72324, size: 0x8, addend: 0x0, symName: __ZN4pyo35impl_5panic9PanicTrap6disarm17hda24fc960f16a4cdE, symObjAddr: 0x18, symBinAddr: 0xCAA0, symSize: 0x28 }
  - { offset: 0x7237E, size: 0x8, addend: 0x0, symName: __ZN4pyo36marker6Python19assume_gil_acquired17h5c4b4f878555b2d9E, symObjAddr: 0x40, symBinAddr: 0xCAC8, symSize: 0x4 }
  - { offset: 0x727E8, size: 0x8, addend: 0x0, symName: __ZN4pyo36marker6Python4None17hd9c95bf3e9d32790E, symObjAddr: 0x44, symBinAddr: 0xCACC, symSize: 0x20 }
  - { offset: 0x72835, size: 0x8, addend: 0x0, symName: '__ZN57_$LT$T$u20$as$u20$pyo3..conversion..FromPyObjectBound$GT$20from_py_object_bound17h70fa67bb2f9dc385E', symObjAddr: 0x0, symBinAddr: 0xCAEC, symSize: 0x34 }
  - { offset: 0x73B17, size: 0x8, addend: 0x0, symName: '__ZN57_$LT$T$u20$as$u20$pyo3..conversion..FromPyObjectBound$GT$20from_py_object_bound17h70fa67bb2f9dc385E', symObjAddr: 0x0, symBinAddr: 0xCAEC, symSize: 0x34 }
  - { offset: 0x73B4E, size: 0x8, addend: 0x0, symName: '__ZN57_$LT$T$u20$as$u20$pyo3..conversion..FromPyObjectBound$GT$20from_py_object_bound17hd868616bbfde0de2E', symObjAddr: 0x34, symBinAddr: 0xCB20, symSize: 0x34 }
  - { offset: 0x7428C, size: 0x8, addend: 0x0, symName: '__ZN100_$LT$pyo3..pycell..impl_..MutableClass$u20$as$u20$pyo3..pycell..impl_..GetBorrowChecker$LT$T$GT$$GT$14borrow_checker17hbb56062b08c303fdE', symObjAddr: 0x0, symBinAddr: 0xCB54, symSize: 0x14 }
  - { offset: 0x78A84, size: 0x8, addend: 0x0, symName: '__ZN100_$LT$pyo3..pycell..impl_..MutableClass$u20$as$u20$pyo3..pycell..impl_..GetBorrowChecker$LT$T$GT$$GT$14borrow_checker17hbb56062b08c303fdE', symObjAddr: 0x0, symBinAddr: 0xCB54, symSize: 0x14 }
  - { offset: 0x78AB9, size: 0x8, addend: 0x0, symName: '__ZN100_$LT$pyo3..pycell..impl_..MutableClass$u20$as$u20$pyo3..pycell..impl_..GetBorrowChecker$LT$T$GT$$GT$14borrow_checker17heb741be70424d74aE', symObjAddr: 0x14, symBinAddr: 0xCB68, symSize: 0x14 }
  - { offset: 0x78AEE, size: 0x8, addend: 0x0, symName: '__ZN100_$LT$pyo3..pycell..impl_..MutableClass$u20$as$u20$pyo3..pycell..impl_..GetBorrowChecker$LT$T$GT$$GT$14borrow_checker17hed241770cd80de6bE', symObjAddr: 0x28, symBinAddr: 0xCB7C, symSize: 0x14 }
  - { offset: 0x78B23, size: 0x8, addend: 0x0, symName: '__ZN100_$LT$pyo3..pycell..impl_..MutableClass$u20$as$u20$pyo3..pycell..impl_..GetBorrowChecker$LT$T$GT$$GT$14borrow_checker17hf724f6fa5d2c3c06E', symObjAddr: 0x3C, symBinAddr: 0xCB90, symSize: 0x14 }
  - { offset: 0x78B5E, size: 0x8, addend: 0x0, symName: '__ZN113_$LT$pyo3..pycell..impl_..PyClassObject$LT$T$GT$$u20$as$u20$pyo3..pycell..impl_..PyClassObjectLayout$LT$T$GT$$GT$10tp_dealloc17h2c250774de24b4a5E', symObjAddr: 0x50, symBinAddr: 0xCBA4, symSize: 0xB4 }
  - { offset: 0x78BC2, size: 0x8, addend: 0x0, symName: '__ZN113_$LT$pyo3..pycell..impl_..PyClassObject$LT$T$GT$$u20$as$u20$pyo3..pycell..impl_..PyClassObjectLayout$LT$T$GT$$GT$10tp_dealloc17h7cea117d5d2b9431E', symObjAddr: 0x104, symBinAddr: 0xCC58, symSize: 0xB4 }
  - { offset: 0x78C26, size: 0x8, addend: 0x0, symName: '__ZN113_$LT$pyo3..pycell..impl_..PyClassObject$LT$T$GT$$u20$as$u20$pyo3..pycell..impl_..PyClassObjectLayout$LT$T$GT$$GT$10tp_dealloc17h7ecd5adbd800edf0E', symObjAddr: 0x1B8, symBinAddr: 0xCD0C, symSize: 0xB4 }
  - { offset: 0x78C8A, size: 0x8, addend: 0x0, symName: '__ZN113_$LT$pyo3..pycell..impl_..PyClassObject$LT$T$GT$$u20$as$u20$pyo3..pycell..impl_..PyClassObjectLayout$LT$T$GT$$GT$10tp_dealloc17he33f7552a442bbc3E', symObjAddr: 0x26C, symBinAddr: 0xCDC0, symSize: 0xB4 }
  - { offset: 0x78CEE, size: 0x8, addend: 0x0, symName: '__ZN113_$LT$pyo3..pycell..impl_..PyClassObject$LT$T$GT$$u20$as$u20$pyo3..pycell..impl_..PyClassObjectLayout$LT$T$GT$$GT$17ensure_threadsafe17h11d90056af7e94deE', symObjAddr: 0x320, symBinAddr: 0xCE74, symSize: 0x30 }
  - { offset: 0x78D21, size: 0x8, addend: 0x0, symName: '__ZN113_$LT$pyo3..pycell..impl_..PyClassObject$LT$T$GT$$u20$as$u20$pyo3..pycell..impl_..PyClassObjectLayout$LT$T$GT$$GT$17ensure_threadsafe17h2cb5ad476d11df52E', symObjAddr: 0x350, symBinAddr: 0xCEA4, symSize: 0x30 }
  - { offset: 0x78D54, size: 0x8, addend: 0x0, symName: '__ZN113_$LT$pyo3..pycell..impl_..PyClassObject$LT$T$GT$$u20$as$u20$pyo3..pycell..impl_..PyClassObjectLayout$LT$T$GT$$GT$17ensure_threadsafe17h4ba6d05abc27187eE', symObjAddr: 0x380, symBinAddr: 0xCED4, symSize: 0x30 }
  - { offset: 0x78D87, size: 0x8, addend: 0x0, symName: '__ZN113_$LT$pyo3..pycell..impl_..PyClassObject$LT$T$GT$$u20$as$u20$pyo3..pycell..impl_..PyClassObjectLayout$LT$T$GT$$GT$17ensure_threadsafe17hdb012acd76c5e467E', symObjAddr: 0x3B0, symBinAddr: 0xCF04, symSize: 0x30 }
  - { offset: 0x78DC0, size: 0x8, addend: 0x0, symName: '__ZN117_$LT$pyo3..pycell..impl_..PyClassObjectBase$LT$U$GT$$u20$as$u20$pyo3..pycell..impl_..PyClassObjectLayout$LT$T$GT$$GT$10tp_dealloc17h5ad3fa1222a0f742E', symObjAddr: 0x3E0, symBinAddr: 0xCF34, symSize: 0x270 }
  - { offset: 0x78EC3, size: 0x8, addend: 0x0, symName: '__ZN117_$LT$pyo3..pycell..impl_..PyClassObjectBase$LT$U$GT$$u20$as$u20$pyo3..pycell..impl_..PyClassObjectLayout$LT$T$GT$$GT$17ensure_threadsafe17hebf4e6e72d4a7d42E', symObjAddr: 0x650, symBinAddr: 0xD1A4, symSize: 0x10 }
  - { offset: 0x79BF6, size: 0x8, addend: 0x0, symName: '__ZN4pyo36pycell5impl_22PyClassObject$LT$T$GT$14borrow_checker17h3f7274d7b6ebb7a0E', symObjAddr: 0x660, symBinAddr: 0xD1B4, symSize: 0x24 }
  - { offset: 0x7C24A, size: 0x8, addend: 0x0, symName: '__ZN4pyo36pycell5impl_22PyClassObject$LT$T$GT$14borrow_checker17h731e8497e767af5dE', symObjAddr: 0x684, symBinAddr: 0xD1D8, symSize: 0x24 }
  - { offset: 0x7C2FA, size: 0x8, addend: 0x0, symName: '__ZN4pyo36pycell5impl_22PyClassObject$LT$T$GT$14borrow_checker17ha930f358f4b7b845E', symObjAddr: 0x6A8, symBinAddr: 0xD1FC, symSize: 0x24 }
  - { offset: 0x7C333, size: 0x8, addend: 0x0, symName: '__ZN4pyo36pycell5impl_22PyClassObject$LT$T$GT$14borrow_checker17hed42ed9ed5b330acE', symObjAddr: 0x6CC, symBinAddr: 0xD220, symSize: 0x24 }
  - { offset: 0x7C36C, size: 0x8, addend: 0x0, symName: '__ZN4pyo36pycell5impl_22PyClassObject$LT$T$GT$7get_ptr17h4dc96bd6a4088690E', symObjAddr: 0x6F0, symBinAddr: 0xD244, symSize: 0x24 }
  - { offset: 0x7C3A5, size: 0x8, addend: 0x0, symName: '__ZN4pyo36pycell5impl_22PyClassObject$LT$T$GT$7get_ptr17h504e210fd88d5d55E', symObjAddr: 0x714, symBinAddr: 0xD268, symSize: 0x24 }
  - { offset: 0x7C3DE, size: 0x8, addend: 0x0, symName: '__ZN4pyo36pycell5impl_22PyClassObject$LT$T$GT$7get_ptr17h61a2819771563b82E', symObjAddr: 0x738, symBinAddr: 0xD28C, symSize: 0x24 }
  - { offset: 0x7C417, size: 0x8, addend: 0x0, symName: '__ZN4pyo36pycell5impl_22PyClassObject$LT$T$GT$7get_ptr17hac8a3af9e4156ab4E', symObjAddr: 0x75C, symBinAddr: 0xD2B0, symSize: 0x24 }
  - { offset: 0x7C4E7, size: 0x8, addend: 0x0, symName: __ZN5tokio7runtime7runtime7Runtime14block_on_inner17h017f107a86cb516aE, symObjAddr: 0x0, symBinAddr: 0xD2D4, symSize: 0x164 }
  - { offset: 0x87033, size: 0x8, addend: 0x0, symName: __ZN5tokio7runtime7runtime7Runtime14block_on_inner17h017f107a86cb516aE, symObjAddr: 0x0, symBinAddr: 0xD2D4, symSize: 0x164 }
  - { offset: 0x870E7, size: 0x8, addend: 0x0, symName: __ZN5tokio7runtime7runtime7Runtime14block_on_inner17h05daef62df9ad9c1E, symObjAddr: 0x164, symBinAddr: 0xD438, symSize: 0x110 }
  - { offset: 0x8717F, size: 0x8, addend: 0x0, symName: __ZN5tokio7runtime7runtime7Runtime14block_on_inner17h17479d4777ce8d55E, symObjAddr: 0x274, symBinAddr: 0xD548, symSize: 0x160 }
  - { offset: 0x87226, size: 0x8, addend: 0x0, symName: __ZN5tokio7runtime7runtime7Runtime14block_on_inner17h1e181e7b98d1cf07E, symObjAddr: 0x3D4, symBinAddr: 0xD6A8, symSize: 0x110 }
  - { offset: 0x87329, size: 0x8, addend: 0x0, symName: __ZN5tokio7runtime7runtime7Runtime14block_on_inner17h3e6d39a683703e39E, symObjAddr: 0x4E4, symBinAddr: 0xD7B8, symSize: 0x160 }
  - { offset: 0x873C3, size: 0x8, addend: 0x0, symName: __ZN5tokio7runtime7runtime7Runtime14block_on_inner17h413e31d93c25f8dcE, symObjAddr: 0x644, symBinAddr: 0xD918, symSize: 0x160 }
  - { offset: 0x8745D, size: 0x8, addend: 0x0, symName: __ZN5tokio7runtime7runtime7Runtime14block_on_inner17h42564c8eb0af6491E, symObjAddr: 0x7A4, symBinAddr: 0xDA78, symSize: 0x160 }
  - { offset: 0x87504, size: 0x8, addend: 0x0, symName: __ZN5tokio7runtime7runtime7Runtime14block_on_inner17h441ad89208bb8de8E, symObjAddr: 0x904, symBinAddr: 0xDBD8, symSize: 0x110 }
  - { offset: 0x875A9, size: 0x8, addend: 0x0, symName: __ZN5tokio7runtime7runtime7Runtime14block_on_inner17h4d49f3d851d8dd76E, symObjAddr: 0xA14, symBinAddr: 0xDCE8, symSize: 0x110 }
  - { offset: 0x8764E, size: 0x8, addend: 0x0, symName: __ZN5tokio7runtime7runtime7Runtime14block_on_inner17h53bbfad07d330934E, symObjAddr: 0xB24, symBinAddr: 0xDDF8, symSize: 0x110 }
  - { offset: 0x876E6, size: 0x8, addend: 0x0, symName: __ZN5tokio7runtime7runtime7Runtime14block_on_inner17h59ad6e598c173de9E, symObjAddr: 0xC34, symBinAddr: 0xDF08, symSize: 0x160 }
  - { offset: 0x8779A, size: 0x8, addend: 0x0, symName: __ZN5tokio7runtime7runtime7Runtime14block_on_inner17h79996dbdd6457f2aE, symObjAddr: 0xD94, symBinAddr: 0xE068, symSize: 0x110 }
  - { offset: 0x8783F, size: 0x8, addend: 0x0, symName: __ZN5tokio7runtime7runtime7Runtime14block_on_inner17h8786291d41664333E, symObjAddr: 0xEA4, symBinAddr: 0xE178, symSize: 0x110 }
  - { offset: 0x878E4, size: 0x8, addend: 0x0, symName: __ZN5tokio7runtime7runtime7Runtime14block_on_inner17h9bdfc927624cc39eE, symObjAddr: 0xFB4, symBinAddr: 0xE288, symSize: 0x124 }
  - { offset: 0x8797C, size: 0x8, addend: 0x0, symName: __ZN5tokio7runtime7runtime7Runtime14block_on_inner17h9daa8d8cd643a331E, symObjAddr: 0x10D8, symBinAddr: 0xE3AC, symSize: 0x14C }
  - { offset: 0x87A22, size: 0x8, addend: 0x0, symName: __ZN5tokio7runtime7runtime7Runtime14block_on_inner17ha2105c9f4846b1f4E, symObjAddr: 0x1224, symBinAddr: 0xE4F8, symSize: 0x110 }
  - { offset: 0x87AC7, size: 0x8, addend: 0x0, symName: __ZN5tokio7runtime7runtime7Runtime14block_on_inner17haa3afd4810de8ab7E, symObjAddr: 0x1334, symBinAddr: 0xE608, symSize: 0x110 }
  - { offset: 0x87B5F, size: 0x8, addend: 0x0, symName: __ZN5tokio7runtime7runtime7Runtime14block_on_inner17hb3723ac38d44a1a1E, symObjAddr: 0x1444, symBinAddr: 0xE718, symSize: 0x164 }
  - { offset: 0x87BF9, size: 0x8, addend: 0x0, symName: __ZN5tokio7runtime7runtime7Runtime14block_on_inner17hdc4f1b7aa140ec8fE, symObjAddr: 0x15A8, symBinAddr: 0xE87C, symSize: 0x160 }
  - { offset: 0x87C93, size: 0x8, addend: 0x0, symName: __ZN5tokio7runtime7runtime7Runtime14block_on_inner17hde3fea018bb167bcE, symObjAddr: 0x1708, symBinAddr: 0xE9DC, symSize: 0x160 }
  - { offset: 0x87D8C, size: 0x8, addend: 0x0, symName: __ZN5tokio7runtime7runtime7Runtime5spawn17h68ed4d5a24afbf9fE, symObjAddr: 0x1868, symBinAddr: 0xEB3C, symSize: 0x234 }
  - { offset: 0x87E2D, size: 0x8, addend: 0x0, symName: __ZN5tokio7runtime7runtime7Runtime8block_on17h0c3365034996bfe4E, symObjAddr: 0x1A9C, symBinAddr: 0xED70, symSize: 0x210 }
  - { offset: 0x87ED3, size: 0x8, addend: 0x0, symName: __ZN5tokio7runtime7runtime7Runtime8block_on17h1d431357ede67c61E, symObjAddr: 0x1CAC, symBinAddr: 0xEF80, symSize: 0x210 }
  - { offset: 0x87F79, size: 0x8, addend: 0x0, symName: __ZN5tokio7runtime7runtime7Runtime8block_on17h53a5d52978fe99bdE, symObjAddr: 0x1EBC, symBinAddr: 0xF190, symSize: 0x20C }
  - { offset: 0x8801F, size: 0x8, addend: 0x0, symName: __ZN5tokio7runtime7runtime7Runtime8block_on17h54d5f0817bb2dabaE, symObjAddr: 0x20C8, symBinAddr: 0xF39C, symSize: 0x224 }
  - { offset: 0x880C4, size: 0x8, addend: 0x0, symName: __ZN5tokio7runtime7runtime7Runtime8block_on17h63323a6ccb7f976fE, symObjAddr: 0x22EC, symBinAddr: 0xF5C0, symSize: 0x20C }
  - { offset: 0x8816A, size: 0x8, addend: 0x0, symName: __ZN5tokio7runtime7runtime7Runtime8block_on17h74996c16592b6fdfE, symObjAddr: 0x24F8, symBinAddr: 0xF7CC, symSize: 0x20C }
  - { offset: 0x88210, size: 0x8, addend: 0x0, symName: __ZN5tokio7runtime7runtime7Runtime8block_on17ha040956dadf3fbebE, symObjAddr: 0x2704, symBinAddr: 0xF9D8, symSize: 0x20C }
  - { offset: 0x882B6, size: 0x8, addend: 0x0, symName: __ZN5tokio7runtime7runtime7Runtime8block_on17hb13c4d676a3428b3E, symObjAddr: 0x2910, symBinAddr: 0xFBE4, symSize: 0x20C }
  - { offset: 0x8835C, size: 0x8, addend: 0x0, symName: __ZN5tokio7runtime7runtime7Runtime8block_on17hd0e37bec06703bc0E, symObjAddr: 0x2B1C, symBinAddr: 0xFDF0, symSize: 0x20C }
  - { offset: 0x88402, size: 0x8, addend: 0x0, symName: __ZN5tokio7runtime7runtime7Runtime8block_on17hf1389c96d6395569E, symObjAddr: 0x2D28, symBinAddr: 0xFFFC, symSize: 0x20C }
  - { offset: 0x884ED, size: 0x8, addend: 0x0, symName: '__ZN4core7convert3num18ptr_try_from_impls69_$LT$impl$u20$core..convert..TryFrom$LT$u64$GT$$u20$for$u20$usize$GT$8try_from17hdaa7fca31e9a504fE', symObjAddr: 0x0, symBinAddr: 0x10208, symSize: 0x20 }
  - { offset: 0x88CD4, size: 0x8, addend: 0x0, symName: '__ZN4core7convert3num18ptr_try_from_impls69_$LT$impl$u20$core..convert..TryFrom$LT$u64$GT$$u20$for$u20$usize$GT$8try_from17hdaa7fca31e9a504fE', symObjAddr: 0x0, symBinAddr: 0x10208, symSize: 0x20 }
  - { offset: 0x8971C, size: 0x8, addend: 0x0, symName: '__ZN4pyo311conversions3std6string125_$LT$impl$u20$pyo3..conversion..IntoPy$LT$pyo3..instance..Py$LT$pyo3..types..string..PyString$GT$$GT$$u20$for$u20$$RF$str$GT$7into_py17he5499359433677f2E', symObjAddr: 0x20, symBinAddr: 0x10228, symSize: 0x34 }
  - { offset: 0x89D44, size: 0x8, addend: 0x0, symName: __ZN5tokio7runtime4task5waker9waker_ref17h5b946326d176f00bE, symObjAddr: 0x0, symBinAddr: 0x1025C, symSize: 0x4C }
  - { offset: 0x89F5D, size: 0x8, addend: 0x0, symName: __ZN5tokio7runtime4task5waker9waker_ref17h5b946326d176f00bE, symObjAddr: 0x0, symBinAddr: 0x1025C, symSize: 0x4C }
  - { offset: 0x89F92, size: 0x8, addend: 0x0, symName: __ZN5tokio7runtime4task5waker9waker_ref17hbc32892aa836ab60E, symObjAddr: 0x4C, symBinAddr: 0x102A8, symSize: 0x4C }
  - { offset: 0x89FCC, size: 0x8, addend: 0x0, symName: '__ZN90_$LT$tokio..runtime..task..waker..WakerRef$LT$S$GT$$u20$as$u20$core..ops..deref..Deref$GT$5deref17h45132f9f8f40dae3E', symObjAddr: 0x98, symBinAddr: 0x102F4, symSize: 0x1C }
  - { offset: 0x8A001, size: 0x8, addend: 0x0, symName: '__ZN90_$LT$tokio..runtime..task..waker..WakerRef$LT$S$GT$$u20$as$u20$core..ops..deref..Deref$GT$5deref17hf827296230d27473E', symObjAddr: 0xB4, symBinAddr: 0x10310, symSize: 0x1C }
  - { offset: 0x8E842, size: 0x8, addend: 0x0, symName: '__ZN4core3f3221_$LT$impl$u20$f32$GT$11to_le_bytes17h87cdcc1ce9f2eac5E', symObjAddr: 0x0, symBinAddr: 0x1032C, symSize: 0x18 }
  - { offset: 0x8E88C, size: 0x8, addend: 0x0, symName: '__ZN4core3f3221_$LT$impl$u20$f32$GT$11to_le_bytes17h87cdcc1ce9f2eac5E', symObjAddr: 0x0, symBinAddr: 0x1032C, symSize: 0x18 }
  - { offset: 0x8E8F6, size: 0x8, addend: 0x0, symName: '__ZN4core3f3221_$LT$impl$u20$f32$GT$13from_le_bytes17h972a4777bda1de39E', symObjAddr: 0x18, symBinAddr: 0x10344, symSize: 0x1C }
  - { offset: 0x8E96D, size: 0x8, addend: 0x0, symName: '__ZN55_$LT$$RF$T$u20$as$u20$thiserror..display..AsDisplay$GT$10as_display17h42b7b5719f85ea88E', symObjAddr: 0x34, symBinAddr: 0x10360, symSize: 0x18 }
  - { offset: 0x8E9A2, size: 0x8, addend: 0x0, symName: '__ZN55_$LT$$RF$T$u20$as$u20$thiserror..display..AsDisplay$GT$10as_display17h5d3171c7ce8b888dE', symObjAddr: 0x4C, symBinAddr: 0x10378, symSize: 0x18 }
  - { offset: 0x8EA3A, size: 0x8, addend: 0x0, symName: __ZN4zstd6stream9functions10decode_all17h1ec150560106e037E, symObjAddr: 0x0, symBinAddr: 0x10390, symSize: 0x128 }
  - { offset: 0x8EE74, size: 0x8, addend: 0x0, symName: __ZN4zstd6stream9functions10decode_all17h1ec150560106e037E, symObjAddr: 0x0, symBinAddr: 0x10390, symSize: 0x128 }
  - { offset: 0x8EEDC, size: 0x8, addend: 0x0, symName: __ZN4zstd6stream9functions10encode_all17h600ab30736cc63f4E, symObjAddr: 0x128, symBinAddr: 0x104B8, symSize: 0x130 }
  - { offset: 0x8EF51, size: 0x8, addend: 0x0, symName: __ZN4zstd6stream9functions11copy_decode17h7b500a3d32edcbd0E, symObjAddr: 0x258, symBinAddr: 0x105E8, symSize: 0x188 }
  - { offset: 0x8EFFD, size: 0x8, addend: 0x0, symName: __ZN4zstd6stream9functions11copy_encode17hd9cddf182587ac43E, symObjAddr: 0x3E0, symBinAddr: 0x10770, symSize: 0x264 }
  - { offset: 0x8F7C8, size: 0x8, addend: 0x0, symName: '__ZN59_$LT$F$u20$as$u20$core..future..into_future..IntoFuture$GT$11into_future17h4ab45751bb1d4703E', symObjAddr: 0x0, symBinAddr: 0x109D4, symSize: 0x30 }
  - { offset: 0x8FAB1, size: 0x8, addend: 0x0, symName: '__ZN59_$LT$F$u20$as$u20$core..future..into_future..IntoFuture$GT$11into_future17h4ab45751bb1d4703E', symObjAddr: 0x0, symBinAddr: 0x109D4, symSize: 0x30 }
  - { offset: 0x9003B, size: 0x8, addend: 0x0, symName: __ZN5tokio2fs11remove_file11remove_file17h1eed53febf8be767E, symObjAddr: 0x30, symBinAddr: 0x10A04, symSize: 0x1C }
  - { offset: 0x9008D, size: 0x8, addend: 0x0, symName: '__ZN5tokio2fs11remove_file11remove_file28_$u7b$$u7b$closure$u7d$$u7d$28_$u7b$$u7b$closure$u7d$$u7d$17h982ce47ddec0c368E', symObjAddr: 0x284, symBinAddr: 0x10C58, symSize: 0x34 }
  - { offset: 0x900C5, size: 0x8, addend: 0x0, symName: '__ZN5tokio2fs11remove_file11remove_file28_$u7b$$u7b$closure$u7d$$u7d$17hc0009de0e15c0f7bE', symObjAddr: 0x4C, symBinAddr: 0x10A20, symSize: 0x238 }
  - { offset: 0x9078B, size: 0x8, addend: 0x0, symName: '__ZN59_$LT$F$u20$as$u20$core..future..into_future..IntoFuture$GT$11into_future17hf4ff101263d794c9E', symObjAddr: 0x0, symBinAddr: 0x10C8C, symSize: 0x18 }
  - { offset: 0x90B70, size: 0x8, addend: 0x0, symName: '__ZN59_$LT$F$u20$as$u20$core..future..into_future..IntoFuture$GT$11into_future17hf4ff101263d794c9E', symObjAddr: 0x0, symBinAddr: 0x10C8C, symSize: 0x18 }
  - { offset: 0x91645, size: 0x8, addend: 0x0, symName: __ZN5tokio2io4util9write_all9write_all17hee4fef0a1fc731a0E, symObjAddr: 0x68, symBinAddr: 0x10CF4, symSize: 0x2C }
  - { offset: 0x9168D, size: 0x8, addend: 0x0, symName: '__ZN94_$LT$tokio..io..util..write_all..WriteAll$LT$W$GT$$u20$as$u20$core..future..future..Future$GT$4poll17hf835bac042d360cdE', symObjAddr: 0x94, symBinAddr: 0x10D20, symSize: 0x16C }
  - { offset: 0x91FE3, size: 0x8, addend: 0x0, symName: '__ZN5tokio2io4util9write_all1_63_$LT$impl$u20$tokio..io..util..write_all..WriteAll$LT$W$GT$$GT$7project17h46b25479f2954921E', symObjAddr: 0x18, symBinAddr: 0x10CA4, symSize: 0x50 }
  - { offset: 0x920F2, size: 0x8, addend: 0x0, symName: '__ZN153_$LT$core..result..Result$LT$T$C$F$GT$$u20$as$u20$core..ops..try_trait..FromResidual$LT$core..result..Result$LT$core..convert..Infallible$C$E$GT$$GT$$GT$13from_residual17h01e06c6b225b5ea5E', symObjAddr: 0x0, symBinAddr: 0x10E8C, symSize: 0x48 }
  - { offset: 0x95B62, size: 0x8, addend: 0x0, symName: '__ZN153_$LT$core..result..Result$LT$T$C$F$GT$$u20$as$u20$core..ops..try_trait..FromResidual$LT$core..result..Result$LT$core..convert..Infallible$C$E$GT$$GT$$GT$13from_residual17h01e06c6b225b5ea5E', symObjAddr: 0x0, symBinAddr: 0x10E8C, symSize: 0x48 }
  - { offset: 0x95BE7, size: 0x8, addend: 0x0, symName: '__ZN153_$LT$core..result..Result$LT$T$C$F$GT$$u20$as$u20$core..ops..try_trait..FromResidual$LT$core..result..Result$LT$core..convert..Infallible$C$E$GT$$GT$$GT$13from_residual17h070be6c40a421e04E', symObjAddr: 0x48, symBinAddr: 0x10ED4, symSize: 0x40 }
  - { offset: 0x95C4E, size: 0x8, addend: 0x0, symName: '__ZN153_$LT$core..result..Result$LT$T$C$F$GT$$u20$as$u20$core..ops..try_trait..FromResidual$LT$core..result..Result$LT$core..convert..Infallible$C$E$GT$$GT$$GT$13from_residual17h09ea78bdce9a08f2E', symObjAddr: 0x88, symBinAddr: 0x10F14, symSize: 0x18 }
  - { offset: 0x95CB5, size: 0x8, addend: 0x0, symName: '__ZN153_$LT$core..result..Result$LT$T$C$F$GT$$u20$as$u20$core..ops..try_trait..FromResidual$LT$core..result..Result$LT$core..convert..Infallible$C$E$GT$$GT$$GT$13from_residual17h0c364cfad4c51d49E', symObjAddr: 0xA0, symBinAddr: 0x10F2C, symSize: 0x18 }
  - { offset: 0x95D1C, size: 0x8, addend: 0x0, symName: '__ZN153_$LT$core..result..Result$LT$T$C$F$GT$$u20$as$u20$core..ops..try_trait..FromResidual$LT$core..result..Result$LT$core..convert..Infallible$C$E$GT$$GT$$GT$13from_residual17h0d77fcc1eb931b19E', symObjAddr: 0xB8, symBinAddr: 0x10F44, symSize: 0x24 }
  - { offset: 0x95D83, size: 0x8, addend: 0x0, symName: '__ZN153_$LT$core..result..Result$LT$T$C$F$GT$$u20$as$u20$core..ops..try_trait..FromResidual$LT$core..result..Result$LT$core..convert..Infallible$C$E$GT$$GT$$GT$13from_residual17h14558720106fc622E', symObjAddr: 0xDC, symBinAddr: 0x10F68, symSize: 0x48 }
  - { offset: 0x95E08, size: 0x8, addend: 0x0, symName: '__ZN153_$LT$core..result..Result$LT$T$C$F$GT$$u20$as$u20$core..ops..try_trait..FromResidual$LT$core..result..Result$LT$core..convert..Infallible$C$E$GT$$GT$$GT$13from_residual17h155f8f4e89a9c45dE', symObjAddr: 0x124, symBinAddr: 0x10FB0, symSize: 0x48 }
  - { offset: 0x95E8D, size: 0x8, addend: 0x0, symName: '__ZN153_$LT$core..result..Result$LT$T$C$F$GT$$u20$as$u20$core..ops..try_trait..FromResidual$LT$core..result..Result$LT$core..convert..Infallible$C$E$GT$$GT$$GT$13from_residual17h1cb0ef9ae44bdd75E', symObjAddr: 0x16C, symBinAddr: 0x10FF8, symSize: 0x30 }
  - { offset: 0x95EF4, size: 0x8, addend: 0x0, symName: '__ZN153_$LT$core..result..Result$LT$T$C$F$GT$$u20$as$u20$core..ops..try_trait..FromResidual$LT$core..result..Result$LT$core..convert..Infallible$C$E$GT$$GT$$GT$13from_residual17h1e55619988ef2b88E', symObjAddr: 0x19C, symBinAddr: 0x11028, symSize: 0x48 }
  - { offset: 0x95F79, size: 0x8, addend: 0x0, symName: '__ZN153_$LT$core..result..Result$LT$T$C$F$GT$$u20$as$u20$core..ops..try_trait..FromResidual$LT$core..result..Result$LT$core..convert..Infallible$C$E$GT$$GT$$GT$13from_residual17h202bd31c769824d8E', symObjAddr: 0x1E4, symBinAddr: 0x11070, symSize: 0x18 }
  - { offset: 0x95FE0, size: 0x8, addend: 0x0, symName: '__ZN153_$LT$core..result..Result$LT$T$C$F$GT$$u20$as$u20$core..ops..try_trait..FromResidual$LT$core..result..Result$LT$core..convert..Infallible$C$E$GT$$GT$$GT$13from_residual17h23674eab8834f087E', symObjAddr: 0x1FC, symBinAddr: 0x11088, symSize: 0x58 }
  - { offset: 0x96048, size: 0x8, addend: 0x0, symName: '__ZN153_$LT$core..result..Result$LT$T$C$F$GT$$u20$as$u20$core..ops..try_trait..FromResidual$LT$core..result..Result$LT$core..convert..Infallible$C$E$GT$$GT$$GT$13from_residual17h25f2ecf3891fc357E', symObjAddr: 0x254, symBinAddr: 0x110E0, symSize: 0x3C }
  - { offset: 0x960CD, size: 0x8, addend: 0x0, symName: '__ZN153_$LT$core..result..Result$LT$T$C$F$GT$$u20$as$u20$core..ops..try_trait..FromResidual$LT$core..result..Result$LT$core..convert..Infallible$C$E$GT$$GT$$GT$13from_residual17h2603377647074799E', symObjAddr: 0x290, symBinAddr: 0x1111C, symSize: 0x58 }
  - { offset: 0x96135, size: 0x8, addend: 0x0, symName: '__ZN153_$LT$core..result..Result$LT$T$C$F$GT$$u20$as$u20$core..ops..try_trait..FromResidual$LT$core..result..Result$LT$core..convert..Infallible$C$E$GT$$GT$$GT$13from_residual17h2905769777481a79E', symObjAddr: 0x2E8, symBinAddr: 0x11174, symSize: 0x48 }
  - { offset: 0x961BA, size: 0x8, addend: 0x0, symName: '__ZN153_$LT$core..result..Result$LT$T$C$F$GT$$u20$as$u20$core..ops..try_trait..FromResidual$LT$core..result..Result$LT$core..convert..Infallible$C$E$GT$$GT$$GT$13from_residual17h2c9661ad33a6c2b4E', symObjAddr: 0x330, symBinAddr: 0x111BC, symSize: 0x18 }
  - { offset: 0x96221, size: 0x8, addend: 0x0, symName: '__ZN153_$LT$core..result..Result$LT$T$C$F$GT$$u20$as$u20$core..ops..try_trait..FromResidual$LT$core..result..Result$LT$core..convert..Infallible$C$E$GT$$GT$$GT$13from_residual17h2e0ad6e02ee157b9E', symObjAddr: 0x348, symBinAddr: 0x111D4, symSize: 0x2C }
  - { offset: 0x96288, size: 0x8, addend: 0x0, symName: '__ZN153_$LT$core..result..Result$LT$T$C$F$GT$$u20$as$u20$core..ops..try_trait..FromResidual$LT$core..result..Result$LT$core..convert..Infallible$C$E$GT$$GT$$GT$13from_residual17h323a2145ba97d356E', symObjAddr: 0x374, symBinAddr: 0x11200, symSize: 0x58 }
  - { offset: 0x962F0, size: 0x8, addend: 0x0, symName: '__ZN153_$LT$core..result..Result$LT$T$C$F$GT$$u20$as$u20$core..ops..try_trait..FromResidual$LT$core..result..Result$LT$core..convert..Infallible$C$E$GT$$GT$$GT$13from_residual17h348ca3964e1330bcE', symObjAddr: 0x3CC, symBinAddr: 0x11258, symSize: 0x48 }
  - { offset: 0x96375, size: 0x8, addend: 0x0, symName: '__ZN153_$LT$core..result..Result$LT$T$C$F$GT$$u20$as$u20$core..ops..try_trait..FromResidual$LT$core..result..Result$LT$core..convert..Infallible$C$E$GT$$GT$$GT$13from_residual17h36067e9060e1ca78E', symObjAddr: 0x414, symBinAddr: 0x112A0, symSize: 0x48 }
  - { offset: 0x963FA, size: 0x8, addend: 0x0, symName: '__ZN153_$LT$core..result..Result$LT$T$C$F$GT$$u20$as$u20$core..ops..try_trait..FromResidual$LT$core..result..Result$LT$core..convert..Infallible$C$E$GT$$GT$$GT$13from_residual17h3c157b48b8952d01E', symObjAddr: 0x45C, symBinAddr: 0x112E8, symSize: 0x44 }
  - { offset: 0x96461, size: 0x8, addend: 0x0, symName: '__ZN153_$LT$core..result..Result$LT$T$C$F$GT$$u20$as$u20$core..ops..try_trait..FromResidual$LT$core..result..Result$LT$core..convert..Infallible$C$E$GT$$GT$$GT$13from_residual17h3c186f0de75eaeb1E', symObjAddr: 0x4A0, symBinAddr: 0x1132C, symSize: 0x48 }
  - { offset: 0x964E6, size: 0x8, addend: 0x0, symName: '__ZN153_$LT$core..result..Result$LT$T$C$F$GT$$u20$as$u20$core..ops..try_trait..FromResidual$LT$core..result..Result$LT$core..convert..Infallible$C$E$GT$$GT$$GT$13from_residual17h4bbb48a551840049E', symObjAddr: 0x4E8, symBinAddr: 0x11374, symSize: 0x48 }
  - { offset: 0x9656B, size: 0x8, addend: 0x0, symName: '__ZN153_$LT$core..result..Result$LT$T$C$F$GT$$u20$as$u20$core..ops..try_trait..FromResidual$LT$core..result..Result$LT$core..convert..Infallible$C$E$GT$$GT$$GT$13from_residual17h4c315ecd4381527eE', symObjAddr: 0x530, symBinAddr: 0x113BC, symSize: 0x18 }
  - { offset: 0x965D2, size: 0x8, addend: 0x0, symName: '__ZN153_$LT$core..result..Result$LT$T$C$F$GT$$u20$as$u20$core..ops..try_trait..FromResidual$LT$core..result..Result$LT$core..convert..Infallible$C$E$GT$$GT$$GT$13from_residual17h4d23a1e1b315d0a4E', symObjAddr: 0x550, symBinAddr: 0x113D4, symSize: 0x18 }
  - { offset: 0x96639, size: 0x8, addend: 0x0, symName: '__ZN153_$LT$core..result..Result$LT$T$C$F$GT$$u20$as$u20$core..ops..try_trait..FromResidual$LT$core..result..Result$LT$core..convert..Infallible$C$E$GT$$GT$$GT$13from_residual17h4d366ff3076b3337E', symObjAddr: 0x568, symBinAddr: 0x113EC, symSize: 0x50 }
  - { offset: 0x966A1, size: 0x8, addend: 0x0, symName: '__ZN153_$LT$core..result..Result$LT$T$C$F$GT$$u20$as$u20$core..ops..try_trait..FromResidual$LT$core..result..Result$LT$core..convert..Infallible$C$E$GT$$GT$$GT$13from_residual17h4d7ba70bd92ab799E', symObjAddr: 0x5B8, symBinAddr: 0x1143C, symSize: 0x48 }
  - { offset: 0x96726, size: 0x8, addend: 0x0, symName: '__ZN153_$LT$core..result..Result$LT$T$C$F$GT$$u20$as$u20$core..ops..try_trait..FromResidual$LT$core..result..Result$LT$core..convert..Infallible$C$E$GT$$GT$$GT$13from_residual17h4ffaa597b4045976E', symObjAddr: 0x600, symBinAddr: 0x11484, symSize: 0x3C }
  - { offset: 0x967AB, size: 0x8, addend: 0x0, symName: '__ZN153_$LT$core..result..Result$LT$T$C$F$GT$$u20$as$u20$core..ops..try_trait..FromResidual$LT$core..result..Result$LT$core..convert..Infallible$C$E$GT$$GT$$GT$13from_residual17h57e7e251f924a890E', symObjAddr: 0x63C, symBinAddr: 0x114C0, symSize: 0x50 }
  - { offset: 0x96813, size: 0x8, addend: 0x0, symName: '__ZN153_$LT$core..result..Result$LT$T$C$F$GT$$u20$as$u20$core..ops..try_trait..FromResidual$LT$core..result..Result$LT$core..convert..Infallible$C$E$GT$$GT$$GT$13from_residual17h57fbf033b79f7f69E', symObjAddr: 0x68C, symBinAddr: 0x11510, symSize: 0x48 }
  - { offset: 0x96898, size: 0x8, addend: 0x0, symName: '__ZN153_$LT$core..result..Result$LT$T$C$F$GT$$u20$as$u20$core..ops..try_trait..FromResidual$LT$core..result..Result$LT$core..convert..Infallible$C$E$GT$$GT$$GT$13from_residual17h59b2693fc3305e2fE', symObjAddr: 0x6D4, symBinAddr: 0x11558, symSize: 0x3C }
  - { offset: 0x968FF, size: 0x8, addend: 0x0, symName: '__ZN153_$LT$core..result..Result$LT$T$C$F$GT$$u20$as$u20$core..ops..try_trait..FromResidual$LT$core..result..Result$LT$core..convert..Infallible$C$E$GT$$GT$$GT$13from_residual17h60c4f9e7b9b92df1E', symObjAddr: 0x710, symBinAddr: 0x11594, symSize: 0x58 }
  - { offset: 0x96967, size: 0x8, addend: 0x0, symName: '__ZN153_$LT$core..result..Result$LT$T$C$F$GT$$u20$as$u20$core..ops..try_trait..FromResidual$LT$core..result..Result$LT$core..convert..Infallible$C$E$GT$$GT$$GT$13from_residual17h65135defac58584eE', symObjAddr: 0x768, symBinAddr: 0x115EC, symSize: 0x3C }
  - { offset: 0x969EC, size: 0x8, addend: 0x0, symName: '__ZN153_$LT$core..result..Result$LT$T$C$F$GT$$u20$as$u20$core..ops..try_trait..FromResidual$LT$core..result..Result$LT$core..convert..Infallible$C$E$GT$$GT$$GT$13from_residual17h655babc8b199726cE', symObjAddr: 0x7A4, symBinAddr: 0x11628, symSize: 0x18 }
  - { offset: 0x96A53, size: 0x8, addend: 0x0, symName: '__ZN153_$LT$core..result..Result$LT$T$C$F$GT$$u20$as$u20$core..ops..try_trait..FromResidual$LT$core..result..Result$LT$core..convert..Infallible$C$E$GT$$GT$$GT$13from_residual17h65be91991e382b72E', symObjAddr: 0x7BC, symBinAddr: 0x11640, symSize: 0x48 }
  - { offset: 0x96AD8, size: 0x8, addend: 0x0, symName: '__ZN153_$LT$core..result..Result$LT$T$C$F$GT$$u20$as$u20$core..ops..try_trait..FromResidual$LT$core..result..Result$LT$core..convert..Infallible$C$E$GT$$GT$$GT$13from_residual17h7a674ec32947e778E', symObjAddr: 0x804, symBinAddr: 0x11688, symSize: 0x4C }
  - { offset: 0x96B3F, size: 0x8, addend: 0x0, symName: '__ZN153_$LT$core..result..Result$LT$T$C$F$GT$$u20$as$u20$core..ops..try_trait..FromResidual$LT$core..result..Result$LT$core..convert..Infallible$C$E$GT$$GT$$GT$13from_residual17h7ab4de972261eb85E', symObjAddr: 0x850, symBinAddr: 0x116D4, symSize: 0x48 }
  - { offset: 0x96BC4, size: 0x8, addend: 0x0, symName: '__ZN153_$LT$core..result..Result$LT$T$C$F$GT$$u20$as$u20$core..ops..try_trait..FromResidual$LT$core..result..Result$LT$core..convert..Infallible$C$E$GT$$GT$$GT$13from_residual17h7dd04cc6faf637f7E', symObjAddr: 0x898, symBinAddr: 0x1171C, symSize: 0x2C }
  - { offset: 0x96C2B, size: 0x8, addend: 0x0, symName: '__ZN153_$LT$core..result..Result$LT$T$C$F$GT$$u20$as$u20$core..ops..try_trait..FromResidual$LT$core..result..Result$LT$core..convert..Infallible$C$E$GT$$GT$$GT$13from_residual17h80d5aef9fb9eafbdE', symObjAddr: 0x8C4, symBinAddr: 0x11748, symSize: 0x18 }
  - { offset: 0x96C92, size: 0x8, addend: 0x0, symName: '__ZN153_$LT$core..result..Result$LT$T$C$F$GT$$u20$as$u20$core..ops..try_trait..FromResidual$LT$core..result..Result$LT$core..convert..Infallible$C$E$GT$$GT$$GT$13from_residual17h84cd3eda4c581463E', symObjAddr: 0x8DC, symBinAddr: 0x11760, symSize: 0x18 }
  - { offset: 0x96CF9, size: 0x8, addend: 0x0, symName: '__ZN153_$LT$core..result..Result$LT$T$C$F$GT$$u20$as$u20$core..ops..try_trait..FromResidual$LT$core..result..Result$LT$core..convert..Infallible$C$E$GT$$GT$$GT$13from_residual17h875f1e95762b5eacE', symObjAddr: 0x8F4, symBinAddr: 0x11778, symSize: 0x18 }
  - { offset: 0x96D60, size: 0x8, addend: 0x0, symName: '__ZN153_$LT$core..result..Result$LT$T$C$F$GT$$u20$as$u20$core..ops..try_trait..FromResidual$LT$core..result..Result$LT$core..convert..Infallible$C$E$GT$$GT$$GT$13from_residual17h88e1d1e19c4b9c56E', symObjAddr: 0x90C, symBinAddr: 0x11790, symSize: 0x3C }
  - { offset: 0x96DE5, size: 0x8, addend: 0x0, symName: '__ZN153_$LT$core..result..Result$LT$T$C$F$GT$$u20$as$u20$core..ops..try_trait..FromResidual$LT$core..result..Result$LT$core..convert..Infallible$C$E$GT$$GT$$GT$13from_residual17h8ee7139e7ae9862dE', symObjAddr: 0x948, symBinAddr: 0x117CC, symSize: 0x44 }
  - { offset: 0x96E4C, size: 0x8, addend: 0x0, symName: '__ZN153_$LT$core..result..Result$LT$T$C$F$GT$$u20$as$u20$core..ops..try_trait..FromResidual$LT$core..result..Result$LT$core..convert..Infallible$C$E$GT$$GT$$GT$13from_residual17h8f0e0c65f00f6977E', symObjAddr: 0x98C, symBinAddr: 0x11810, symSize: 0x3C }
  - { offset: 0x96ED1, size: 0x8, addend: 0x0, symName: '__ZN153_$LT$core..result..Result$LT$T$C$F$GT$$u20$as$u20$core..ops..try_trait..FromResidual$LT$core..result..Result$LT$core..convert..Infallible$C$E$GT$$GT$$GT$13from_residual17h91413ca091e6640aE', symObjAddr: 0x9C8, symBinAddr: 0x1184C, symSize: 0x18 }
  - { offset: 0x96F38, size: 0x8, addend: 0x0, symName: '__ZN153_$LT$core..result..Result$LT$T$C$F$GT$$u20$as$u20$core..ops..try_trait..FromResidual$LT$core..result..Result$LT$core..convert..Infallible$C$E$GT$$GT$$GT$13from_residual17h9263e11d13b68990E', symObjAddr: 0x9E0, symBinAddr: 0x11864, symSize: 0x18 }
  - { offset: 0x96F9F, size: 0x8, addend: 0x0, symName: '__ZN153_$LT$core..result..Result$LT$T$C$F$GT$$u20$as$u20$core..ops..try_trait..FromResidual$LT$core..result..Result$LT$core..convert..Infallible$C$E$GT$$GT$$GT$13from_residual17h9b009f4cadcfd4aaE', symObjAddr: 0x9F8, symBinAddr: 0x1187C, symSize: 0x58 }
  - { offset: 0x97007, size: 0x8, addend: 0x0, symName: '__ZN153_$LT$core..result..Result$LT$T$C$F$GT$$u20$as$u20$core..ops..try_trait..FromResidual$LT$core..result..Result$LT$core..convert..Infallible$C$E$GT$$GT$$GT$13from_residual17ha3b8e73d44647227E', symObjAddr: 0xA50, symBinAddr: 0x118D4, symSize: 0x48 }
  - { offset: 0x9708C, size: 0x8, addend: 0x0, symName: '__ZN153_$LT$core..result..Result$LT$T$C$F$GT$$u20$as$u20$core..ops..try_trait..FromResidual$LT$core..result..Result$LT$core..convert..Infallible$C$E$GT$$GT$$GT$13from_residual17ha690ce5c11eae403E', symObjAddr: 0xA98, symBinAddr: 0x1191C, symSize: 0x2C }
  - { offset: 0x970F3, size: 0x8, addend: 0x0, symName: '__ZN153_$LT$core..result..Result$LT$T$C$F$GT$$u20$as$u20$core..ops..try_trait..FromResidual$LT$core..result..Result$LT$core..convert..Infallible$C$E$GT$$GT$$GT$13from_residual17ha98d2d5e44105f0eE', symObjAddr: 0xAC4, symBinAddr: 0x11948, symSize: 0x3C }
  - { offset: 0x97178, size: 0x8, addend: 0x0, symName: '__ZN153_$LT$core..result..Result$LT$T$C$F$GT$$u20$as$u20$core..ops..try_trait..FromResidual$LT$core..result..Result$LT$core..convert..Infallible$C$E$GT$$GT$$GT$13from_residual17had92697cad2798c4E', symObjAddr: 0xB00, symBinAddr: 0x11984, symSize: 0x44 }
  - { offset: 0x971DF, size: 0x8, addend: 0x0, symName: '__ZN153_$LT$core..result..Result$LT$T$C$F$GT$$u20$as$u20$core..ops..try_trait..FromResidual$LT$core..result..Result$LT$core..convert..Infallible$C$E$GT$$GT$$GT$13from_residual17hb01fd7d9d3158d60E', symObjAddr: 0xB44, symBinAddr: 0x119C8, symSize: 0x18 }
  - { offset: 0x97246, size: 0x8, addend: 0x0, symName: '__ZN153_$LT$core..result..Result$LT$T$C$F$GT$$u20$as$u20$core..ops..try_trait..FromResidual$LT$core..result..Result$LT$core..convert..Infallible$C$E$GT$$GT$$GT$13from_residual17hb29d4b5896748ab6E', symObjAddr: 0xB5C, symBinAddr: 0x119E0, symSize: 0x18 }
  - { offset: 0x972AD, size: 0x8, addend: 0x0, symName: '__ZN153_$LT$core..result..Result$LT$T$C$F$GT$$u20$as$u20$core..ops..try_trait..FromResidual$LT$core..result..Result$LT$core..convert..Infallible$C$E$GT$$GT$$GT$13from_residual17hb8a551e57f904333E', symObjAddr: 0xB74, symBinAddr: 0x119F8, symSize: 0x38 }
  - { offset: 0x97314, size: 0x8, addend: 0x0, symName: '__ZN153_$LT$core..result..Result$LT$T$C$F$GT$$u20$as$u20$core..ops..try_trait..FromResidual$LT$core..result..Result$LT$core..convert..Infallible$C$E$GT$$GT$$GT$13from_residual17hbc2f7063afbf931eE', symObjAddr: 0xBAC, symBinAddr: 0x11A30, symSize: 0x44 }
  - { offset: 0x9737B, size: 0x8, addend: 0x0, symName: '__ZN153_$LT$core..result..Result$LT$T$C$F$GT$$u20$as$u20$core..ops..try_trait..FromResidual$LT$core..result..Result$LT$core..convert..Infallible$C$E$GT$$GT$$GT$13from_residual17hbedd3124a154f36dE', symObjAddr: 0xBF0, symBinAddr: 0x11A74, symSize: 0x38 }
  - { offset: 0x973E2, size: 0x8, addend: 0x0, symName: '__ZN153_$LT$core..result..Result$LT$T$C$F$GT$$u20$as$u20$core..ops..try_trait..FromResidual$LT$core..result..Result$LT$core..convert..Infallible$C$E$GT$$GT$$GT$13from_residual17hc40cb47c27badba5E', symObjAddr: 0xC28, symBinAddr: 0x11AAC, symSize: 0x48 }
  - { offset: 0x97467, size: 0x8, addend: 0x0, symName: '__ZN153_$LT$core..result..Result$LT$T$C$F$GT$$u20$as$u20$core..ops..try_trait..FromResidual$LT$core..result..Result$LT$core..convert..Infallible$C$E$GT$$GT$$GT$13from_residual17hc66f62e0427d5c90E', symObjAddr: 0xC78, symBinAddr: 0x11AF4, symSize: 0x48 }
  - { offset: 0x974EC, size: 0x8, addend: 0x0, symName: '__ZN153_$LT$core..result..Result$LT$T$C$F$GT$$u20$as$u20$core..ops..try_trait..FromResidual$LT$core..result..Result$LT$core..convert..Infallible$C$E$GT$$GT$$GT$13from_residual17hcafe45bc9c17b153E', symObjAddr: 0xCC0, symBinAddr: 0x11B3C, symSize: 0x18 }
  - { offset: 0x97553, size: 0x8, addend: 0x0, symName: '__ZN153_$LT$core..result..Result$LT$T$C$F$GT$$u20$as$u20$core..ops..try_trait..FromResidual$LT$core..result..Result$LT$core..convert..Infallible$C$E$GT$$GT$$GT$13from_residual17hcd28c8216eb72f98E', symObjAddr: 0xCD8, symBinAddr: 0x11B54, symSize: 0x4C }
  - { offset: 0x975BA, size: 0x8, addend: 0x0, symName: '__ZN153_$LT$core..result..Result$LT$T$C$F$GT$$u20$as$u20$core..ops..try_trait..FromResidual$LT$core..result..Result$LT$core..convert..Infallible$C$E$GT$$GT$$GT$13from_residual17hd91b5e007153d87cE', symObjAddr: 0xD24, symBinAddr: 0x11BA0, symSize: 0x2C }
  - { offset: 0x97621, size: 0x8, addend: 0x0, symName: '__ZN153_$LT$core..result..Result$LT$T$C$F$GT$$u20$as$u20$core..ops..try_trait..FromResidual$LT$core..result..Result$LT$core..convert..Infallible$C$E$GT$$GT$$GT$13from_residual17hdc7263fe4866515fE', symObjAddr: 0xD50, symBinAddr: 0x11BCC, symSize: 0x18 }
  - { offset: 0x97688, size: 0x8, addend: 0x0, symName: '__ZN153_$LT$core..result..Result$LT$T$C$F$GT$$u20$as$u20$core..ops..try_trait..FromResidual$LT$core..result..Result$LT$core..convert..Infallible$C$E$GT$$GT$$GT$13from_residual17he04e2efbcc5f0fedE', symObjAddr: 0xD68, symBinAddr: 0x11BE4, symSize: 0x3C }
  - { offset: 0x9770D, size: 0x8, addend: 0x0, symName: '__ZN153_$LT$core..result..Result$LT$T$C$F$GT$$u20$as$u20$core..ops..try_trait..FromResidual$LT$core..result..Result$LT$core..convert..Infallible$C$E$GT$$GT$$GT$13from_residual17he869a02fe6da6afcE', symObjAddr: 0xDA4, symBinAddr: 0x11C20, symSize: 0x48 }
  - { offset: 0x97792, size: 0x8, addend: 0x0, symName: '__ZN153_$LT$core..result..Result$LT$T$C$F$GT$$u20$as$u20$core..ops..try_trait..FromResidual$LT$core..result..Result$LT$core..convert..Infallible$C$E$GT$$GT$$GT$13from_residual17hfbed124cb1788d2cE', symObjAddr: 0xDF4, symBinAddr: 0x11C68, symSize: 0x24 }
  - { offset: 0x977F9, size: 0x8, addend: 0x0, symName: '__ZN153_$LT$core..result..Result$LT$T$C$F$GT$$u20$as$u20$core..ops..try_trait..FromResidual$LT$core..result..Result$LT$core..convert..Infallible$C$E$GT$$GT$$GT$13from_residual17hfcf3f9dcef958a28E', symObjAddr: 0xE18, symBinAddr: 0x11C8C, symSize: 0x50 }
  - { offset: 0x9B574, size: 0x8, addend: 0x0, symName: '__ZN79_$LT$core..result..Result$LT$T$C$E$GT$$u20$as$u20$core..ops..try_trait..Try$GT$11from_output17h07522a5410da335fE', symObjAddr: 0x38B8, symBinAddr: 0x1472C, symSize: 0x2C }
  - { offset: 0x9B5B4, size: 0x8, addend: 0x0, symName: '__ZN79_$LT$core..result..Result$LT$T$C$E$GT$$u20$as$u20$core..ops..try_trait..Try$GT$11from_output17h6b96bba25408df98E', symObjAddr: 0x38E4, symBinAddr: 0x14758, symSize: 0x2C }
  - { offset: 0x9B5F4, size: 0x8, addend: 0x0, symName: '__ZN79_$LT$core..result..Result$LT$T$C$E$GT$$u20$as$u20$core..ops..try_trait..Try$GT$11from_output17h9d246e22dc1a3113E', symObjAddr: 0x3910, symBinAddr: 0x14784, symSize: 0x2C }
  - { offset: 0x9B634, size: 0x8, addend: 0x0, symName: '__ZN79_$LT$core..result..Result$LT$T$C$E$GT$$u20$as$u20$core..ops..try_trait..Try$GT$6branch17h02a4e2196ddd0467E', symObjAddr: 0x393C, symBinAddr: 0x147B0, symSize: 0x80 }
  - { offset: 0x9B6B2, size: 0x8, addend: 0x0, symName: '__ZN79_$LT$core..result..Result$LT$T$C$E$GT$$u20$as$u20$core..ops..try_trait..Try$GT$6branch17h08fa63f26f01b234E', symObjAddr: 0x39BC, symBinAddr: 0x14830, symSize: 0x44 }
  - { offset: 0x9B72E, size: 0x8, addend: 0x0, symName: '__ZN79_$LT$core..result..Result$LT$T$C$E$GT$$u20$as$u20$core..ops..try_trait..Try$GT$6branch17h0d2f7e60b9e4c149E', symObjAddr: 0x3A00, symBinAddr: 0x14874, symSize: 0x98 }
  - { offset: 0x9B7AB, size: 0x8, addend: 0x0, symName: '__ZN79_$LT$core..result..Result$LT$T$C$E$GT$$u20$as$u20$core..ops..try_trait..Try$GT$6branch17h1121e66a0f789576E', symObjAddr: 0x3A98, symBinAddr: 0x1490C, symSize: 0x80 }
  - { offset: 0x9B829, size: 0x8, addend: 0x0, symName: '__ZN79_$LT$core..result..Result$LT$T$C$E$GT$$u20$as$u20$core..ops..try_trait..Try$GT$6branch17h119ab408660303b2E', symObjAddr: 0x3B18, symBinAddr: 0x1498C, symSize: 0x8C }
  - { offset: 0x9B8A7, size: 0x8, addend: 0x0, symName: '__ZN79_$LT$core..result..Result$LT$T$C$E$GT$$u20$as$u20$core..ops..try_trait..Try$GT$6branch17h16e8fe01bdab7344E', symObjAddr: 0x3BA4, symBinAddr: 0x14A18, symSize: 0x74 }
  - { offset: 0x9B925, size: 0x8, addend: 0x0, symName: '__ZN79_$LT$core..result..Result$LT$T$C$E$GT$$u20$as$u20$core..ops..try_trait..Try$GT$6branch17h1bde356db091c013E', symObjAddr: 0x3C18, symBinAddr: 0x14A8C, symSize: 0xA0 }
  - { offset: 0x9B9A2, size: 0x8, addend: 0x0, symName: '__ZN79_$LT$core..result..Result$LT$T$C$E$GT$$u20$as$u20$core..ops..try_trait..Try$GT$6branch17h1c0e0508d4d64da2E', symObjAddr: 0x3CB8, symBinAddr: 0x14B2C, symSize: 0xAC }
  - { offset: 0x9BA1F, size: 0x8, addend: 0x0, symName: '__ZN79_$LT$core..result..Result$LT$T$C$E$GT$$u20$as$u20$core..ops..try_trait..Try$GT$6branch17h21000911e2f8ab0eE', symObjAddr: 0x3D64, symBinAddr: 0x14BD8, symSize: 0x90 }
  - { offset: 0x9BA9C, size: 0x8, addend: 0x0, symName: '__ZN79_$LT$core..result..Result$LT$T$C$E$GT$$u20$as$u20$core..ops..try_trait..Try$GT$6branch17h216d1052a927e7c6E', symObjAddr: 0x3DF4, symBinAddr: 0x14C68, symSize: 0x5C }
  - { offset: 0x9BB18, size: 0x8, addend: 0x0, symName: '__ZN79_$LT$core..result..Result$LT$T$C$E$GT$$u20$as$u20$core..ops..try_trait..Try$GT$6branch17h22089d2aad8d7d4cE', symObjAddr: 0x3E50, symBinAddr: 0x14CC4, symSize: 0x68 }
  - { offset: 0x9BB95, size: 0x8, addend: 0x0, symName: '__ZN79_$LT$core..result..Result$LT$T$C$E$GT$$u20$as$u20$core..ops..try_trait..Try$GT$6branch17h2557ad64a13aec5fE', symObjAddr: 0x3EB8, symBinAddr: 0x14D2C, symSize: 0x98 }
  - { offset: 0x9BC12, size: 0x8, addend: 0x0, symName: '__ZN79_$LT$core..result..Result$LT$T$C$E$GT$$u20$as$u20$core..ops..try_trait..Try$GT$6branch17h2ecb61c59d322576E', symObjAddr: 0x3F50, symBinAddr: 0x14DC4, symSize: 0x80 }
  - { offset: 0x9BC90, size: 0x8, addend: 0x0, symName: '__ZN79_$LT$core..result..Result$LT$T$C$E$GT$$u20$as$u20$core..ops..try_trait..Try$GT$6branch17h2eeb455d5465a176E', symObjAddr: 0x3FD0, symBinAddr: 0x14E44, symSize: 0x74 }
  - { offset: 0x9BD0E, size: 0x8, addend: 0x0, symName: '__ZN79_$LT$core..result..Result$LT$T$C$E$GT$$u20$as$u20$core..ops..try_trait..Try$GT$6branch17h302fef7237c41c07E', symObjAddr: 0x4044, symBinAddr: 0x14EB8, symSize: 0x98 }
  - { offset: 0x9BD8B, size: 0x8, addend: 0x0, symName: '__ZN79_$LT$core..result..Result$LT$T$C$E$GT$$u20$as$u20$core..ops..try_trait..Try$GT$6branch17h33d00bdc4f30a90dE', symObjAddr: 0x40DC, symBinAddr: 0x14F50, symSize: 0x3C }
  - { offset: 0x9BDE9, size: 0x8, addend: 0x0, symName: '__ZN79_$LT$core..result..Result$LT$T$C$E$GT$$u20$as$u20$core..ops..try_trait..Try$GT$6branch17h3512589ecfcccdc6E', symObjAddr: 0x4118, symBinAddr: 0x14F8C, symSize: 0x88 }
  - { offset: 0x9BE67, size: 0x8, addend: 0x0, symName: '__ZN79_$LT$core..result..Result$LT$T$C$E$GT$$u20$as$u20$core..ops..try_trait..Try$GT$6branch17h36b203bc379c7b92E', symObjAddr: 0x41A0, symBinAddr: 0x15014, symSize: 0x78 }
  - { offset: 0x9BEE4, size: 0x8, addend: 0x0, symName: '__ZN79_$LT$core..result..Result$LT$T$C$E$GT$$u20$as$u20$core..ops..try_trait..Try$GT$6branch17h3edf265e0f2debe7E', symObjAddr: 0x4218, symBinAddr: 0x1508C, symSize: 0x70 }
  - { offset: 0x9BF61, size: 0x8, addend: 0x0, symName: '__ZN79_$LT$core..result..Result$LT$T$C$E$GT$$u20$as$u20$core..ops..try_trait..Try$GT$6branch17h407d2e0fe0a2498eE', symObjAddr: 0x4288, symBinAddr: 0x150FC, symSize: 0x80 }
  - { offset: 0x9BFDF, size: 0x8, addend: 0x0, symName: '__ZN79_$LT$core..result..Result$LT$T$C$E$GT$$u20$as$u20$core..ops..try_trait..Try$GT$6branch17h4673bd84ec5bda15E', symObjAddr: 0x4308, symBinAddr: 0x1517C, symSize: 0x70 }
  - { offset: 0x9C05C, size: 0x8, addend: 0x0, symName: '__ZN79_$LT$core..result..Result$LT$T$C$E$GT$$u20$as$u20$core..ops..try_trait..Try$GT$6branch17h4c0d7dd9d28cc488E', symObjAddr: 0x4378, symBinAddr: 0x151EC, symSize: 0x78 }
  - { offset: 0x9C0D9, size: 0x8, addend: 0x0, symName: '__ZN79_$LT$core..result..Result$LT$T$C$E$GT$$u20$as$u20$core..ops..try_trait..Try$GT$6branch17h4cea52f756293ba2E', symObjAddr: 0x43F0, symBinAddr: 0x15264, symSize: 0x78 }
  - { offset: 0x9C156, size: 0x8, addend: 0x0, symName: '__ZN79_$LT$core..result..Result$LT$T$C$E$GT$$u20$as$u20$core..ops..try_trait..Try$GT$6branch17h54f24b11e155eaa9E', symObjAddr: 0x4468, symBinAddr: 0x152DC, symSize: 0x3C }
  - { offset: 0x9C1B4, size: 0x8, addend: 0x0, symName: '__ZN79_$LT$core..result..Result$LT$T$C$E$GT$$u20$as$u20$core..ops..try_trait..Try$GT$6branch17h54f288499e1a8197E', symObjAddr: 0x44A4, symBinAddr: 0x15318, symSize: 0x8C }
  - { offset: 0x9C231, size: 0x8, addend: 0x0, symName: '__ZN79_$LT$core..result..Result$LT$T$C$E$GT$$u20$as$u20$core..ops..try_trait..Try$GT$6branch17h58981ffc80d1607bE', symObjAddr: 0x4530, symBinAddr: 0x153A4, symSize: 0xB0 }
  - { offset: 0x9C2AE, size: 0x8, addend: 0x0, symName: '__ZN79_$LT$core..result..Result$LT$T$C$E$GT$$u20$as$u20$core..ops..try_trait..Try$GT$6branch17h64a6876ba6067020E', symObjAddr: 0x45E0, symBinAddr: 0x15454, symSize: 0x88 }
  - { offset: 0x9C32C, size: 0x8, addend: 0x0, symName: '__ZN79_$LT$core..result..Result$LT$T$C$E$GT$$u20$as$u20$core..ops..try_trait..Try$GT$6branch17h67057894a47e3aafE', symObjAddr: 0x4668, symBinAddr: 0x154DC, symSize: 0x94 }
  - { offset: 0x9C3A9, size: 0x8, addend: 0x0, symName: '__ZN79_$LT$core..result..Result$LT$T$C$E$GT$$u20$as$u20$core..ops..try_trait..Try$GT$6branch17h680a51000bc4a242E', symObjAddr: 0x46FC, symBinAddr: 0x15570, symSize: 0x74 }
  - { offset: 0x9C426, size: 0x8, addend: 0x0, symName: '__ZN79_$LT$core..result..Result$LT$T$C$E$GT$$u20$as$u20$core..ops..try_trait..Try$GT$6branch17h686852a7962adc93E', symObjAddr: 0x4770, symBinAddr: 0x155E4, symSize: 0x80 }
  - { offset: 0x9C4A4, size: 0x8, addend: 0x0, symName: '__ZN79_$LT$core..result..Result$LT$T$C$E$GT$$u20$as$u20$core..ops..try_trait..Try$GT$6branch17h6903dd091eaab1a5E', symObjAddr: 0x47F0, symBinAddr: 0x15664, symSize: 0x84 }
  - { offset: 0x9C521, size: 0x8, addend: 0x0, symName: '__ZN79_$LT$core..result..Result$LT$T$C$E$GT$$u20$as$u20$core..ops..try_trait..Try$GT$6branch17h694a8cbebe77809aE', symObjAddr: 0x4874, symBinAddr: 0x156E8, symSize: 0xB0 }
  - { offset: 0x9C59E, size: 0x8, addend: 0x0, symName: '__ZN79_$LT$core..result..Result$LT$T$C$E$GT$$u20$as$u20$core..ops..try_trait..Try$GT$6branch17h6a22d46d9857d3b3E', symObjAddr: 0x4924, symBinAddr: 0x15798, symSize: 0x5C }
  - { offset: 0x9C61A, size: 0x8, addend: 0x0, symName: '__ZN79_$LT$core..result..Result$LT$T$C$E$GT$$u20$as$u20$core..ops..try_trait..Try$GT$6branch17h6b68f7aa601e8134E', symObjAddr: 0x4980, symBinAddr: 0x157F4, symSize: 0x98 }
  - { offset: 0x9C697, size: 0x8, addend: 0x0, symName: '__ZN79_$LT$core..result..Result$LT$T$C$E$GT$$u20$as$u20$core..ops..try_trait..Try$GT$6branch17h6c889bfb7333429aE', symObjAddr: 0x4A18, symBinAddr: 0x1588C, symSize: 0x80 }
  - { offset: 0x9C715, size: 0x8, addend: 0x0, symName: '__ZN79_$LT$core..result..Result$LT$T$C$E$GT$$u20$as$u20$core..ops..try_trait..Try$GT$6branch17h7110115d394ea716E', symObjAddr: 0x4A98, symBinAddr: 0x1590C, symSize: 0xAC }
  - { offset: 0x9C792, size: 0x8, addend: 0x0, symName: '__ZN79_$LT$core..result..Result$LT$T$C$E$GT$$u20$as$u20$core..ops..try_trait..Try$GT$6branch17h71f7721ddcaa1743E', symObjAddr: 0x4B44, symBinAddr: 0x159B8, symSize: 0xC0 }
  - { offset: 0x9C810, size: 0x8, addend: 0x0, symName: '__ZN79_$LT$core..result..Result$LT$T$C$E$GT$$u20$as$u20$core..ops..try_trait..Try$GT$6branch17h75ad7b3a0c2e796aE', symObjAddr: 0x4C04, symBinAddr: 0x15A78, symSize: 0x80 }
  - { offset: 0x9C88E, size: 0x8, addend: 0x0, symName: '__ZN79_$LT$core..result..Result$LT$T$C$E$GT$$u20$as$u20$core..ops..try_trait..Try$GT$6branch17h7cab1413c68dbbb8E', symObjAddr: 0x4C84, symBinAddr: 0x15AF8, symSize: 0x88 }
  - { offset: 0x9C90C, size: 0x8, addend: 0x0, symName: '__ZN79_$LT$core..result..Result$LT$T$C$E$GT$$u20$as$u20$core..ops..try_trait..Try$GT$6branch17h7e782ff52229c9eeE', symObjAddr: 0x4D0C, symBinAddr: 0x15B80, symSize: 0x90 }
  - { offset: 0x9C989, size: 0x8, addend: 0x0, symName: '__ZN79_$LT$core..result..Result$LT$T$C$E$GT$$u20$as$u20$core..ops..try_trait..Try$GT$6branch17h81cf28e1341536baE', symObjAddr: 0x4D9C, symBinAddr: 0x15C10, symSize: 0x80 }
  - { offset: 0x9CA07, size: 0x8, addend: 0x0, symName: '__ZN79_$LT$core..result..Result$LT$T$C$E$GT$$u20$as$u20$core..ops..try_trait..Try$GT$6branch17h82aa1c0bd0f399acE', symObjAddr: 0x4E1C, symBinAddr: 0x15C90, symSize: 0x88 }
  - { offset: 0x9CA85, size: 0x8, addend: 0x0, symName: '__ZN79_$LT$core..result..Result$LT$T$C$E$GT$$u20$as$u20$core..ops..try_trait..Try$GT$6branch17h84a270fe11bc69aaE', symObjAddr: 0x4EA4, symBinAddr: 0x15D18, symSize: 0x88 }
  - { offset: 0x9CB03, size: 0x8, addend: 0x0, symName: '__ZN79_$LT$core..result..Result$LT$T$C$E$GT$$u20$as$u20$core..ops..try_trait..Try$GT$6branch17h92bf3bfc57ea0e0fE', symObjAddr: 0x4F2C, symBinAddr: 0x15DA0, symSize: 0x80 }
  - { offset: 0x9CB81, size: 0x8, addend: 0x0, symName: '__ZN79_$LT$core..result..Result$LT$T$C$E$GT$$u20$as$u20$core..ops..try_trait..Try$GT$6branch17h979c32f3da8e2f22E', symObjAddr: 0x4FAC, symBinAddr: 0x15E20, symSize: 0x84 }
  - { offset: 0x9CBFE, size: 0x8, addend: 0x0, symName: '__ZN79_$LT$core..result..Result$LT$T$C$E$GT$$u20$as$u20$core..ops..try_trait..Try$GT$6branch17h97bc1d66e74b8ec9E', symObjAddr: 0x5030, symBinAddr: 0x15EA4, symSize: 0x9C }
  - { offset: 0x9CC7B, size: 0x8, addend: 0x0, symName: '__ZN79_$LT$core..result..Result$LT$T$C$E$GT$$u20$as$u20$core..ops..try_trait..Try$GT$6branch17h9844860b5a594985E', symObjAddr: 0x50CC, symBinAddr: 0x15F40, symSize: 0x80 }
  - { offset: 0x9CCF8, size: 0x8, addend: 0x0, symName: '__ZN79_$LT$core..result..Result$LT$T$C$E$GT$$u20$as$u20$core..ops..try_trait..Try$GT$6branch17h9c1a3fa1226a5915E', symObjAddr: 0x514C, symBinAddr: 0x15FC0, symSize: 0x64 }
  - { offset: 0x9CD75, size: 0x8, addend: 0x0, symName: '__ZN79_$LT$core..result..Result$LT$T$C$E$GT$$u20$as$u20$core..ops..try_trait..Try$GT$6branch17h9c58b455dfa2df63E', symObjAddr: 0x51B0, symBinAddr: 0x16024, symSize: 0x98 }
  - { offset: 0x9CDF2, size: 0x8, addend: 0x0, symName: '__ZN79_$LT$core..result..Result$LT$T$C$E$GT$$u20$as$u20$core..ops..try_trait..Try$GT$6branch17h9f15af35188ae4f8E', symObjAddr: 0x5248, symBinAddr: 0x160BC, symSize: 0x80 }
  - { offset: 0x9CE70, size: 0x8, addend: 0x0, symName: '__ZN79_$LT$core..result..Result$LT$T$C$E$GT$$u20$as$u20$core..ops..try_trait..Try$GT$6branch17ha3ee25ac8007c4eeE', symObjAddr: 0x52C8, symBinAddr: 0x1613C, symSize: 0x78 }
  - { offset: 0x9CEED, size: 0x8, addend: 0x0, symName: '__ZN79_$LT$core..result..Result$LT$T$C$E$GT$$u20$as$u20$core..ops..try_trait..Try$GT$6branch17ha71f43f30e57d076E', symObjAddr: 0x5340, symBinAddr: 0x161B4, symSize: 0x90 }
  - { offset: 0x9CF6B, size: 0x8, addend: 0x0, symName: '__ZN79_$LT$core..result..Result$LT$T$C$E$GT$$u20$as$u20$core..ops..try_trait..Try$GT$6branch17hab8f724a11fc7193E', symObjAddr: 0x53D0, symBinAddr: 0x16244, symSize: 0x80 }
  - { offset: 0x9CFE9, size: 0x8, addend: 0x0, symName: '__ZN79_$LT$core..result..Result$LT$T$C$E$GT$$u20$as$u20$core..ops..try_trait..Try$GT$6branch17hb516a2a2b7e3cf71E', symObjAddr: 0x5450, symBinAddr: 0x162C4, symSize: 0x64 }
  - { offset: 0x9D066, size: 0x8, addend: 0x0, symName: '__ZN79_$LT$core..result..Result$LT$T$C$E$GT$$u20$as$u20$core..ops..try_trait..Try$GT$6branch17hb91212fc275e3d08E', symObjAddr: 0x54B4, symBinAddr: 0x16328, symSize: 0x94 }
  - { offset: 0x9D0E3, size: 0x8, addend: 0x0, symName: '__ZN79_$LT$core..result..Result$LT$T$C$E$GT$$u20$as$u20$core..ops..try_trait..Try$GT$6branch17hbc4df16fce65626aE', symObjAddr: 0x5548, symBinAddr: 0x163BC, symSize: 0x6C }
  - { offset: 0x9D160, size: 0x8, addend: 0x0, symName: '__ZN79_$LT$core..result..Result$LT$T$C$E$GT$$u20$as$u20$core..ops..try_trait..Try$GT$6branch17hbdd611a1c13c141bE', symObjAddr: 0x55B4, symBinAddr: 0x16428, symSize: 0x70 }
  - { offset: 0x9D1DE, size: 0x8, addend: 0x0, symName: '__ZN79_$LT$core..result..Result$LT$T$C$E$GT$$u20$as$u20$core..ops..try_trait..Try$GT$6branch17hc0ceed87f23fc7b8E', symObjAddr: 0x5624, symBinAddr: 0x16498, symSize: 0x80 }
  - { offset: 0x9D25C, size: 0x8, addend: 0x0, symName: '__ZN79_$LT$core..result..Result$LT$T$C$E$GT$$u20$as$u20$core..ops..try_trait..Try$GT$6branch17hcc558ed79000aa12E', symObjAddr: 0x56A4, symBinAddr: 0x16518, symSize: 0xAC }
  - { offset: 0x9D2D9, size: 0x8, addend: 0x0, symName: '__ZN79_$LT$core..result..Result$LT$T$C$E$GT$$u20$as$u20$core..ops..try_trait..Try$GT$6branch17hce13ea0d4916936dE', symObjAddr: 0x5750, symBinAddr: 0x165C4, symSize: 0x78 }
  - { offset: 0x9D356, size: 0x8, addend: 0x0, symName: '__ZN79_$LT$core..result..Result$LT$T$C$E$GT$$u20$as$u20$core..ops..try_trait..Try$GT$6branch17hd7d308f248b8bc0cE', symObjAddr: 0x57C8, symBinAddr: 0x1663C, symSize: 0x80 }
  - { offset: 0x9D3D3, size: 0x8, addend: 0x0, symName: '__ZN79_$LT$core..result..Result$LT$T$C$E$GT$$u20$as$u20$core..ops..try_trait..Try$GT$6branch17hdd6a723ffd67f67fE', symObjAddr: 0x5848, symBinAddr: 0x166BC, symSize: 0x70 }
  - { offset: 0x9D450, size: 0x8, addend: 0x0, symName: '__ZN79_$LT$core..result..Result$LT$T$C$E$GT$$u20$as$u20$core..ops..try_trait..Try$GT$6branch17hdeb7c9ea8d0f05f5E', symObjAddr: 0x58B8, symBinAddr: 0x1672C, symSize: 0x80 }
  - { offset: 0x9D4CE, size: 0x8, addend: 0x0, symName: '__ZN79_$LT$core..result..Result$LT$T$C$E$GT$$u20$as$u20$core..ops..try_trait..Try$GT$6branch17he85fbb264046da39E', symObjAddr: 0x5938, symBinAddr: 0x167AC, symSize: 0x3C }
  - { offset: 0x9D52C, size: 0x8, addend: 0x0, symName: '__ZN79_$LT$core..result..Result$LT$T$C$E$GT$$u20$as$u20$core..ops..try_trait..Try$GT$6branch17heec899dcf491a390E', symObjAddr: 0x5974, symBinAddr: 0x167E8, symSize: 0x5C }
  - { offset: 0x9D5A8, size: 0x8, addend: 0x0, symName: '__ZN79_$LT$core..result..Result$LT$T$C$E$GT$$u20$as$u20$core..ops..try_trait..Try$GT$6branch17hf0d6985d6ddae61cE', symObjAddr: 0x59D0, symBinAddr: 0x16844, symSize: 0xB0 }
  - { offset: 0x9D625, size: 0x8, addend: 0x0, symName: '__ZN79_$LT$core..result..Result$LT$T$C$E$GT$$u20$as$u20$core..ops..try_trait..Try$GT$6branch17hf73a8f69d4b41e32E', symObjAddr: 0x5A80, symBinAddr: 0x168F4, symSize: 0x78 }
  - { offset: 0x9D6A2, size: 0x8, addend: 0x0, symName: '__ZN79_$LT$core..result..Result$LT$T$C$E$GT$$u20$as$u20$core..ops..try_trait..Try$GT$6branch17hf80805148b0f7fe0E', symObjAddr: 0x5AF8, symBinAddr: 0x1696C, symSize: 0x94 }
  - { offset: 0x9D71F, size: 0x8, addend: 0x0, symName: '__ZN79_$LT$core..result..Result$LT$T$C$E$GT$$u20$as$u20$core..ops..try_trait..Try$GT$6branch17hf91a797e291377fdE', symObjAddr: 0x5B8C, symBinAddr: 0x16A00, symSize: 0xB4 }
  - { offset: 0x9D79D, size: 0x8, addend: 0x0, symName: '__ZN79_$LT$core..result..Result$LT$T$C$E$GT$$u20$as$u20$core..ops..try_trait..Try$GT$6branch17hf9480fe112ca8145E', symObjAddr: 0x5C40, symBinAddr: 0x16AB4, symSize: 0x48 }
  - { offset: 0x9D819, size: 0x8, addend: 0x0, symName: '__ZN79_$LT$core..result..Result$LT$T$C$E$GT$$u20$as$u20$core..ops..try_trait..Try$GT$6branch17hfa8ec06526cabd4fE', symObjAddr: 0x5C88, symBinAddr: 0x16AFC, symSize: 0x5C }
  - { offset: 0x9D895, size: 0x8, addend: 0x0, symName: '__ZN79_$LT$core..result..Result$LT$T$C$E$GT$$u20$as$u20$core..ops..try_trait..Try$GT$6branch17hfb39ece653c79cb4E', symObjAddr: 0x5CE4, symBinAddr: 0x16B58, symSize: 0x64 }
  - { offset: 0xA567B, size: 0x8, addend: 0x0, symName: '__ZN88_$LT$core..result..Result$LT$T$C$E$GT$$u20$as$u20$pyo3..impl_..wrap..OkWrap$LT$T$GT$$GT$4wrap17h161f49808b1dac0aE', symObjAddr: 0x5D48, symBinAddr: 0x16BBC, symSize: 0x14 }
  - { offset: 0xA56B9, size: 0x8, addend: 0x0, symName: '__ZN88_$LT$core..result..Result$LT$T$C$E$GT$$u20$as$u20$pyo3..impl_..wrap..OkWrap$LT$T$GT$$GT$4wrap17h3ba9c1d6e49e93e8E', symObjAddr: 0x5D5C, symBinAddr: 0x16BD0, symSize: 0x14 }
  - { offset: 0xA56F7, size: 0x8, addend: 0x0, symName: '__ZN88_$LT$core..result..Result$LT$T$C$E$GT$$u20$as$u20$pyo3..impl_..wrap..OkWrap$LT$T$GT$$GT$4wrap17h601ffea48a2ceb7aE', symObjAddr: 0x5D70, symBinAddr: 0x16BE4, symSize: 0x14 }
  - { offset: 0xA5735, size: 0x8, addend: 0x0, symName: '__ZN88_$LT$core..result..Result$LT$T$C$E$GT$$u20$as$u20$pyo3..impl_..wrap..OkWrap$LT$T$GT$$GT$4wrap17h7781b48172c39839E', symObjAddr: 0x5D84, symBinAddr: 0x16BF8, symSize: 0x14 }
  - { offset: 0xA5773, size: 0x8, addend: 0x0, symName: '__ZN88_$LT$core..result..Result$LT$T$C$E$GT$$u20$as$u20$pyo3..impl_..wrap..OkWrap$LT$T$GT$$GT$4wrap17ha7e29e4aa2b5bdc7E', symObjAddr: 0x5D98, symBinAddr: 0x16C0C, symSize: 0x14 }
  - { offset: 0xA57B1, size: 0x8, addend: 0x0, symName: '__ZN88_$LT$core..result..Result$LT$T$C$E$GT$$u20$as$u20$pyo3..impl_..wrap..OkWrap$LT$T$GT$$GT$4wrap17habd07bb40d9dd539E', symObjAddr: 0x5DAC, symBinAddr: 0x16C20, symSize: 0x14 }
  - { offset: 0xA5939, size: 0x8, addend: 0x0, symName: '__ZN99_$LT$core..result..Result$LT$T$C$E$GT$$u20$as$u20$pyo3..callback..IntoPyCallbackOutput$LT$U$GT$$GT$7convert17h4f1da22f11afef5bE', symObjAddr: 0x5DC0, symBinAddr: 0x16C34, symSize: 0xB0 }
  - { offset: 0xA59D5, size: 0x8, addend: 0x0, symName: '__ZN99_$LT$core..result..Result$LT$T$C$E$GT$$u20$as$u20$pyo3..callback..IntoPyCallbackOutput$LT$U$GT$$GT$7convert17h5974a453f2186817E', symObjAddr: 0x5E70, symBinAddr: 0x16CE4, symSize: 0xA8 }
  - { offset: 0xA5A70, size: 0x8, addend: 0x0, symName: '__ZN99_$LT$core..result..Result$LT$T$C$E$GT$$u20$as$u20$pyo3..callback..IntoPyCallbackOutput$LT$U$GT$$GT$7convert17h6a48ebff5c83efb1E', symObjAddr: 0x5F18, symBinAddr: 0x16D8C, symSize: 0xC0 }
  - { offset: 0xA7593, size: 0x8, addend: 0x0, symName: '__ZN4core6result19Result$LT$T$C$E$GT$14unwrap_or_else17h004974524f3133c3E', symObjAddr: 0xE68, symBinAddr: 0x11CDC, symSize: 0x80 }
  - { offset: 0xA764B, size: 0x8, addend: 0x0, symName: '__ZN4core6result19Result$LT$T$C$E$GT$14unwrap_or_else17h17342fa6a792d387E', symObjAddr: 0xEE8, symBinAddr: 0x11D5C, symSize: 0x84 }
  - { offset: 0xA76D5, size: 0x8, addend: 0x0, symName: '__ZN4core6result19Result$LT$T$C$E$GT$14unwrap_or_else17h3893e9a034f0d767E', symObjAddr: 0xF6C, symBinAddr: 0x11DE0, symSize: 0x80 }
  - { offset: 0xA775F, size: 0x8, addend: 0x0, symName: '__ZN4core6result19Result$LT$T$C$E$GT$14unwrap_or_else17h6ffef1a723baa46dE', symObjAddr: 0xFEC, symBinAddr: 0x11E60, symSize: 0x80 }
  - { offset: 0xA77E9, size: 0x8, addend: 0x0, symName: '__ZN4core6result19Result$LT$T$C$E$GT$14unwrap_or_else17h7a2facdce4452fc6E', symObjAddr: 0x106C, symBinAddr: 0x11EE0, symSize: 0x80 }
  - { offset: 0xA7873, size: 0x8, addend: 0x0, symName: '__ZN4core6result19Result$LT$T$C$E$GT$17unwrap_or_default17h81ca0cac2b982fc2E', symObjAddr: 0x10EC, symBinAddr: 0x11F60, symSize: 0xB4 }
  - { offset: 0xA791C, size: 0x8, addend: 0x0, symName: '__ZN4core6result19Result$LT$T$C$E$GT$3map17h1dfdcc2b8da7740cE', symObjAddr: 0x11A0, symBinAddr: 0x12014, symSize: 0x78 }
  - { offset: 0xA79AF, size: 0x8, addend: 0x0, symName: '__ZN4core6result19Result$LT$T$C$E$GT$3map17h3dad1fadd8ae017cE', symObjAddr: 0x1218, symBinAddr: 0x1208C, symSize: 0x80 }
  - { offset: 0xA8802, size: 0x8, addend: 0x0, symName: '__ZN4core6result19Result$LT$T$C$E$GT$3map17h43d759fca850c843E', symObjAddr: 0x1298, symBinAddr: 0x1210C, symSize: 0x80 }
  - { offset: 0xA8B60, size: 0x8, addend: 0x0, symName: '__ZN4core6result19Result$LT$T$C$E$GT$3map17h48b769b6add10d40E', symObjAddr: 0x1318, symBinAddr: 0x1218C, symSize: 0x54 }
  - { offset: 0xA8BF2, size: 0x8, addend: 0x0, symName: '__ZN4core6result19Result$LT$T$C$E$GT$3map17h4e701d696a2af2e2E', symObjAddr: 0x136C, symBinAddr: 0x121E0, symSize: 0x54 }
  - { offset: 0xA8C84, size: 0x8, addend: 0x0, symName: '__ZN4core6result19Result$LT$T$C$E$GT$3map17h55431287bd1c7de1E', symObjAddr: 0x13C0, symBinAddr: 0x12234, symSize: 0x8C }
  - { offset: 0xA8D2F, size: 0x8, addend: 0x0, symName: '__ZN4core6result19Result$LT$T$C$E$GT$3map17h646e36d83cadc2ddE', symObjAddr: 0x144C, symBinAddr: 0x122C0, symSize: 0x80 }
  - { offset: 0xA8DCF, size: 0x8, addend: 0x0, symName: '__ZN4core6result19Result$LT$T$C$E$GT$3map17h67ce08a9483d9fbaE', symObjAddr: 0x14CC, symBinAddr: 0x12340, symSize: 0x54 }
  - { offset: 0xA8E61, size: 0x8, addend: 0x0, symName: '__ZN4core6result19Result$LT$T$C$E$GT$3map17h687ee3e05a6b49a7E', symObjAddr: 0x1520, symBinAddr: 0x12394, symSize: 0x80 }
  - { offset: 0xA8F12, size: 0x8, addend: 0x0, symName: '__ZN4core6result19Result$LT$T$C$E$GT$3map17h6c8eb854cd31d707E', symObjAddr: 0x15A0, symBinAddr: 0x12414, symSize: 0xA8 }
  - { offset: 0xA90B3, size: 0x8, addend: 0x0, symName: '__ZN4core6result19Result$LT$T$C$E$GT$3map17h916f3cd6c14d1f29E', symObjAddr: 0x1648, symBinAddr: 0x124BC, symSize: 0x80 }
  - { offset: 0xA9146, size: 0x8, addend: 0x0, symName: '__ZN4core6result19Result$LT$T$C$E$GT$3map17h9a9961cdf4200d2cE', symObjAddr: 0x16C8, symBinAddr: 0x1253C, symSize: 0xA8 }
  - { offset: 0xA91D9, size: 0x8, addend: 0x0, symName: '__ZN4core6result19Result$LT$T$C$E$GT$3map17ha29312c6b685e87aE', symObjAddr: 0x1770, symBinAddr: 0x125E4, symSize: 0xAC }
  - { offset: 0xA926C, size: 0x8, addend: 0x0, symName: '__ZN4core6result19Result$LT$T$C$E$GT$3map17hb38042910eba6b23E', symObjAddr: 0x181C, symBinAddr: 0x12690, symSize: 0xA8 }
  - { offset: 0xA930C, size: 0x8, addend: 0x0, symName: '__ZN4core6result19Result$LT$T$C$E$GT$3map17hb9106eb2549fc283E', symObjAddr: 0x18C4, symBinAddr: 0x12738, symSize: 0x54 }
  - { offset: 0xA93B6, size: 0x8, addend: 0x0, symName: '__ZN4core6result19Result$LT$T$C$E$GT$3map17hbdf63c41cdbbc77bE', symObjAddr: 0x1918, symBinAddr: 0x1278C, symSize: 0x80 }
  - { offset: 0xA9495, size: 0x8, addend: 0x0, symName: '__ZN4core6result19Result$LT$T$C$E$GT$3map17hd7b5d92239fc9d40E', symObjAddr: 0x1998, symBinAddr: 0x1280C, symSize: 0x84 }
  - { offset: 0xA9528, size: 0x8, addend: 0x0, symName: '__ZN4core6result19Result$LT$T$C$E$GT$3map17hd9e3fe97fd374798E', symObjAddr: 0x1A1C, symBinAddr: 0x12890, symSize: 0x98 }
  - { offset: 0xA95BB, size: 0x8, addend: 0x0, symName: '__ZN4core6result19Result$LT$T$C$E$GT$3map17he700b2db2ceefbd7E', symObjAddr: 0x1AB4, symBinAddr: 0x12928, symSize: 0xA8 }
  - { offset: 0xA965B, size: 0x8, addend: 0x0, symName: '__ZN4core6result19Result$LT$T$C$E$GT$3map17hff3378cc87a9ac65E', symObjAddr: 0x1B5C, symBinAddr: 0x129D0, symSize: 0x54 }
  - { offset: 0xA96ED, size: 0x8, addend: 0x0, symName: '__ZN4core6result19Result$LT$T$C$E$GT$6expect17h05317ce86111e071E', symObjAddr: 0x1BB0, symBinAddr: 0x12A24, symSize: 0x9C }
  - { offset: 0xA9750, size: 0x8, addend: 0x0, symName: '__ZN4core6result19Result$LT$T$C$E$GT$6expect17h19617906c451877dE', symObjAddr: 0x1C4C, symBinAddr: 0x12AC0, symSize: 0xA0 }
  - { offset: 0xA97B3, size: 0x8, addend: 0x0, symName: '__ZN4core6result19Result$LT$T$C$E$GT$6expect17h1fdf1eb6a5378c5dE', symObjAddr: 0x1CEC, symBinAddr: 0x12B60, symSize: 0xA0 }
  - { offset: 0xA9816, size: 0x8, addend: 0x0, symName: '__ZN4core6result19Result$LT$T$C$E$GT$6expect17h251611351a29bd78E', symObjAddr: 0x1D8C, symBinAddr: 0x12C00, symSize: 0xA0 }
  - { offset: 0xA9879, size: 0x8, addend: 0x0, symName: '__ZN4core6result19Result$LT$T$C$E$GT$6expect17h32115937420589d9E', symObjAddr: 0x1E2C, symBinAddr: 0x12CA0, symSize: 0xA0 }
  - { offset: 0xA98DC, size: 0x8, addend: 0x0, symName: '__ZN4core6result19Result$LT$T$C$E$GT$6expect17h3bbc6ed3c53298b1E', symObjAddr: 0x1ECC, symBinAddr: 0x12D40, symSize: 0xA0 }
  - { offset: 0xA993F, size: 0x8, addend: 0x0, symName: '__ZN4core6result19Result$LT$T$C$E$GT$6expect17h6677f624adc83ce8E', symObjAddr: 0x1F6C, symBinAddr: 0x12DE0, symSize: 0xA0 }
  - { offset: 0xA99A2, size: 0x8, addend: 0x0, symName: '__ZN4core6result19Result$LT$T$C$E$GT$6expect17h69b1125294414c68E', symObjAddr: 0x200C, symBinAddr: 0x12E80, symSize: 0xA0 }
  - { offset: 0xA9A05, size: 0x8, addend: 0x0, symName: '__ZN4core6result19Result$LT$T$C$E$GT$6expect17h75587b332082cc8dE', symObjAddr: 0x20AC, symBinAddr: 0x12F20, symSize: 0xA0 }
  - { offset: 0xA9A68, size: 0x8, addend: 0x0, symName: '__ZN4core6result19Result$LT$T$C$E$GT$6expect17h75f81fb78e6818d9E', symObjAddr: 0x214C, symBinAddr: 0x12FC0, symSize: 0xA0 }
  - { offset: 0xA9ACB, size: 0x8, addend: 0x0, symName: '__ZN4core6result19Result$LT$T$C$E$GT$6expect17h8a28ad822301ec36E', symObjAddr: 0x21EC, symBinAddr: 0x13060, symSize: 0xB8 }
  - { offset: 0xA9B2E, size: 0x8, addend: 0x0, symName: '__ZN4core6result19Result$LT$T$C$E$GT$6expect17h9341c04b809d25d9E', symObjAddr: 0x22A4, symBinAddr: 0x13118, symSize: 0x98 }
  - { offset: 0xA9B90, size: 0x8, addend: 0x0, symName: '__ZN4core6result19Result$LT$T$C$E$GT$6expect17h95c00a3261b6f97bE', symObjAddr: 0x233C, symBinAddr: 0x131B0, symSize: 0xA0 }
  - { offset: 0xA9BF3, size: 0x8, addend: 0x0, symName: '__ZN4core6result19Result$LT$T$C$E$GT$6expect17h9734a59a0c562ffcE', symObjAddr: 0x23DC, symBinAddr: 0x13250, symSize: 0x9C }
  - { offset: 0xA9C56, size: 0x8, addend: 0x0, symName: '__ZN4core6result19Result$LT$T$C$E$GT$6expect17h9f303ed40766407dE', symObjAddr: 0x2478, symBinAddr: 0x132EC, symSize: 0xA0 }
  - { offset: 0xA9CB9, size: 0x8, addend: 0x0, symName: '__ZN4core6result19Result$LT$T$C$E$GT$6expect17hc02979c8b4e5184eE', symObjAddr: 0x2518, symBinAddr: 0x1338C, symSize: 0xA0 }
  - { offset: 0xA9D1C, size: 0x8, addend: 0x0, symName: '__ZN4core6result19Result$LT$T$C$E$GT$6expect17hc549e699b6f4f2a0E', symObjAddr: 0x25B8, symBinAddr: 0x1342C, symSize: 0x8C }
  - { offset: 0xA9DB0, size: 0x8, addend: 0x0, symName: '__ZN4core6result19Result$LT$T$C$E$GT$6is_err17h15695ed7f977782aE', symObjAddr: 0x2644, symBinAddr: 0x134B8, symSize: 0x20 }
  - { offset: 0xA9E35, size: 0x8, addend: 0x0, symName: '__ZN4core6result19Result$LT$T$C$E$GT$6is_err17h265c4ab625ac0096E', symObjAddr: 0x2664, symBinAddr: 0x134D8, symSize: 0x2C }
  - { offset: 0xA9EA0, size: 0x8, addend: 0x0, symName: '__ZN4core6result19Result$LT$T$C$E$GT$7map_err17h0d752e68cf2e80efE', symObjAddr: 0x2690, symBinAddr: 0x13504, symSize: 0x9C }
  - { offset: 0xA9F33, size: 0x8, addend: 0x0, symName: '__ZN4core6result19Result$LT$T$C$E$GT$7map_err17h1d3d5c6c97878555E', symObjAddr: 0x272C, symBinAddr: 0x135A0, symSize: 0x9C }
  - { offset: 0xA9FF1, size: 0x8, addend: 0x0, symName: '__ZN4core6result19Result$LT$T$C$E$GT$7map_err17h1e8e2214de94b950E', symObjAddr: 0x27C8, symBinAddr: 0x1363C, symSize: 0x9C }
  - { offset: 0xAA15B, size: 0x8, addend: 0x0, symName: '__ZN4core6result19Result$LT$T$C$E$GT$7map_err17h1f6cca149ea8eaa4E', symObjAddr: 0x2864, symBinAddr: 0x136D8, symSize: 0x98 }
  - { offset: 0xAA1EE, size: 0x8, addend: 0x0, symName: '__ZN4core6result19Result$LT$T$C$E$GT$7map_err17h2cb23964c2572e9bE', symObjAddr: 0x28FC, symBinAddr: 0x13770, symSize: 0x9C }
  - { offset: 0xAA281, size: 0x8, addend: 0x0, symName: '__ZN4core6result19Result$LT$T$C$E$GT$7map_err17h2d29a23ed2d59a4dE', symObjAddr: 0x2998, symBinAddr: 0x1380C, symSize: 0xB8 }
  - { offset: 0xAA32C, size: 0x8, addend: 0x0, symName: '__ZN4core6result19Result$LT$T$C$E$GT$7map_err17h3530f75f821bc7edE', symObjAddr: 0x2A50, symBinAddr: 0x138C4, symSize: 0x90 }
  - { offset: 0xAA3D7, size: 0x8, addend: 0x0, symName: '__ZN4core6result19Result$LT$T$C$E$GT$7map_err17h36dbb7cfd34cdc8fE', symObjAddr: 0x2AE0, symBinAddr: 0x13954, symSize: 0x78 }
  - { offset: 0xAA469, size: 0x8, addend: 0x0, symName: '__ZN4core6result19Result$LT$T$C$E$GT$7map_err17h391dd723a1b74b28E', symObjAddr: 0x2B58, symBinAddr: 0x139CC, symSize: 0xB4 }
  - { offset: 0xAA4FC, size: 0x8, addend: 0x0, symName: '__ZN4core6result19Result$LT$T$C$E$GT$7map_err17h40f023cd1558b75aE', symObjAddr: 0x2C0C, symBinAddr: 0x13A80, symSize: 0x78 }
  - { offset: 0xAA644, size: 0x8, addend: 0x0, symName: '__ZN4core6result19Result$LT$T$C$E$GT$7map_err17h4e21d3cdc90937e2E', symObjAddr: 0x2C84, symBinAddr: 0x13AF8, symSize: 0x74 }
  - { offset: 0xAA6EE, size: 0x8, addend: 0x0, symName: '__ZN4core6result19Result$LT$T$C$E$GT$7map_err17h57050f66d287265aE', symObjAddr: 0x2CF8, symBinAddr: 0x13B6C, symSize: 0xB0 }
  - { offset: 0xAA799, size: 0x8, addend: 0x0, symName: '__ZN4core6result19Result$LT$T$C$E$GT$7map_err17h5a696546864f9938E', symObjAddr: 0x2DA8, symBinAddr: 0x13C1C, symSize: 0x30 }
  - { offset: 0xAA825, size: 0x8, addend: 0x0, symName: '__ZN4core6result19Result$LT$T$C$E$GT$7map_err17h6c46c0ea3602dac2E', symObjAddr: 0x2DD8, symBinAddr: 0x13C4C, symSize: 0xC4 }
  - { offset: 0xAA8B9, size: 0x8, addend: 0x0, symName: '__ZN4core6result19Result$LT$T$C$E$GT$7map_err17h6f396c6c6d1610ebE', symObjAddr: 0x2E9C, symBinAddr: 0x13D10, symSize: 0x3C }
  - { offset: 0xAA93A, size: 0x8, addend: 0x0, symName: '__ZN4core6result19Result$LT$T$C$E$GT$7map_err17h764dc45ad3faad56E', symObjAddr: 0x2ED8, symBinAddr: 0x13D4C, symSize: 0x80 }
  - { offset: 0xAA9CC, size: 0x8, addend: 0x0, symName: '__ZN4core6result19Result$LT$T$C$E$GT$7map_err17h79fd0555bd885c5aE', symObjAddr: 0x2F58, symBinAddr: 0x13DCC, symSize: 0x20 }
  - { offset: 0xAAA40, size: 0x8, addend: 0x0, symName: '__ZN4core6result19Result$LT$T$C$E$GT$7map_err17h7ba4ba004b864ee0E', symObjAddr: 0x2F78, symBinAddr: 0x13DEC, symSize: 0xBC }
  - { offset: 0xAAAD4, size: 0x8, addend: 0x0, symName: '__ZN4core6result19Result$LT$T$C$E$GT$7map_err17h7ed0d179b1545165E', symObjAddr: 0x3034, symBinAddr: 0x13EA8, symSize: 0xB4 }
  - { offset: 0xAAB67, size: 0x8, addend: 0x0, symName: '__ZN4core6result19Result$LT$T$C$E$GT$7map_err17h8f85960c65a404c2E', symObjAddr: 0x30E8, symBinAddr: 0x13F5C, symSize: 0xB4 }
  - { offset: 0xAABFA, size: 0x8, addend: 0x0, symName: '__ZN4core6result19Result$LT$T$C$E$GT$7map_err17hb9239164875e75f9E', symObjAddr: 0x319C, symBinAddr: 0x14010, symSize: 0x78 }
  - { offset: 0xAAC8C, size: 0x8, addend: 0x0, symName: '__ZN4core6result19Result$LT$T$C$E$GT$7map_err17hbecd3a99f31363d8E', symObjAddr: 0x3214, symBinAddr: 0x14088, symSize: 0xBC }
  - { offset: 0xAAD20, size: 0x8, addend: 0x0, symName: '__ZN4core6result19Result$LT$T$C$E$GT$7map_err17hc66d89b4e3080a6aE', symObjAddr: 0x32D0, symBinAddr: 0x14144, symSize: 0x48 }
  - { offset: 0xAAD96, size: 0x8, addend: 0x0, symName: '__ZN4core6result19Result$LT$T$C$E$GT$7map_err17hc75322f0d3943d53E', symObjAddr: 0x3318, symBinAddr: 0x1418C, symSize: 0x9C }
  - { offset: 0xAAE29, size: 0x8, addend: 0x0, symName: '__ZN4core6result19Result$LT$T$C$E$GT$7map_err17hc9649227871ab048E', symObjAddr: 0x33B4, symBinAddr: 0x14228, symSize: 0x78 }
  - { offset: 0xAAED3, size: 0x8, addend: 0x0, symName: '__ZN4core6result19Result$LT$T$C$E$GT$7map_err17hc99685090efd2e6eE', symObjAddr: 0x342C, symBinAddr: 0x142A0, symSize: 0x78 }
  - { offset: 0xAAF65, size: 0x8, addend: 0x0, symName: '__ZN4core6result19Result$LT$T$C$E$GT$7map_err17hcdef3bf5c1671afaE', symObjAddr: 0x34A4, symBinAddr: 0x14318, symSize: 0x8C }
  - { offset: 0xAAFF8, size: 0x8, addend: 0x0, symName: '__ZN4core6result19Result$LT$T$C$E$GT$7map_err17hd4dd8596a39d4d5bE', symObjAddr: 0x3530, symBinAddr: 0x143A4, symSize: 0x90 }
  - { offset: 0xAB08B, size: 0x8, addend: 0x0, symName: '__ZN4core6result19Result$LT$T$C$E$GT$7map_err17hd6f64ff3961ce85dE', symObjAddr: 0x35C0, symBinAddr: 0x14434, symSize: 0x9C }
  - { offset: 0xAB11E, size: 0x8, addend: 0x0, symName: '__ZN4core6result19Result$LT$T$C$E$GT$7map_err17hda03f7ad29856d7fE', symObjAddr: 0x365C, symBinAddr: 0x144D0, symSize: 0x9C }
  - { offset: 0xAB1B1, size: 0x8, addend: 0x0, symName: '__ZN4core6result19Result$LT$T$C$E$GT$7map_err17hdc3ad2fc0b5e12f8E', symObjAddr: 0x36F8, symBinAddr: 0x1456C, symSize: 0xB4 }
  - { offset: 0xAB244, size: 0x8, addend: 0x0, symName: '__ZN4core6result19Result$LT$T$C$E$GT$7map_err17hff7da4d736eb0c9fE', symObjAddr: 0x37AC, symBinAddr: 0x14620, symSize: 0x9C }
  - { offset: 0xAB2D7, size: 0x8, addend: 0x0, symName: '__ZN4core6result19Result$LT$T$C$E$GT$9unwrap_or17h3fbf07ff635a4f4bE', symObjAddr: 0x3848, symBinAddr: 0x146BC, symSize: 0x70 }
  - { offset: 0xAB4DC, size: 0x8, addend: 0x0, symName: '__ZN110_$LT$core..iter..adapters..enumerate..Enumerate$LT$I$GT$$u20$as$u20$core..iter..traits..iterator..Iterator$GT$4next17h58d12c2136cc44a9E', symObjAddr: 0x0, symBinAddr: 0x16E4C, symSize: 0xE0 }
  - { offset: 0xACBB5, size: 0x8, addend: 0x0, symName: '__ZN110_$LT$core..iter..adapters..enumerate..Enumerate$LT$I$GT$$u20$as$u20$core..iter..traits..iterator..Iterator$GT$4next17h58d12c2136cc44a9E', symObjAddr: 0x0, symBinAddr: 0x16E4C, symSize: 0xE0 }
  - { offset: 0xACC97, size: 0x8, addend: 0x0, symName: '__ZN110_$LT$core..iter..adapters..enumerate..Enumerate$LT$I$GT$$u20$as$u20$core..iter..traits..iterator..Iterator$GT$4next17h65590f553f67d99cE', symObjAddr: 0xE0, symBinAddr: 0x16F2C, symSize: 0xE0 }
  - { offset: 0xACD79, size: 0x8, addend: 0x0, symName: '__ZN110_$LT$core..iter..adapters..enumerate..Enumerate$LT$I$GT$$u20$as$u20$core..iter..traits..iterator..Iterator$GT$4next17hea9b14e83fb69a29E', symObjAddr: 0x1C0, symBinAddr: 0x1700C, symSize: 0xE0 }
  - { offset: 0xACF1B, size: 0x8, addend: 0x0, symName: '__ZN63_$LT$I$u20$as$u20$core..iter..traits..collect..IntoIterator$GT$9into_iter17h45057084b0abe683E', symObjAddr: 0x2A0, symBinAddr: 0x170EC, symSize: 0x30 }
  - { offset: 0xACF53, size: 0x8, addend: 0x0, symName: '__ZN63_$LT$I$u20$as$u20$core..iter..traits..collect..IntoIterator$GT$9into_iter17h8308c47716f4424dE', symObjAddr: 0x2D0, symBinAddr: 0x1711C, symSize: 0x18 }
  - { offset: 0xACF8A, size: 0x8, addend: 0x0, symName: '__ZN63_$LT$I$u20$as$u20$core..iter..traits..collect..IntoIterator$GT$9into_iter17hf43c745c6ba6ae36E', symObjAddr: 0x2E8, symBinAddr: 0x17134, symSize: 0x18 }
  - { offset: 0xAD79B, size: 0x8, addend: 0x0, symName: __ZN4core5slice3raw14from_raw_parts17ha6666b36290616eaE, symObjAddr: 0x0, symBinAddr: 0x1714C, symSize: 0x58 }
  - { offset: 0xADF78, size: 0x8, addend: 0x0, symName: __ZN4core5slice3raw14from_raw_parts17ha6666b36290616eaE, symObjAddr: 0x0, symBinAddr: 0x1714C, symSize: 0x58 }
  - { offset: 0xADFBB, size: 0x8, addend: 0x0, symName: __ZN4core5slice3raw14from_raw_parts17hb819e0ea245778b9E, symObjAddr: 0x58, symBinAddr: 0x171A4, symSize: 0x58 }
  - { offset: 0xAF00F, size: 0x8, addend: 0x0, symName: '__ZN9hashbrown11rustc_entry62_$LT$impl$u20$hashbrown..map..HashMap$LT$K$C$V$C$S$C$A$GT$$GT$11rustc_entry17h746afad983f28c5fE', symObjAddr: 0x0, symBinAddr: 0x171FC, symSize: 0x11C }
  - { offset: 0xAF1A3, size: 0x8, addend: 0x0, symName: '__ZN9hashbrown3map11make_hasher28_$u7b$$u7b$closure$u7d$$u7d$17h3f37aa3873e28a9aE', symObjAddr: 0x11C, symBinAddr: 0x17318, symSize: 0x3C }
  - { offset: 0xAF225, size: 0x8, addend: 0x0, symName: '__ZN9hashbrown3map14equivalent_key28_$u7b$$u7b$closure$u7d$$u7d$17h383de6431d72a10eE', symObjAddr: 0x158, symBinAddr: 0x17354, symSize: 0x30 }
  - { offset: 0xAFA3B, size: 0x8, addend: 0x0, symName: '__ZN9hashbrown11rustc_entry62_$LT$impl$u20$hashbrown..map..HashMap$LT$K$C$V$C$S$C$A$GT$$GT$11rustc_entry17h746afad983f28c5fE', symObjAddr: 0x0, symBinAddr: 0x171FC, symSize: 0x11C }
  - { offset: 0xAFC38, size: 0x8, addend: 0x0, symName: '__ZN9hashbrown3map28HashMap$LT$K$C$V$C$S$C$A$GT$9get_inner17h5c3b9fe948dba2d5E', symObjAddr: 0x188, symBinAddr: 0x17384, symSize: 0xFC }
  - { offset: 0xAFDEB, size: 0x8, addend: 0x0, symName: '__ZN4core3ops8function5impls79_$LT$impl$u20$core..ops..function..FnMut$LT$A$GT$$u20$for$u20$$RF$mut$u20$F$GT$8call_mut17h13a0411522ab1471E', symObjAddr: 0x0, symBinAddr: 0x17480, symSize: 0x30 }
  - { offset: 0xAFE11, size: 0x8, addend: 0x0, symName: '__ZN4core3ops8function5impls79_$LT$impl$u20$core..ops..function..FnMut$LT$A$GT$$u20$for$u20$$RF$mut$u20$F$GT$8call_mut17h13a0411522ab1471E', symObjAddr: 0x0, symBinAddr: 0x17480, symSize: 0x30 }
  - { offset: 0xB00A1, size: 0x8, addend: 0x0, symName: '__ZN4_sys5cache8registry16SnapshotRegistry8register28_$u7b$$u7b$closure$u7d$$u7d$17h0a99d6cd8cfcb91cE', symObjAddr: 0x30, symBinAddr: 0x174B0, symSize: 0x6C }
  - { offset: 0xB00D9, size: 0x8, addend: 0x0, symName: '__ZN4_sys5cache8registry16SnapshotRegistry8register28_$u7b$$u7b$closure$u7d$$u7d$17hca9518816b72c0f6E', symObjAddr: 0x9C, symBinAddr: 0x1751C, symSize: 0xA8 }
  - { offset: 0xB010D, size: 0x8, addend: 0x0, symName: '__ZN4_sys5cache8registry16SnapshotRegistry13all_for_layer28_$u7b$$u7b$closure$u7d$$u7d$17h908933cb93674267E', symObjAddr: 0x144, symBinAddr: 0x175C4, symSize: 0xBC }
  - { offset: 0xB014F, size: 0x8, addend: 0x0, symName: '__ZN4_sys5cache8registry16SnapshotRegistry13all_for_layer28_$u7b$$u7b$closure$u7d$$u7d$28_$u7b$$u7b$closure$u7d$$u7d$17h3955cd89e29f1258E', symObjAddr: 0x200, symBinAddr: 0x17680, symSize: 0x48 }
  - { offset: 0xB0191, size: 0x8, addend: 0x0, symName: '__ZN4_sys5cache8registry16SnapshotRegistry13all_for_layer28_$u7b$$u7b$closure$u7d$$u7d$28_$u7b$$u7b$closure$u7d$$u7d$28_$u7b$$u7b$closure$u7d$$u7d$17hf5944df1a62aa9adE', symObjAddr: 0x248, symBinAddr: 0x176C8, symSize: 0x6C }
  - { offset: 0xB01EA, size: 0x8, addend: 0x0, symName: '__ZN4_sys5cache8registry16SnapshotRegistry6remove28_$u7b$$u7b$closure$u7d$$u7d$17h69368b8288deac95E', symObjAddr: 0x2B4, symBinAddr: 0x17734, symSize: 0x34 }
  - { offset: 0xB09A1, size: 0x8, addend: 0x0, symName: '__ZN5tokio7runtime4task4list19OwnedTasks$LT$S$GT$10bind_inner17h7699853f28c819ccE', symObjAddr: 0x0, symBinAddr: 0x17768, symSize: 0x1A0 }
  - { offset: 0xB5FEA, size: 0x8, addend: 0x0, symName: '__ZN5tokio7runtime4task4list19OwnedTasks$LT$S$GT$10bind_inner17h7699853f28c819ccE', symObjAddr: 0x0, symBinAddr: 0x17768, symSize: 0x1A0 }
  - { offset: 0xB6094, size: 0x8, addend: 0x0, symName: '__ZN5tokio7runtime4task4list19OwnedTasks$LT$S$GT$10bind_inner17h94c1f640e7c23bc5E', symObjAddr: 0x1A0, symBinAddr: 0x17908, symSize: 0x1A0 }
  - { offset: 0xB60F0, size: 0x8, addend: 0x0, symName: '__ZN5tokio7runtime4task4list19OwnedTasks$LT$S$GT$12assert_owner17hb8f34c417aa2ee94E', symObjAddr: 0x340, symBinAddr: 0x17AA8, symSize: 0xE4 }
  - { offset: 0xB6695, size: 0x8, addend: 0x0, symName: '__ZN5tokio7runtime4task4list19OwnedTasks$LT$S$GT$4bind17h16104d61a862eb23E', symObjAddr: 0x424, symBinAddr: 0x17B8C, symSize: 0x108 }
  - { offset: 0xB677A, size: 0x8, addend: 0x0, symName: '__ZN5tokio7runtime4task4list19OwnedTasks$LT$S$GT$4bind17h1ac3512c9e117c7aE', symObjAddr: 0x52C, symBinAddr: 0x17C94, symSize: 0x108 }
  - { offset: 0xB6841, size: 0x8, addend: 0x0, symName: '__ZN5tokio7runtime4task4list19OwnedTasks$LT$S$GT$4bind17ha71cfb10ef7e19abE', symObjAddr: 0x634, symBinAddr: 0x17D9C, symSize: 0x100 }
  - { offset: 0xB6909, size: 0x8, addend: 0x0, symName: '__ZN5tokio7runtime4task4list19OwnedTasks$LT$S$GT$4bind17hed7b7e7a1f12adb8E', symObjAddr: 0x734, symBinAddr: 0x17E9C, symSize: 0x100 }
  - { offset: 0xB6AA0, size: 0x8, addend: 0x0, symName: '__ZN52_$LT$Q$u20$as$u20$hashbrown..Equivalent$LT$K$GT$$GT$10equivalent17h40dc4c349c97918eE', symObjAddr: 0x0, symBinAddr: 0x17F9C, symSize: 0x50 }
  - { offset: 0xB6B33, size: 0x8, addend: 0x0, symName: '__ZN52_$LT$Q$u20$as$u20$hashbrown..Equivalent$LT$K$GT$$GT$10equivalent17h40dc4c349c97918eE', symObjAddr: 0x0, symBinAddr: 0x17F9C, symSize: 0x50 }
  - { offset: 0xB6BC4, size: 0x8, addend: 0x0, symName: '__ZN5alloc5boxed12Box$LT$T$GT$8from_raw17h02b54a9d19a17654E', symObjAddr: 0x0, symBinAddr: 0x17FEC, symSize: 0x3C }
  - { offset: 0xC291E, size: 0x8, addend: 0x0, symName: '__ZN5alloc5boxed16Box$LT$T$C$A$GT$8into_raw17h05de3a79c416ffc1E', symObjAddr: 0x4B0, symBinAddr: 0x1849C, symSize: 0x14 }
  - { offset: 0xC295E, size: 0x8, addend: 0x0, symName: '__ZN5alloc5boxed16Box$LT$T$C$A$GT$8into_raw17h09845fee65481c22E', symObjAddr: 0x4C4, symBinAddr: 0x184B0, symSize: 0x14 }
  - { offset: 0xC299E, size: 0x8, addend: 0x0, symName: '__ZN5alloc5boxed16Box$LT$T$C$A$GT$8into_raw17h16f1fbfe8d1fbafcE', symObjAddr: 0x4D8, symBinAddr: 0x184C4, symSize: 0x14 }
  - { offset: 0xC29DE, size: 0x8, addend: 0x0, symName: '__ZN5alloc5boxed16Box$LT$T$C$A$GT$8into_raw17h1a294b8abe228fc7E', symObjAddr: 0x4EC, symBinAddr: 0x184D8, symSize: 0x14 }
  - { offset: 0xC2A1E, size: 0x8, addend: 0x0, symName: '__ZN5alloc5boxed16Box$LT$T$C$A$GT$8into_raw17h1b1df1eeec99aaedE', symObjAddr: 0x500, symBinAddr: 0x184EC, symSize: 0x14 }
  - { offset: 0xC2A5E, size: 0x8, addend: 0x0, symName: '__ZN5alloc5boxed16Box$LT$T$C$A$GT$8into_raw17h250ad023081b67deE', symObjAddr: 0x514, symBinAddr: 0x18500, symSize: 0x14 }
  - { offset: 0xC2A9E, size: 0x8, addend: 0x0, symName: '__ZN5alloc5boxed16Box$LT$T$C$A$GT$8into_raw17h463c0e4ddcee227aE', symObjAddr: 0x528, symBinAddr: 0x18514, symSize: 0x14 }
  - { offset: 0xC2ADE, size: 0x8, addend: 0x0, symName: '__ZN5alloc5boxed16Box$LT$T$C$A$GT$8into_raw17h530f13848de3f8d8E', symObjAddr: 0x53C, symBinAddr: 0x18528, symSize: 0x14 }
  - { offset: 0xC2B1E, size: 0x8, addend: 0x0, symName: '__ZN5alloc5boxed16Box$LT$T$C$A$GT$8into_raw17h55d12fbd8c9a027cE', symObjAddr: 0x550, symBinAddr: 0x1853C, symSize: 0x14 }
  - { offset: 0xC2B5E, size: 0x8, addend: 0x0, symName: '__ZN5alloc5boxed16Box$LT$T$C$A$GT$8into_raw17h66f82b6019d8a63dE', symObjAddr: 0x564, symBinAddr: 0x18550, symSize: 0x14 }
  - { offset: 0xC2B9E, size: 0x8, addend: 0x0, symName: '__ZN5alloc5boxed16Box$LT$T$C$A$GT$8into_raw17h7d005797c0d09a2fE', symObjAddr: 0x578, symBinAddr: 0x18564, symSize: 0x14 }
  - { offset: 0xC2BDE, size: 0x8, addend: 0x0, symName: '__ZN5alloc5boxed16Box$LT$T$C$A$GT$8into_raw17h84226baf569caa43E', symObjAddr: 0x58C, symBinAddr: 0x18578, symSize: 0x14 }
  - { offset: 0xC2C1E, size: 0x8, addend: 0x0, symName: '__ZN5alloc5boxed16Box$LT$T$C$A$GT$8into_raw17h8c76295296b4a9dcE', symObjAddr: 0x5A0, symBinAddr: 0x1858C, symSize: 0x14 }
  - { offset: 0xC2C5E, size: 0x8, addend: 0x0, symName: '__ZN5alloc5boxed16Box$LT$T$C$A$GT$8into_raw17h8d97def5165feba3E', symObjAddr: 0x5B4, symBinAddr: 0x185A0, symSize: 0x14 }
  - { offset: 0xC2C9E, size: 0x8, addend: 0x0, symName: '__ZN5alloc5boxed16Box$LT$T$C$A$GT$8into_raw17ha966f79ba2ae4b18E', symObjAddr: 0x5C8, symBinAddr: 0x185B4, symSize: 0x14 }
  - { offset: 0xC2CDE, size: 0x8, addend: 0x0, symName: '__ZN5alloc5boxed16Box$LT$T$C$A$GT$8into_raw17hc0ab74b2cd815a12E', symObjAddr: 0x5DC, symBinAddr: 0x185C8, symSize: 0x14 }
  - { offset: 0xC2D1E, size: 0x8, addend: 0x0, symName: '__ZN5alloc5boxed16Box$LT$T$C$A$GT$8into_raw17hc739348741119320E', symObjAddr: 0x5F0, symBinAddr: 0x185DC, symSize: 0x14 }
  - { offset: 0xC2D5E, size: 0x8, addend: 0x0, symName: '__ZN5alloc5boxed16Box$LT$T$C$A$GT$8into_raw17hda6da0b3cc2d7e4fE', symObjAddr: 0x604, symBinAddr: 0x185F0, symSize: 0x14 }
  - { offset: 0xC2D9E, size: 0x8, addend: 0x0, symName: '__ZN5alloc5boxed16Box$LT$T$C$A$GT$8into_raw17he13dae50032abe7aE', symObjAddr: 0x618, symBinAddr: 0x18604, symSize: 0x14 }
  - { offset: 0xC2DDE, size: 0x8, addend: 0x0, symName: '__ZN5alloc5boxed16Box$LT$T$C$A$GT$8into_raw17he81e858562b43f90E', symObjAddr: 0x62C, symBinAddr: 0x18618, symSize: 0x14 }
  - { offset: 0xC2E24, size: 0x8, addend: 0x0, symName: '__ZN5alloc5boxed12Box$LT$T$GT$8from_raw17h02b54a9d19a17654E', symObjAddr: 0x0, symBinAddr: 0x17FEC, symSize: 0x3C }
  - { offset: 0xC2EBC, size: 0x8, addend: 0x0, symName: '__ZN5alloc5boxed12Box$LT$T$GT$8from_raw17h0bb7780da8663676E', symObjAddr: 0x3C, symBinAddr: 0x18028, symSize: 0x3C }
  - { offset: 0xC2F54, size: 0x8, addend: 0x0, symName: '__ZN5alloc5boxed12Box$LT$T$GT$8from_raw17h11518c008bcdaaa1E', symObjAddr: 0x78, symBinAddr: 0x18064, symSize: 0x3C }
  - { offset: 0xC2FEC, size: 0x8, addend: 0x0, symName: '__ZN5alloc5boxed12Box$LT$T$GT$8from_raw17h1cd8768175f3a577E', symObjAddr: 0xB4, symBinAddr: 0x180A0, symSize: 0x3C }
  - { offset: 0xC3084, size: 0x8, addend: 0x0, symName: '__ZN5alloc5boxed12Box$LT$T$GT$8from_raw17h28a4369d497d1860E', symObjAddr: 0xF0, symBinAddr: 0x180DC, symSize: 0x3C }
  - { offset: 0xC311C, size: 0x8, addend: 0x0, symName: '__ZN5alloc5boxed12Box$LT$T$GT$8from_raw17h8326a01bdb6aa540E', symObjAddr: 0x12C, symBinAddr: 0x18118, symSize: 0x3C }
  - { offset: 0xC31B4, size: 0x8, addend: 0x0, symName: '__ZN5alloc5boxed12Box$LT$T$GT$8from_raw17h8486047340596bbfE', symObjAddr: 0x168, symBinAddr: 0x18154, symSize: 0x3C }
  - { offset: 0xC324C, size: 0x8, addend: 0x0, symName: '__ZN5alloc5boxed12Box$LT$T$GT$8from_raw17h8f5e6458f900030bE', symObjAddr: 0x1A4, symBinAddr: 0x18190, symSize: 0x3C }
  - { offset: 0xC32E4, size: 0x8, addend: 0x0, symName: '__ZN5alloc5boxed12Box$LT$T$GT$8from_raw17ha0a57bdd4228aff3E', symObjAddr: 0x1E0, symBinAddr: 0x181CC, symSize: 0x3C }
  - { offset: 0xC337C, size: 0x8, addend: 0x0, symName: '__ZN5alloc5boxed12Box$LT$T$GT$8from_raw17ha97fb6f506e35be5E', symObjAddr: 0x21C, symBinAddr: 0x18208, symSize: 0x3C }
  - { offset: 0xC3414, size: 0x8, addend: 0x0, symName: '__ZN5alloc5boxed12Box$LT$T$GT$8from_raw17hadae113c73e87508E', symObjAddr: 0x258, symBinAddr: 0x18244, symSize: 0x3C }
  - { offset: 0xC34AC, size: 0x8, addend: 0x0, symName: '__ZN5alloc5boxed12Box$LT$T$GT$8from_raw17hb33364cdf2a63676E', symObjAddr: 0x294, symBinAddr: 0x18280, symSize: 0x3C }
  - { offset: 0xC3544, size: 0x8, addend: 0x0, symName: '__ZN5alloc5boxed12Box$LT$T$GT$8from_raw17hb3b9c9b5d23c374aE', symObjAddr: 0x2D0, symBinAddr: 0x182BC, symSize: 0x3C }
  - { offset: 0xC35DC, size: 0x8, addend: 0x0, symName: '__ZN5alloc5boxed12Box$LT$T$GT$8from_raw17hca668669d594a7f8E', symObjAddr: 0x30C, symBinAddr: 0x182F8, symSize: 0x3C }
  - { offset: 0xC3674, size: 0x8, addend: 0x0, symName: '__ZN5alloc5boxed12Box$LT$T$GT$8from_raw17hd256716b45efbb3dE', symObjAddr: 0x348, symBinAddr: 0x18334, symSize: 0x3C }
  - { offset: 0xC370C, size: 0x8, addend: 0x0, symName: '__ZN5alloc5boxed12Box$LT$T$GT$8from_raw17hd9051a5d3d368410E', symObjAddr: 0x384, symBinAddr: 0x18370, symSize: 0x3C }
  - { offset: 0xC37A4, size: 0x8, addend: 0x0, symName: '__ZN5alloc5boxed12Box$LT$T$GT$8from_raw17hddc51306a356f869E', symObjAddr: 0x3C0, symBinAddr: 0x183AC, symSize: 0x3C }
  - { offset: 0xC383C, size: 0x8, addend: 0x0, symName: '__ZN5alloc5boxed12Box$LT$T$GT$8from_raw17he60385d63c6afb57E', symObjAddr: 0x3FC, symBinAddr: 0x183E8, symSize: 0x3C }
  - { offset: 0xC38D4, size: 0x8, addend: 0x0, symName: '__ZN5alloc5boxed12Box$LT$T$GT$8from_raw17hf203853b5058932dE', symObjAddr: 0x438, symBinAddr: 0x18424, symSize: 0x3C }
  - { offset: 0xC396C, size: 0x8, addend: 0x0, symName: '__ZN5alloc5boxed12Box$LT$T$GT$8from_raw17hf587a77c240fd79cE', symObjAddr: 0x474, symBinAddr: 0x18460, symSize: 0x3C }
  - { offset: 0xC3A0A, size: 0x8, addend: 0x0, symName: '__ZN5alloc5boxed22Box$LT$$u5b$T$u5d$$GT$16new_uninit_slice17h70c822263d28d84aE', symObjAddr: 0x640, symBinAddr: 0x1862C, symSize: 0x84 }
  - { offset: 0xC3AA5, size: 0x8, addend: 0x0, symName: '__ZN5alloc5boxed4iter117_$LT$impl$u20$core..iter..traits..collect..FromIterator$LT$I$GT$$u20$for$u20$alloc..boxed..Box$LT$$u5b$I$u5d$$GT$$GT$9from_iter17h3a9a24e55ecd6d3aE', symObjAddr: 0x6C4, symBinAddr: 0x186B0, symSize: 0x44 }
  - { offset: 0xC3AE4, size: 0x8, addend: 0x0, symName: '__ZN5alloc5boxed4iter117_$LT$impl$u20$core..iter..traits..collect..FromIterator$LT$I$GT$$u20$for$u20$alloc..boxed..Box$LT$$u5b$I$u5d$$GT$$GT$9from_iter17h698962d29efc6931E', symObjAddr: 0x708, symBinAddr: 0x186F4, symSize: 0x44 }
  - { offset: 0xC3B23, size: 0x8, addend: 0x0, symName: '__ZN5alloc5boxed4iter117_$LT$impl$u20$core..iter..traits..collect..FromIterator$LT$I$GT$$u20$for$u20$alloc..boxed..Box$LT$$u5b$I$u5d$$GT$$GT$9from_iter17haab274db3e442d84E', symObjAddr: 0x74C, symBinAddr: 0x18738, symSize: 0x44 }
  - { offset: 0xC3B62, size: 0x8, addend: 0x0, symName: '__ZN5alloc5boxed4iter117_$LT$impl$u20$core..iter..traits..collect..FromIterator$LT$I$GT$$u20$for$u20$alloc..boxed..Box$LT$$u5b$I$u5d$$GT$$GT$9from_iter17hdbf84bc8d12f5039E', symObjAddr: 0x790, symBinAddr: 0x1877C, symSize: 0x44 }
  - { offset: 0xC3BA8, size: 0x8, addend: 0x0, symName: '__ZN77_$LT$alloc..boxed..Box$LT$T$C$A$GT$$u20$as$u20$core..ops..deref..DerefMut$GT$9deref_mut17h086fd68785cd9abcE', symObjAddr: 0x7D4, symBinAddr: 0x187C0, symSize: 0x18 }
  - { offset: 0xC3BE8, size: 0x8, addend: 0x0, symName: '__ZN77_$LT$alloc..boxed..Box$LT$T$C$A$GT$$u20$as$u20$core..ops..deref..DerefMut$GT$9deref_mut17h2f3200c420639044E', symObjAddr: 0x7EC, symBinAddr: 0x187D8, symSize: 0x18 }
  - { offset: 0xC3C28, size: 0x8, addend: 0x0, symName: '__ZN77_$LT$alloc..boxed..Box$LT$T$C$A$GT$$u20$as$u20$core..ops..deref..DerefMut$GT$9deref_mut17h3fd8fdea8117354cE', symObjAddr: 0x804, symBinAddr: 0x187F0, symSize: 0x18 }
  - { offset: 0xC3C68, size: 0x8, addend: 0x0, symName: '__ZN77_$LT$alloc..boxed..Box$LT$T$C$A$GT$$u20$as$u20$core..ops..deref..DerefMut$GT$9deref_mut17h5d99a9c8d8702b2aE', symObjAddr: 0x81C, symBinAddr: 0x18808, symSize: 0x18 }
  - { offset: 0xC3CA8, size: 0x8, addend: 0x0, symName: '__ZN77_$LT$alloc..boxed..Box$LT$T$C$A$GT$$u20$as$u20$core..ops..deref..DerefMut$GT$9deref_mut17h7d39d0845f0c08c0E', symObjAddr: 0x834, symBinAddr: 0x18820, symSize: 0x18 }
  - { offset: 0xC3CE8, size: 0x8, addend: 0x0, symName: '__ZN77_$LT$alloc..boxed..Box$LT$T$C$A$GT$$u20$as$u20$core..ops..deref..DerefMut$GT$9deref_mut17h7fc78d7f8cc1107cE', symObjAddr: 0x84C, symBinAddr: 0x18838, symSize: 0x18 }
  - { offset: 0xC3D28, size: 0x8, addend: 0x0, symName: '__ZN77_$LT$alloc..boxed..Box$LT$T$C$A$GT$$u20$as$u20$core..ops..deref..DerefMut$GT$9deref_mut17hc54a7d77df17b577E', symObjAddr: 0x864, symBinAddr: 0x18850, symSize: 0x18 }
  - { offset: 0xC3D68, size: 0x8, addend: 0x0, symName: '__ZN77_$LT$alloc..boxed..Box$LT$T$C$A$GT$$u20$as$u20$core..ops..deref..DerefMut$GT$9deref_mut17hccfaadb5de252475E', symObjAddr: 0x87C, symBinAddr: 0x18868, symSize: 0x18 }
  - { offset: 0xC3DA8, size: 0x8, addend: 0x0, symName: '__ZN77_$LT$alloc..boxed..Box$LT$T$C$A$GT$$u20$as$u20$core..ops..deref..DerefMut$GT$9deref_mut17hd252baaf69622a74E', symObjAddr: 0x894, symBinAddr: 0x18880, symSize: 0x18 }
  - { offset: 0xC3DE8, size: 0x8, addend: 0x0, symName: '__ZN77_$LT$alloc..boxed..Box$LT$T$C$A$GT$$u20$as$u20$core..ops..deref..DerefMut$GT$9deref_mut17hf2945e1f30ab641fE', symObjAddr: 0x8AC, symBinAddr: 0x18898, symSize: 0x18 }
  - { offset: 0xC3E28, size: 0x8, addend: 0x0, symName: '__ZN77_$LT$alloc..boxed..Box$LT$T$C$A$GT$$u20$as$u20$core..ops..deref..DerefMut$GT$9deref_mut17hfd1b6206293da733E', symObjAddr: 0x8C4, symBinAddr: 0x188B0, symSize: 0x18 }
  - { offset: 0xC3E6E, size: 0x8, addend: 0x0, symName: '__ZN90_$LT$alloc..boxed..Box$LT$F$C$A$GT$$u20$as$u20$core..ops..function..FnOnce$LT$Args$GT$$GT$9call_once17h13cc956e45e001f2E', symObjAddr: 0x8DC, symBinAddr: 0x188C8, symSize: 0x7C }
  - { offset: 0xC3EC6, size: 0x8, addend: 0x0, symName: '__ZN90_$LT$alloc..boxed..Box$LT$F$C$A$GT$$u20$as$u20$core..ops..function..FnOnce$LT$Args$GT$$GT$9call_once17h28afd0e708c5f654E', symObjAddr: 0x958, symBinAddr: 0x18944, symSize: 0x7C }
  - { offset: 0xC3F1E, size: 0x8, addend: 0x0, symName: '__ZN90_$LT$alloc..boxed..Box$LT$F$C$A$GT$$u20$as$u20$core..ops..function..FnOnce$LT$Args$GT$$GT$9call_once17h4d9f1e76529f72b8E', symObjAddr: 0x9D4, symBinAddr: 0x189C0, symSize: 0x7C }
  - { offset: 0xC3F76, size: 0x8, addend: 0x0, symName: '__ZN90_$LT$alloc..boxed..Box$LT$F$C$A$GT$$u20$as$u20$core..ops..function..FnOnce$LT$Args$GT$$GT$9call_once17h65514f4ef930540bE', symObjAddr: 0xA50, symBinAddr: 0x18A3C, symSize: 0x7C }
  - { offset: 0xC3FCE, size: 0x8, addend: 0x0, symName: '__ZN90_$LT$alloc..boxed..Box$LT$F$C$A$GT$$u20$as$u20$core..ops..function..FnOnce$LT$Args$GT$$GT$9call_once17h7f7a231cdcd4e1c3E', symObjAddr: 0xACC, symBinAddr: 0x18AB8, symSize: 0x84 }
  - { offset: 0xC4026, size: 0x8, addend: 0x0, symName: '__ZN90_$LT$alloc..boxed..Box$LT$F$C$A$GT$$u20$as$u20$core..ops..function..FnOnce$LT$Args$GT$$GT$9call_once17h9793af19f0d60234E', symObjAddr: 0xB50, symBinAddr: 0x18B3C, symSize: 0x84 }
  - { offset: 0xC407E, size: 0x8, addend: 0x0, symName: '__ZN90_$LT$alloc..boxed..Box$LT$F$C$A$GT$$u20$as$u20$core..ops..function..FnOnce$LT$Args$GT$$GT$9call_once17ha8116db18e976841E', symObjAddr: 0xBD4, symBinAddr: 0x18BC0, symSize: 0x7C }
  - { offset: 0xC40D6, size: 0x8, addend: 0x0, symName: '__ZN90_$LT$alloc..boxed..Box$LT$F$C$A$GT$$u20$as$u20$core..ops..function..FnOnce$LT$Args$GT$$GT$9call_once17hbf963eeff15c322bE', symObjAddr: 0xC50, symBinAddr: 0x18C3C, symSize: 0x84 }
  - { offset: 0xC6198, size: 0x8, addend: 0x0, symName: '__ZN118_$LT$pyo3..impl_..pyclass..SendablePyClass$LT$T$GT$$u20$as$u20$pyo3..impl_..pyclass..PyClassThreadChecker$LT$T$GT$$GT$3new17h40de5bcda3b9279fE', symObjAddr: 0x0, symBinAddr: 0x18CC0, symSize: 0x4 }
  - { offset: 0xCACFA, size: 0x8, addend: 0x0, symName: '__ZN118_$LT$pyo3..impl_..pyclass..SendablePyClass$LT$T$GT$$u20$as$u20$pyo3..impl_..pyclass..PyClassThreadChecker$LT$T$GT$$GT$3new17h40de5bcda3b9279fE', symObjAddr: 0x0, symBinAddr: 0x18CC0, symSize: 0x4 }
  - { offset: 0xCAD1E, size: 0x8, addend: 0x0, symName: '__ZN118_$LT$pyo3..impl_..pyclass..SendablePyClass$LT$T$GT$$u20$as$u20$pyo3..impl_..pyclass..PyClassThreadChecker$LT$T$GT$$GT$3new17h4a853f44cfb5b53cE', symObjAddr: 0x4, symBinAddr: 0x18CC4, symSize: 0x4 }
  - { offset: 0xCAD42, size: 0x8, addend: 0x0, symName: '__ZN118_$LT$pyo3..impl_..pyclass..SendablePyClass$LT$T$GT$$u20$as$u20$pyo3..impl_..pyclass..PyClassThreadChecker$LT$T$GT$$GT$3new17h7927c9fc48260229E', symObjAddr: 0x8, symBinAddr: 0x18CC8, symSize: 0x4 }
  - { offset: 0xCAD66, size: 0x8, addend: 0x0, symName: '__ZN118_$LT$pyo3..impl_..pyclass..SendablePyClass$LT$T$GT$$u20$as$u20$pyo3..impl_..pyclass..PyClassThreadChecker$LT$T$GT$$GT$3new17hf6e7a91911005939E', symObjAddr: 0xC, symBinAddr: 0x18CCC, symSize: 0x4 }
  - { offset: 0xCAD8A, size: 0x8, addend: 0x0, symName: '__ZN118_$LT$pyo3..impl_..pyclass..SendablePyClass$LT$T$GT$$u20$as$u20$pyo3..impl_..pyclass..PyClassThreadChecker$LT$T$GT$$GT$6ensure17h2429d8f5d495f7beE', symObjAddr: 0x10, symBinAddr: 0x18CD0, symSize: 0x10 }
  - { offset: 0xCADBD, size: 0x8, addend: 0x0, symName: '__ZN118_$LT$pyo3..impl_..pyclass..SendablePyClass$LT$T$GT$$u20$as$u20$pyo3..impl_..pyclass..PyClassThreadChecker$LT$T$GT$$GT$6ensure17h8df68e3a510d7248E', symObjAddr: 0x20, symBinAddr: 0x18CE0, symSize: 0x10 }
  - { offset: 0xCADF0, size: 0x8, addend: 0x0, symName: '__ZN118_$LT$pyo3..impl_..pyclass..SendablePyClass$LT$T$GT$$u20$as$u20$pyo3..impl_..pyclass..PyClassThreadChecker$LT$T$GT$$GT$6ensure17h9d3360dca248a99eE', symObjAddr: 0x30, symBinAddr: 0x18CF0, symSize: 0x10 }
  - { offset: 0xCAE23, size: 0x8, addend: 0x0, symName: '__ZN118_$LT$pyo3..impl_..pyclass..SendablePyClass$LT$T$GT$$u20$as$u20$pyo3..impl_..pyclass..PyClassThreadChecker$LT$T$GT$$GT$6ensure17hb5188730aa0d1c48E', symObjAddr: 0x40, symBinAddr: 0x18D00, symSize: 0x10 }
  - { offset: 0xCAE56, size: 0x8, addend: 0x0, symName: '__ZN118_$LT$pyo3..impl_..pyclass..SendablePyClass$LT$T$GT$$u20$as$u20$pyo3..impl_..pyclass..PyClassThreadChecker$LT$T$GT$$GT$8can_drop17h0124bb18f1f1c243E', symObjAddr: 0x50, symBinAddr: 0x18D10, symSize: 0x18 }
  - { offset: 0xCAEA8, size: 0x8, addend: 0x0, symName: '__ZN118_$LT$pyo3..impl_..pyclass..SendablePyClass$LT$T$GT$$u20$as$u20$pyo3..impl_..pyclass..PyClassThreadChecker$LT$T$GT$$GT$8can_drop17h0b7e18d0ea9b4b0dE', symObjAddr: 0x68, symBinAddr: 0x18D28, symSize: 0x18 }
  - { offset: 0xCAEFA, size: 0x8, addend: 0x0, symName: '__ZN118_$LT$pyo3..impl_..pyclass..SendablePyClass$LT$T$GT$$u20$as$u20$pyo3..impl_..pyclass..PyClassThreadChecker$LT$T$GT$$GT$8can_drop17h48cd7b6166e81d20E', symObjAddr: 0x80, symBinAddr: 0x18D40, symSize: 0x18 }
  - { offset: 0xCAF4C, size: 0x8, addend: 0x0, symName: '__ZN118_$LT$pyo3..impl_..pyclass..SendablePyClass$LT$T$GT$$u20$as$u20$pyo3..impl_..pyclass..PyClassThreadChecker$LT$T$GT$$GT$8can_drop17h555a3a33c4f441eaE', symObjAddr: 0x98, symBinAddr: 0x18D58, symSize: 0x18 }
  - { offset: 0xCAFA4, size: 0x8, addend: 0x0, symName: '__ZN130_$LT$$RF$pyo3..impl_..pyclass..PyClassImplCollector$LT$T$GT$$u20$as$u20$pyo3..impl_..pyclass..PyClassNewTextSignature$LT$T$GT$$GT$18new_text_signature17hb868a5f721726d87E', symObjAddr: 0xB0, symBinAddr: 0x18D70, symSize: 0x1C }
  - { offset: 0xCAFDC, size: 0x8, addend: 0x0, symName: __ZN4pyo35impl_7pyclass10tp_dealloc17h13eaa031062b1e5fE, symObjAddr: 0xCC, symBinAddr: 0x18D8C, symSize: 0x34 }
  - { offset: 0xCB00F, size: 0x8, addend: 0x0, symName: __ZN4pyo35impl_7pyclass10tp_dealloc17h4484c7f3373eb7ecE, symObjAddr: 0x100, symBinAddr: 0x18DC0, symSize: 0x34 }
  - { offset: 0xCB042, size: 0x8, addend: 0x0, symName: __ZN4pyo35impl_7pyclass10tp_dealloc17h5bb691872066f6bcE, symObjAddr: 0x134, symBinAddr: 0x18DF4, symSize: 0x34 }
  - { offset: 0xCB075, size: 0x8, addend: 0x0, symName: __ZN4pyo35impl_7pyclass10tp_dealloc17hc0364e5d08333b80E, symObjAddr: 0x168, symBinAddr: 0x18E28, symSize: 0x34 }
  - { offset: 0xCB0AD, size: 0x8, addend: 0x0, symName: __ZN4pyo35impl_7pyclass11PyClassDict10clear_dict17hb34a9da6f5b147e7E, symObjAddr: 0x19C, symBinAddr: 0x18E5C, symSize: 0x10 }
  - { offset: 0xCB0F8, size: 0x8, addend: 0x0, symName: __ZN4pyo35impl_7pyclass12class_offset17h89d2cecf8dcffe59E, symObjAddr: 0x1AC, symBinAddr: 0x18E6C, symSize: 0xC }
  - { offset: 0xCB125, size: 0x8, addend: 0x0, symName: __ZN4pyo35impl_7pyclass14PyClassWeakRef14clear_weakrefs17hc1ad456690ada163E, symObjAddr: 0x1B8, symBinAddr: 0x18E78, symSize: 0x14 }
  - { offset: 0xCB17E, size: 0x8, addend: 0x0, symName: __ZN4pyo35impl_7pyclass18tp_dealloc_with_gc17h2f6aa1c94973a1ebE, symObjAddr: 0x1CC, symBinAddr: 0x18E8C, symSize: 0x4C }
  - { offset: 0xCB1CF, size: 0x8, addend: 0x0, symName: __ZN4pyo35impl_7pyclass18tp_dealloc_with_gc17h4012dd53dea8ee83E, symObjAddr: 0x218, symBinAddr: 0x18ED8, symSize: 0x4C }
  - { offset: 0xCB220, size: 0x8, addend: 0x0, symName: __ZN4pyo35impl_7pyclass18tp_dealloc_with_gc17h427a158ccf8b109bE, symObjAddr: 0x264, symBinAddr: 0x18F24, symSize: 0x4C }
  - { offset: 0xCB271, size: 0x8, addend: 0x0, symName: __ZN4pyo35impl_7pyclass18tp_dealloc_with_gc17h88e95fccc293a8bfE, symObjAddr: 0x2B0, symBinAddr: 0x18F70, symSize: 0x4C }
  - { offset: 0xCB2C2, size: 0x8, addend: 0x0, symName: __ZN4pyo35impl_7pyclass25pyo3_get_value_topyobject17h03f0ae290448f325E, symObjAddr: 0x2FC, symBinAddr: 0x18FBC, symSize: 0x17C }
  - { offset: 0xCB3FC, size: 0x8, addend: 0x0, symName: __ZN4pyo35impl_7pyclass25pyo3_get_value_topyobject17h130e5e11a1ce0e62E, symObjAddr: 0x478, symBinAddr: 0x19138, symSize: 0x178 }
  - { offset: 0xCB536, size: 0x8, addend: 0x0, symName: __ZN4pyo35impl_7pyclass25pyo3_get_value_topyobject17h64556b482ff499d1E, symObjAddr: 0x5F0, symBinAddr: 0x192B0, symSize: 0x178 }
  - { offset: 0xCB670, size: 0x8, addend: 0x0, symName: __ZN4pyo35impl_7pyclass25pyo3_get_value_topyobject17h6dc14326dc0b5be2E, symObjAddr: 0x768, symBinAddr: 0x19428, symSize: 0x178 }
  - { offset: 0xCB7AA, size: 0x8, addend: 0x0, symName: __ZN4pyo35impl_7pyclass25pyo3_get_value_topyobject17h9a535599fe20499bE, symObjAddr: 0x8E0, symBinAddr: 0x195A0, symSize: 0x178 }
  - { offset: 0xCB8E4, size: 0x8, addend: 0x0, symName: __ZN4pyo35impl_7pyclass25pyo3_get_value_topyobject17hcd8be78efacdc097E, symObjAddr: 0xA58, symBinAddr: 0x19718, symSize: 0x178 }
  - { offset: 0xCCB03, size: 0x8, addend: 0x0, symName: '__ZN4pyo35impl_7pyclass29PyClassImplCollector$LT$T$GT$3new17h71e3b7030a0ff055E', symObjAddr: 0xBD0, symBinAddr: 0x19890, symSize: 0x4 }
  - { offset: 0xCEDE0, size: 0x8, addend: 0x0, symName: '__ZN4pyo35impl_7pyclass29PyClassImplCollector$LT$T$GT$3new17ha7a32d4a69489af4E', symObjAddr: 0xBD4, symBinAddr: 0x19894, symSize: 0x4 }
  - { offset: 0xCF158, size: 0x8, addend: 0x0, symName: '__ZN4pyo35impl_7pyclass29PyClassImplCollector$LT$T$GT$3new17he72c9803a35d8ee4E', symObjAddr: 0xBD8, symBinAddr: 0x19898, symSize: 0x4 }
  - { offset: 0xCF1EC, size: 0x8, addend: 0x0, symName: '__ZN4pyo35impl_7pyclass29PyClassImplCollector$LT$T$GT$3new17hfd3a860c55c42758E', symObjAddr: 0xBDC, symBinAddr: 0x1989C, symSize: 0x4 }
  - { offset: 0xCF330, size: 0x8, addend: 0x0, symName: '__ZN4pyo35impl_7pyclass62PyClassGetterGenerator$LT$ClassT$C$FieldT$C$Offset$C$_$C$_$GT$8generate17h1e18a0fc74924c61E', symObjAddr: 0xBE0, symBinAddr: 0x198A0, symSize: 0x78 }
  - { offset: 0xCF3C2, size: 0x8, addend: 0x0, symName: '__ZN4pyo35impl_7pyclass62PyClassGetterGenerator$LT$ClassT$C$FieldT$C$Offset$C$_$C$_$GT$8generate17h4538f1a2004a5205E', symObjAddr: 0xC58, symBinAddr: 0x19918, symSize: 0x78 }
  - { offset: 0xCF454, size: 0x8, addend: 0x0, symName: '__ZN4pyo35impl_7pyclass62PyClassGetterGenerator$LT$ClassT$C$FieldT$C$Offset$C$_$C$_$GT$8generate17h6b4095c9a41670ccE', symObjAddr: 0xCD0, symBinAddr: 0x19990, symSize: 0x78 }
  - { offset: 0xCF4E6, size: 0x8, addend: 0x0, symName: '__ZN4pyo35impl_7pyclass62PyClassGetterGenerator$LT$ClassT$C$FieldT$C$Offset$C$_$C$_$GT$8generate17h913a54fac1373a72E', symObjAddr: 0xD48, symBinAddr: 0x19A08, symSize: 0x78 }
  - { offset: 0xCF578, size: 0x8, addend: 0x0, symName: '__ZN4pyo35impl_7pyclass62PyClassGetterGenerator$LT$ClassT$C$FieldT$C$Offset$C$_$C$_$GT$8generate17ha2e23ac15d921a62E', symObjAddr: 0xDC0, symBinAddr: 0x19A80, symSize: 0x78 }
  - { offset: 0xCF60A, size: 0x8, addend: 0x0, symName: '__ZN4pyo35impl_7pyclass62PyClassGetterGenerator$LT$ClassT$C$FieldT$C$Offset$C$_$C$_$GT$8generate17hf07e9cf5c794e24eE', symObjAddr: 0xE38, symBinAddr: 0x19AF8, symSize: 0x78 }
  - { offset: 0xCF6F0, size: 0x8, addend: 0x0, symName: __ZN4core4hint16assert_unchecked18precondition_check17h1a95951bb1cea9f7E, symObjAddr: 0x0, symBinAddr: 0x19B70, symSize: 0xA4 }
  - { offset: 0xCFA12, size: 0x8, addend: 0x0, symName: __ZN4core4hint16assert_unchecked18precondition_check17h1a95951bb1cea9f7E, symObjAddr: 0x0, symBinAddr: 0x19B70, symSize: 0xA4 }
  - { offset: 0xCFA6D, size: 0x8, addend: 0x0, symName: __ZN4core4hint21unreachable_unchecked17h8999f88c4c47465cE, symObjAddr: 0xA4, symBinAddr: 0x19C14, symSize: 0x10 }
  - { offset: 0xCFA8B, size: 0x8, addend: 0x0, symName: __ZN4core4hint21unreachable_unchecked18precondition_check17h33f87a5fa974eba2E, symObjAddr: 0xB4, symBinAddr: 0x19C24, symSize: 0x84 }
  - { offset: 0xCFC9E, size: 0x8, addend: 0x0, symName: __ZN4core3fmt2rt8Argument11new_display17h14a2de733372d41aE, symObjAddr: 0x0, symBinAddr: 0x19CA8, symSize: 0x2C }
  - { offset: 0xD0339, size: 0x8, addend: 0x0, symName: __ZN4core3fmt2rt8Argument11new_display17h14a2de733372d41aE, symObjAddr: 0x0, symBinAddr: 0x19CA8, symSize: 0x2C }
  - { offset: 0xD05F3, size: 0x8, addend: 0x0, symName: __ZN4core3fmt2rt8Argument11new_display17h39dd5b475cc2695fE, symObjAddr: 0x2C, symBinAddr: 0x19CD4, symSize: 0x2C }
  - { offset: 0xD0638, size: 0x8, addend: 0x0, symName: __ZN4core3fmt2rt8Argument11new_display17h919e434c5241fe59E, symObjAddr: 0x58, symBinAddr: 0x19D00, symSize: 0x2C }
  - { offset: 0xD0697, size: 0x8, addend: 0x0, symName: __ZN4core3fmt2rt8Argument11new_display17h9c1c10e91d6a1d03E, symObjAddr: 0x84, symBinAddr: 0x19D2C, symSize: 0x2C }
  - { offset: 0xD06DC, size: 0x8, addend: 0x0, symName: __ZN4core3fmt2rt8Argument11new_display17he61f40ad33a610ceE, symObjAddr: 0xB0, symBinAddr: 0x19D58, symSize: 0x2C }
  - { offset: 0xD0725, size: 0x8, addend: 0x0, symName: '__ZN3std3f6421_$LT$impl$u20$f64$GT$3exp17h52f238b0d3845ae8E', symObjAddr: 0x0, symBinAddr: 0x19D84, symSize: 0x28 }
  - { offset: 0xD07DE, size: 0x8, addend: 0x0, symName: __ZN8pyo3_ffi10boolobject7Py_True17h9bdd8dd14f304003E, symObjAddr: 0x40, symBinAddr: 0x19DC4, symSize: 0xC }
  - { offset: 0xD07FB, size: 0x8, addend: 0x0, symName: __ZN8pyo3_ffi10boolobject8Py_False17h7bbe5f9e5c5432d9E, symObjAddr: 0x4C, symBinAddr: 0x19DD0, symSize: 0xC }
  - { offset: 0xD0F4C, size: 0x8, addend: 0x0, symName: '__ZN63_$LT$I$u20$as$u20$core..iter..traits..collect..IntoIterator$GT$9into_iter17h9fdc028d710b13c6E', symObjAddr: 0x28, symBinAddr: 0x19DAC, symSize: 0x18 }
  - { offset: 0xD18FE, size: 0x8, addend: 0x0, symName: '__ZN3std3f6421_$LT$impl$u20$f64$GT$3exp17h52f238b0d3845ae8E', symObjAddr: 0x0, symBinAddr: 0x19D84, symSize: 0x28 }
  - { offset: 0xD1F62, size: 0x8, addend: 0x0, symName: '__ZN60_$LT$$RF$mut$u20$T$u20$as$u20$core..ops..deref..DerefMut$GT$9deref_mut17h6da95a932572cc06E', symObjAddr: 0x0, symBinAddr: 0x19DDC, symSize: 0x18 }
  - { offset: 0xD2CAC, size: 0x8, addend: 0x0, symName: '__ZN4_sys5cache7manager17MemoryTierManager11maybe_evict28_$u7b$$u7b$closure$u7d$$u7d$17heb00f86a87b57866E', symObjAddr: 0x48, symBinAddr: 0x19E24, symSize: 0x8CC }
  - { offset: 0xD3026, size: 0x8, addend: 0x0, symName: '__ZN4_sys5cache7manager17MemoryTierManager6demote28_$u7b$$u7b$closure$u7d$$u7d$17he8a5323068398614E', symObjAddr: 0x914, symBinAddr: 0x1A6F0, symSize: 0x578 }
  - { offset: 0xD33FE, size: 0x8, addend: 0x0, symName: '__ZN4_sys5cache7manager17MemoryTierManager7promote28_$u7b$$u7b$closure$u7d$$u7d$17h5f0197eff484cec3E', symObjAddr: 0xE8C, symBinAddr: 0x1AC68, symSize: 0x2DC }
  - { offset: 0xD397B, size: 0x8, addend: 0x0, symName: '__ZN60_$LT$$RF$mut$u20$T$u20$as$u20$core..ops..deref..DerefMut$GT$9deref_mut17h6da95a932572cc06E', symObjAddr: 0x0, symBinAddr: 0x19DDC, symSize: 0x18 }
  - { offset: 0xD39B2, size: 0x8, addend: 0x0, symName: '__ZN60_$LT$$RF$mut$u20$T$u20$as$u20$core..ops..deref..DerefMut$GT$9deref_mut17hc37cbab822731a0dE', symObjAddr: 0x18, symBinAddr: 0x19DF4, symSize: 0x18 }
  - { offset: 0xD39E9, size: 0x8, addend: 0x0, symName: '__ZN60_$LT$$RF$mut$u20$T$u20$as$u20$core..ops..deref..DerefMut$GT$9deref_mut17hcf841cf5b7c4c3e2E', symObjAddr: 0x30, symBinAddr: 0x19E0C, symSize: 0x18 }
  - { offset: 0xD6F25, size: 0x8, addend: 0x0, symName: '__ZN4core3mem13manually_drop21ManuallyDrop$LT$T$GT$4drop17h05b98993d5f44de1E', symObjAddr: 0x0, symBinAddr: 0x1AF44, symSize: 0x24 }
  - { offset: 0xDCF49, size: 0x8, addend: 0x0, symName: '__ZN4core3mem13manually_drop21ManuallyDrop$LT$T$GT$4drop17h05b98993d5f44de1E', symObjAddr: 0x0, symBinAddr: 0x1AF44, symSize: 0x24 }
  - { offset: 0xDCF81, size: 0x8, addend: 0x0, symName: '__ZN4core3mem13manually_drop21ManuallyDrop$LT$T$GT$4drop17h32e787fc64c3480fE', symObjAddr: 0x24, symBinAddr: 0x1AF68, symSize: 0x10 }
  - { offset: 0xDD0CD, size: 0x8, addend: 0x0, symName: '__ZN4core3mem13manually_drop21ManuallyDrop$LT$T$GT$4drop17h77813cd6cf8c1850E', symObjAddr: 0x34, symBinAddr: 0x1AF78, symSize: 0x24 }
  - { offset: 0xDD105, size: 0x8, addend: 0x0, symName: '__ZN4core3mem13manually_drop21ManuallyDrop$LT$T$GT$4drop17hac974feea149b77bE', symObjAddr: 0x58, symBinAddr: 0x1AF9C, symSize: 0x24 }
  - { offset: 0xDD14E, size: 0x8, addend: 0x0, symName: '__ZN4core5slice29_$LT$impl$u20$$u5b$T$u5d$$GT$4iter17h7226c00fd41c1936E', symObjAddr: 0x0, symBinAddr: 0x1AFC0, symSize: 0x28 }
  - { offset: 0xDD16A, size: 0x8, addend: 0x0, symName: '__ZN4core5slice29_$LT$impl$u20$$u5b$T$u5d$$GT$4iter17h7226c00fd41c1936E', symObjAddr: 0x0, symBinAddr: 0x1AFC0, symSize: 0x28 }
  - { offset: 0xDD22A, size: 0x8, addend: 0x0, symName: '__ZN4core5slice29_$LT$impl$u20$$u5b$T$u5d$$GT$7reverse7revswap17h6b9b1ad7b5837dc8E', symObjAddr: 0x28, symBinAddr: 0x1AFE8, symSize: 0x2A8 }
  - { offset: 0xDD39A, size: 0x8, addend: 0x0, symName: '__ZN4core5slice29_$LT$impl$u20$$u5b$T$u5d$$GT$7reverse7revswap17heb6b7f3444ec5081E', symObjAddr: 0x2D0, symBinAddr: 0x1B290, symSize: 0x2A0 }
  - { offset: 0xDD58E, size: 0x8, addend: 0x0, symName: '__ZN4core5slice29_$LT$impl$u20$$u5b$T$u5d$$GT$8iter_mut17hf3d3a4d9a95b1b3eE', symObjAddr: 0x570, symBinAddr: 0x1B530, symSize: 0x28 }
  - { offset: 0xDD5CB, size: 0x8, addend: 0x0, symName: '__ZN4core5slice68_$LT$impl$u20$core..default..Default$u20$for$u20$$RF$$u5b$T$u5d$$GT$7default17h4f2190b8e40dd409E', symObjAddr: 0x598, symBinAddr: 0x1B558, symSize: 0x10 }
  - { offset: 0xDDEA5, size: 0x8, addend: 0x0, symName: '__ZN4zstd6stream3zio6writer19Writer$LT$W$C$D$GT$10into_inner17hbdf8ada8b7a16b01E', symObjAddr: 0x0, symBinAddr: 0x1B568, symSize: 0x34 }
  - { offset: 0xDE32A, size: 0x8, addend: 0x0, symName: '__ZN81_$LT$zstd..stream..zio..writer..Writer$LT$W$C$D$GT$$u20$as$u20$std..io..Write$GT$5write28_$u7b$$u7b$closure$u7d$$u7d$17he62e2b3750b011c6E', symObjAddr: 0x96C, symBinAddr: 0x1BED4, symSize: 0x44 }
  - { offset: 0xDE387, size: 0x8, addend: 0x0, symName: '__ZN81_$LT$zstd..stream..zio..writer..Writer$LT$W$C$D$GT$$u20$as$u20$std..io..Write$GT$5write17h0d95abbab8b7f145E', symObjAddr: 0x774, symBinAddr: 0x1BCDC, symSize: 0x1F8 }
  - { offset: 0xDE4A7, size: 0x8, addend: 0x0, symName: '__ZN4zstd6stream3zio6writer19Writer$LT$W$C$D$GT$6finish28_$u7b$$u7b$closure$u7d$$u7d$17h69da6d8faf661bf0E', symObjAddr: 0x730, symBinAddr: 0x1BC98, symSize: 0x44 }
  - { offset: 0xDE9D9, size: 0x8, addend: 0x0, symName: '__ZN4zstd6stream3zio6writer19Writer$LT$W$C$D$GT$10into_inner17hbdf8ada8b7a16b01E', symObjAddr: 0x0, symBinAddr: 0x1B568, symSize: 0x34 }
  - { offset: 0xDEAE3, size: 0x8, addend: 0x0, symName: '__ZN4zstd6stream3zio6writer19Writer$LT$W$C$D$GT$11with_buffer17h0776ac0101d29f6bE', symObjAddr: 0x34, symBinAddr: 0x1B59C, symSize: 0xB8 }
  - { offset: 0xDEB61, size: 0x8, addend: 0x0, symName: '__ZN4zstd6stream3zio6writer19Writer$LT$W$C$D$GT$11with_buffer17hae0af8d7bc718b3eE', symObjAddr: 0xEC, symBinAddr: 0x1B654, symSize: 0xB8 }
  - { offset: 0xDEBD2, size: 0x8, addend: 0x0, symName: '__ZN4zstd6stream3zio6writer19Writer$LT$W$C$D$GT$17new_with_capacity17h2ab74a4511d4db20E', symObjAddr: 0x1A4, symBinAddr: 0x1B70C, symSize: 0xC8 }
  - { offset: 0xDEC22, size: 0x8, addend: 0x0, symName: '__ZN4zstd6stream3zio6writer19Writer$LT$W$C$D$GT$17write_from_offset17hd57fcb44479c3ce4E', symObjAddr: 0x26C, symBinAddr: 0x1B7D4, symSize: 0x23C }
  - { offset: 0xDEC88, size: 0x8, addend: 0x0, symName: '__ZN4zstd6stream3zio6writer19Writer$LT$W$C$D$GT$18with_output_buffer17hc0fa63c9fad01bdfE', symObjAddr: 0x4A8, symBinAddr: 0x1BA10, symSize: 0x48 }
  - { offset: 0xDECD8, size: 0x8, addend: 0x0, symName: '__ZN4zstd6stream3zio6writer19Writer$LT$W$C$D$GT$3new17h1e149788b44b5d0bE', symObjAddr: 0x4F0, symBinAddr: 0x1BA58, symSize: 0xF4 }
  - { offset: 0xDED1A, size: 0x8, addend: 0x0, symName: '__ZN4zstd6stream3zio6writer19Writer$LT$W$C$D$GT$6finish17h808aa77939b62f9fE', symObjAddr: 0x5E4, symBinAddr: 0x1BB4C, symSize: 0x14C }
  - { offset: 0xDEDFF, size: 0x8, addend: 0x0, symName: __ZN4core4hash11BuildHasher8hash_one17h26c9b298224ee4d0E, symObjAddr: 0x0, symBinAddr: 0x1BF18, symSize: 0x84 }
  - { offset: 0xDEE1B, size: 0x8, addend: 0x0, symName: __ZN4core4hash11BuildHasher8hash_one17h26c9b298224ee4d0E, symObjAddr: 0x0, symBinAddr: 0x1BF18, symSize: 0x84 }
  - { offset: 0xDEFF2, size: 0x8, addend: 0x0, symName: '__ZN5tokio4loom3std11unsafe_cell19UnsafeCell$LT$T$GT$3new17h195827b98aa848deE', symObjAddr: 0x0, symBinAddr: 0x1BF9C, symSize: 0x48 }
  - { offset: 0xE2658, size: 0x8, addend: 0x0, symName: '__ZN5tokio4loom3std11unsafe_cell19UnsafeCell$LT$T$GT$3new17h195827b98aa848deE', symObjAddr: 0x0, symBinAddr: 0x1BF9C, symSize: 0x48 }
  - { offset: 0xE2B0F, size: 0x8, addend: 0x0, symName: '__ZN5tokio4loom3std11unsafe_cell19UnsafeCell$LT$T$GT$3new17h23c001037074e0b2E', symObjAddr: 0x48, symBinAddr: 0x1BFE4, symSize: 0x48 }
  - { offset: 0xE2B75, size: 0x8, addend: 0x0, symName: '__ZN5tokio4loom3std11unsafe_cell19UnsafeCell$LT$T$GT$3new17h3c78716912df934bE', symObjAddr: 0x90, symBinAddr: 0x1C02C, symSize: 0x48 }
  - { offset: 0xE2EDD, size: 0x8, addend: 0x0, symName: '__ZN5tokio4loom3std11unsafe_cell19UnsafeCell$LT$T$GT$3new17h43cb17ed429ede7aE', symObjAddr: 0xD8, symBinAddr: 0x1C074, symSize: 0x50 }
  - { offset: 0xE2F50, size: 0x8, addend: 0x0, symName: '__ZN5tokio4loom3std11unsafe_cell19UnsafeCell$LT$T$GT$3new17h480b0a5a8b2e3bb6E', symObjAddr: 0x128, symBinAddr: 0x1C0C4, symSize: 0x2C }
  - { offset: 0xE2FC2, size: 0x8, addend: 0x0, symName: '__ZN5tokio4loom3std11unsafe_cell19UnsafeCell$LT$T$GT$3new17h4e53ff6b281827a4E', symObjAddr: 0x154, symBinAddr: 0x1C0F0, symSize: 0x48 }
  - { offset: 0xE3101, size: 0x8, addend: 0x0, symName: '__ZN5tokio4loom3std11unsafe_cell19UnsafeCell$LT$T$GT$3new17h5c9083e9f2602e58E', symObjAddr: 0x19C, symBinAddr: 0x1C138, symSize: 0x48 }
  - { offset: 0xE3174, size: 0x8, addend: 0x0, symName: '__ZN5tokio4loom3std11unsafe_cell19UnsafeCell$LT$T$GT$3new17h6955c0a65e9f2a42E', symObjAddr: 0x1E4, symBinAddr: 0x1C180, symSize: 0x48 }
  - { offset: 0xE31DA, size: 0x8, addend: 0x0, symName: '__ZN5tokio4loom3std11unsafe_cell19UnsafeCell$LT$T$GT$3new17h84aa1ccd40b471d5E', symObjAddr: 0x22C, symBinAddr: 0x1C1C8, symSize: 0x2C }
  - { offset: 0xE3411, size: 0x8, addend: 0x0, symName: '__ZN5tokio4loom3std11unsafe_cell19UnsafeCell$LT$T$GT$3new17h9d066267359b16b0E', symObjAddr: 0x258, symBinAddr: 0x1C1F4, symSize: 0x2C }
  - { offset: 0xE3482, size: 0x8, addend: 0x0, symName: '__ZN5tokio4loom3std11unsafe_cell19UnsafeCell$LT$T$GT$3new17hb46b7f9b6abc1b67E', symObjAddr: 0x284, symBinAddr: 0x1C220, symSize: 0x48 }
  - { offset: 0xE34F5, size: 0x8, addend: 0x0, symName: '__ZN5tokio4loom3std11unsafe_cell19UnsafeCell$LT$T$GT$3new17hb4895a998324e8b2E', symObjAddr: 0x2CC, symBinAddr: 0x1C268, symSize: 0x48 }
  - { offset: 0xE3568, size: 0x8, addend: 0x0, symName: '__ZN5tokio4loom3std11unsafe_cell19UnsafeCell$LT$T$GT$3new17hb5692e6590b10c03E', symObjAddr: 0x314, symBinAddr: 0x1C2B0, symSize: 0x2C }
  - { offset: 0xE35D9, size: 0x8, addend: 0x0, symName: '__ZN5tokio4loom3std11unsafe_cell19UnsafeCell$LT$T$GT$3new17hb77581829b6bb242E', symObjAddr: 0x340, symBinAddr: 0x1C2DC, symSize: 0x48 }
  - { offset: 0xE364C, size: 0x8, addend: 0x0, symName: '__ZN5tokio4loom3std11unsafe_cell19UnsafeCell$LT$T$GT$3new17hbda0bc142b2cb9fdE', symObjAddr: 0x388, symBinAddr: 0x1C324, symSize: 0x2C }
  - { offset: 0xE36BD, size: 0x8, addend: 0x0, symName: '__ZN5tokio4loom3std11unsafe_cell19UnsafeCell$LT$T$GT$3new17he2ad6f3d5198d023E', symObjAddr: 0x3B4, symBinAddr: 0x1C350, symSize: 0x2C }
  - { offset: 0xE3721, size: 0x8, addend: 0x0, symName: '__ZN5tokio4loom3std11unsafe_cell19UnsafeCell$LT$T$GT$3new17hf2746d7865741e94E', symObjAddr: 0x3E0, symBinAddr: 0x1C37C, symSize: 0x48 }
  - { offset: 0xE3787, size: 0x8, addend: 0x0, symName: '__ZN5tokio4loom3std11unsafe_cell19UnsafeCell$LT$T$GT$3new17hf295cd857ad4837eE', symObjAddr: 0x428, symBinAddr: 0x1C3C4, symSize: 0x48 }
  - { offset: 0xE37EF, size: 0x8, addend: 0x0, symName: '__ZN4core3ops8function5impls79_$LT$impl$u20$core..ops..function..FnMut$LT$A$GT$$u20$for$u20$$RF$mut$u20$F$GT$8call_mut17hac25cf11b34a5ca3E', symObjAddr: 0x0, symBinAddr: 0x1C40C, symSize: 0x30 }
  - { offset: 0xE3839, size: 0x8, addend: 0x0, symName: '__ZN4core3ops8function5impls79_$LT$impl$u20$core..ops..function..FnMut$LT$A$GT$$u20$for$u20$$RF$mut$u20$F$GT$8call_mut17hac25cf11b34a5ca3E', symObjAddr: 0x0, symBinAddr: 0x1C40C, symSize: 0x30 }
  - { offset: 0xE3896, size: 0x8, addend: 0x0, symName: '__ZN4core5slice29_$LT$impl$u20$$u5b$T$u5d$$GT$4iter17h55d428dec0078b07E', symObjAddr: 0x30, symBinAddr: 0x1C43C, symSize: 0x28 }
  - { offset: 0xE3B39, size: 0x8, addend: 0x0, symName: '__ZN4_sys8prefetch6sketch11SketchIndex15init_projection28_$u7b$$u7b$closure$u7d$$u7d$17h097b5d03de134315E', symObjAddr: 0x58, symBinAddr: 0x1C464, symSize: 0xA8 }
  - { offset: 0xE3BA2, size: 0x8, addend: 0x0, symName: '__ZN4_sys8prefetch6sketch11SketchIndex9score_all28_$u7b$$u7b$closure$u7d$$u7d$17h44146f3b47a7b2b2E', symObjAddr: 0x100, symBinAddr: 0x1C50C, symSize: 0xFC }
  - { offset: 0xE3C14, size: 0x8, addend: 0x0, symName: '__ZN4_sys8prefetch6sketch11SketchIndex9score_all28_$u7b$$u7b$closure$u7d$$u7d$28_$u7b$$u7b$closure$u7d$$u7d$17hd32035744e2e3b5bE', symObjAddr: 0x1FC, symBinAddr: 0x1C608, symSize: 0x54 }
  - { offset: 0xE3C7A, size: 0x8, addend: 0x0, symName: '__ZN4_sys8prefetch6sketch11SketchIndex9score_all28_$u7b$$u7b$closure$u7d$$u7d$17h025fe84036c6d327E', symObjAddr: 0x250, symBinAddr: 0x1C65C, symSize: 0x5C }
  - { offset: 0xE3D06, size: 0x8, addend: 0x0, symName: '__ZN4_sys8prefetch6sketch11SketchIndex5top_k28_$u7b$$u7b$closure$u7d$$u7d$17hcb3ed6409eebc8feE', symObjAddr: 0x2AC, symBinAddr: 0x1C6B8, symSize: 0x18 }
  - { offset: 0xE40E4, size: 0x8, addend: 0x0, symName: '__ZN5alloc3vec13in_place_drop20InPlaceDrop$LT$T$GT$3len17h51b9345cc91f48c0E', symObjAddr: 0x0, symBinAddr: 0x1C6D0, symSize: 0x84 }
  - { offset: 0xE44E5, size: 0x8, addend: 0x0, symName: '__ZN5alloc3vec13in_place_drop20InPlaceDrop$LT$T$GT$3len17h51b9345cc91f48c0E', symObjAddr: 0x0, symBinAddr: 0x1C6D0, symSize: 0x84 }
  - { offset: 0xE45AD, size: 0x8, addend: 0x0, symName: '__ZN5alloc3vec13in_place_drop20InPlaceDrop$LT$T$GT$3len17habcdb1cdb74078e1E', symObjAddr: 0x84, symBinAddr: 0x1C754, symSize: 0x84 }
  - { offset: 0xE4675, size: 0x8, addend: 0x0, symName: '__ZN5alloc3vec13in_place_drop20InPlaceDrop$LT$T$GT$3len17hc3555f0473d21712E', symObjAddr: 0x108, symBinAddr: 0x1C7D8, symSize: 0x84 }
  - { offset: 0xE4734, size: 0x8, addend: 0x0, symName: '__ZN3std2io5impls60_$LT$impl$u20$std..io..Read$u20$for$u20$$RF$$u5b$u8$u5d$$GT$8read_buf17hb7fec570eba1e602E', symObjAddr: 0x0, symBinAddr: 0x1C85C, symSize: 0x14C }
  - { offset: 0xE49A7, size: 0x8, addend: 0x0, symName: '__ZN3std2io5impls60_$LT$impl$u20$std..io..Read$u20$for$u20$$RF$$u5b$u8$u5d$$GT$8read_buf17hb7fec570eba1e602E', symObjAddr: 0x0, symBinAddr: 0x1C85C, symSize: 0x14C }
  - { offset: 0xE532D, size: 0x8, addend: 0x0, symName: __ZN5tokio2io4util15async_write_ext13AsyncWriteExt9write_all17h908841531f772224E, symObjAddr: 0x0, symBinAddr: 0x1C9A8, symSize: 0x30 }
  - { offset: 0xE5717, size: 0x8, addend: 0x0, symName: __ZN5tokio2io4util15async_write_ext13AsyncWriteExt9write_all17h908841531f772224E, symObjAddr: 0x0, symBinAddr: 0x1C9A8, symSize: 0x30 }
  - { offset: 0xE57A6, size: 0x8, addend: 0x0, symName: '__ZN68_$LT$$RF$mut$u20$T$u20$as$u20$tokio..io..async_write..AsyncWrite$GT$10poll_write17h7971a47dc2fb5d3bE', symObjAddr: 0x48, symBinAddr: 0x1C9F0, symSize: 0x58 }
  - { offset: 0xE5CBC, size: 0x8, addend: 0x0, symName: '__ZN60_$LT$$RF$mut$u20$T$u20$as$u20$core..ops..deref..DerefMut$GT$9deref_mut17hbdb83bc67b1e9feaE', symObjAddr: 0x30, symBinAddr: 0x1C9D8, symSize: 0x18 }
  - { offset: 0xE6ACB, size: 0x8, addend: 0x0, symName: __ZN4pyo33err5PyErr22write_unraisable_bound17he8f078dd677b98e4E, symObjAddr: 0x0, symBinAddr: 0x1CA48, symSize: 0x34 }
  - { offset: 0xE8744, size: 0x8, addend: 0x0, symName: __ZN4pyo33err5PyErr22write_unraisable_bound17he8f078dd677b98e4E, symObjAddr: 0x0, symBinAddr: 0x1CA48, symSize: 0x34 }
  - { offset: 0xE87AE, size: 0x8, addend: 0x0, symName: __ZN4pyo33err5PyErr7restore17h1b4c92db78d90267E, symObjAddr: 0x34, symBinAddr: 0x1CA7C, symSize: 0x68 }
  - { offset: 0xE881F, size: 0x8, addend: 0x0, symName: '__ZN4_sys8bindings10storage_py99_$LT$impl$u20$core..convert..From$LT$_sys..error..StorageError$GT$$u20$for$u20$pyo3..err..PyErr$GT$4from17h4b4e6ce0abe2bef4E', symObjAddr: 0x9C, symBinAddr: 0x1CAE4, symSize: 0x6C }
  - { offset: 0xE8858, size: 0x8, addend: 0x0, symName: '__ZN4_sys8bindings8cache_py96_$LT$impl$u20$core..convert..From$LT$_sys..error..DrexError$GT$$u20$for$u20$pyo3..err..PyErr$GT$4from17hc8d5dca6016bf058E', symObjAddr: 0x108, symBinAddr: 0x1CB50, symSize: 0x6C }
  - { offset: 0xE8BA1, size: 0x8, addend: 0x0, symName: '__ZN100_$LT$core..array..iter..iter_inner..PolymorphicIter$LT$DATA$GT$$u20$as$u20$core..ops..drop..Drop$GT$4drop17h7ac22db0c6106e3cE', symObjAddr: 0x0, symBinAddr: 0x1CBBC, symSize: 0x38 }
  - { offset: 0xE9D18, size: 0x8, addend: 0x0, symName: '__ZN133_$LT$tokio..runtime..task..harness..poll_future..$u7b$$u7b$closure$u7d$$u7d$..Guard$LT$T$C$S$GT$$u20$as$u20$core..ops..drop..Drop$GT$4drop17h1aad90a5ccb77522E', symObjAddr: 0x308, symBinAddr: 0x1CEC4, symSize: 0x28 }
  - { offset: 0xE9D54, size: 0x8, addend: 0x0, symName: '__ZN133_$LT$tokio..runtime..task..harness..poll_future..$u7b$$u7b$closure$u7d$$u7d$..Guard$LT$T$C$S$GT$$u20$as$u20$core..ops..drop..Drop$GT$4drop17h1d65dd01559a855eE', symObjAddr: 0x330, symBinAddr: 0x1CEEC, symSize: 0x28 }
  - { offset: 0xE9D90, size: 0x8, addend: 0x0, symName: '__ZN133_$LT$tokio..runtime..task..harness..poll_future..$u7b$$u7b$closure$u7d$$u7d$..Guard$LT$T$C$S$GT$$u20$as$u20$core..ops..drop..Drop$GT$4drop17h214d7d58224e0928E', symObjAddr: 0x358, symBinAddr: 0x1CF14, symSize: 0x28 }
  - { offset: 0xE9DCC, size: 0x8, addend: 0x0, symName: '__ZN133_$LT$tokio..runtime..task..harness..poll_future..$u7b$$u7b$closure$u7d$$u7d$..Guard$LT$T$C$S$GT$$u20$as$u20$core..ops..drop..Drop$GT$4drop17h49b5697b0041aa51E', symObjAddr: 0x380, symBinAddr: 0x1CF3C, symSize: 0x28 }
  - { offset: 0xE9E08, size: 0x8, addend: 0x0, symName: '__ZN133_$LT$tokio..runtime..task..harness..poll_future..$u7b$$u7b$closure$u7d$$u7d$..Guard$LT$T$C$S$GT$$u20$as$u20$core..ops..drop..Drop$GT$4drop17h4b8851657aa705efE', symObjAddr: 0x3A8, symBinAddr: 0x1CF64, symSize: 0x28 }
  - { offset: 0xE9E44, size: 0x8, addend: 0x0, symName: '__ZN133_$LT$tokio..runtime..task..harness..poll_future..$u7b$$u7b$closure$u7d$$u7d$..Guard$LT$T$C$S$GT$$u20$as$u20$core..ops..drop..Drop$GT$4drop17h5d26438c46cc9e39E', symObjAddr: 0x3D0, symBinAddr: 0x1CF8C, symSize: 0x28 }
  - { offset: 0xE9E80, size: 0x8, addend: 0x0, symName: '__ZN133_$LT$tokio..runtime..task..harness..poll_future..$u7b$$u7b$closure$u7d$$u7d$..Guard$LT$T$C$S$GT$$u20$as$u20$core..ops..drop..Drop$GT$4drop17h662a1f0432eea0f1E', symObjAddr: 0x3F8, symBinAddr: 0x1CFB4, symSize: 0x28 }
  - { offset: 0xE9EBC, size: 0x8, addend: 0x0, symName: '__ZN133_$LT$tokio..runtime..task..harness..poll_future..$u7b$$u7b$closure$u7d$$u7d$..Guard$LT$T$C$S$GT$$u20$as$u20$core..ops..drop..Drop$GT$4drop17h66712f57e651e72aE', symObjAddr: 0x420, symBinAddr: 0x1CFDC, symSize: 0x28 }
  - { offset: 0xE9EF8, size: 0x8, addend: 0x0, symName: '__ZN133_$LT$tokio..runtime..task..harness..poll_future..$u7b$$u7b$closure$u7d$$u7d$..Guard$LT$T$C$S$GT$$u20$as$u20$core..ops..drop..Drop$GT$4drop17h67d3431891b4d4dcE', symObjAddr: 0x448, symBinAddr: 0x1D004, symSize: 0x28 }
  - { offset: 0xE9F34, size: 0x8, addend: 0x0, symName: '__ZN133_$LT$tokio..runtime..task..harness..poll_future..$u7b$$u7b$closure$u7d$$u7d$..Guard$LT$T$C$S$GT$$u20$as$u20$core..ops..drop..Drop$GT$4drop17h70cfc2c1b95d0470E', symObjAddr: 0x470, symBinAddr: 0x1D02C, symSize: 0x28 }
  - { offset: 0xE9F70, size: 0x8, addend: 0x0, symName: '__ZN133_$LT$tokio..runtime..task..harness..poll_future..$u7b$$u7b$closure$u7d$$u7d$..Guard$LT$T$C$S$GT$$u20$as$u20$core..ops..drop..Drop$GT$4drop17h71fc69be4e07f040E', symObjAddr: 0x498, symBinAddr: 0x1D054, symSize: 0x28 }
  - { offset: 0xE9FAC, size: 0x8, addend: 0x0, symName: '__ZN133_$LT$tokio..runtime..task..harness..poll_future..$u7b$$u7b$closure$u7d$$u7d$..Guard$LT$T$C$S$GT$$u20$as$u20$core..ops..drop..Drop$GT$4drop17h8f2881c0f5fbf77eE', symObjAddr: 0x4C0, symBinAddr: 0x1D07C, symSize: 0x28 }
  - { offset: 0xE9FE8, size: 0x8, addend: 0x0, symName: '__ZN133_$LT$tokio..runtime..task..harness..poll_future..$u7b$$u7b$closure$u7d$$u7d$..Guard$LT$T$C$S$GT$$u20$as$u20$core..ops..drop..Drop$GT$4drop17h97818cdf06d819c1E', symObjAddr: 0x4E8, symBinAddr: 0x1D0A4, symSize: 0x28 }
  - { offset: 0xEA024, size: 0x8, addend: 0x0, symName: '__ZN133_$LT$tokio..runtime..task..harness..poll_future..$u7b$$u7b$closure$u7d$$u7d$..Guard$LT$T$C$S$GT$$u20$as$u20$core..ops..drop..Drop$GT$4drop17h99bc0394f6c89d7aE', symObjAddr: 0x510, symBinAddr: 0x1D0CC, symSize: 0x28 }
  - { offset: 0xEA060, size: 0x8, addend: 0x0, symName: '__ZN133_$LT$tokio..runtime..task..harness..poll_future..$u7b$$u7b$closure$u7d$$u7d$..Guard$LT$T$C$S$GT$$u20$as$u20$core..ops..drop..Drop$GT$4drop17hb32100057a882d4fE', symObjAddr: 0x538, symBinAddr: 0x1D0F4, symSize: 0x28 }
  - { offset: 0xEA09C, size: 0x8, addend: 0x0, symName: '__ZN133_$LT$tokio..runtime..task..harness..poll_future..$u7b$$u7b$closure$u7d$$u7d$..Guard$LT$T$C$S$GT$$u20$as$u20$core..ops..drop..Drop$GT$4drop17hc702c2ead4e6121cE', symObjAddr: 0x560, symBinAddr: 0x1D11C, symSize: 0x28 }
  - { offset: 0xEA0D8, size: 0x8, addend: 0x0, symName: '__ZN133_$LT$tokio..runtime..task..harness..poll_future..$u7b$$u7b$closure$u7d$$u7d$..Guard$LT$T$C$S$GT$$u20$as$u20$core..ops..drop..Drop$GT$4drop17hd193d58accfa21d7E', symObjAddr: 0x588, symBinAddr: 0x1D144, symSize: 0x28 }
  - { offset: 0xEA114, size: 0x8, addend: 0x0, symName: '__ZN133_$LT$tokio..runtime..task..harness..poll_future..$u7b$$u7b$closure$u7d$$u7d$..Guard$LT$T$C$S$GT$$u20$as$u20$core..ops..drop..Drop$GT$4drop17hdd384117f1f39c57E', symObjAddr: 0x5B0, symBinAddr: 0x1D16C, symSize: 0x28 }
  - { offset: 0xEA150, size: 0x8, addend: 0x0, symName: '__ZN133_$LT$tokio..runtime..task..harness..poll_future..$u7b$$u7b$closure$u7d$$u7d$..Guard$LT$T$C$S$GT$$u20$as$u20$core..ops..drop..Drop$GT$4drop17he8ecfbef2a160e53E', symObjAddr: 0x5D8, symBinAddr: 0x1D194, symSize: 0x28 }
  - { offset: 0xEA18C, size: 0x8, addend: 0x0, symName: '__ZN133_$LT$tokio..runtime..task..harness..poll_future..$u7b$$u7b$closure$u7d$$u7d$..Guard$LT$T$C$S$GT$$u20$as$u20$core..ops..drop..Drop$GT$4drop17heb4c9f13d1a582adE', symObjAddr: 0x600, symBinAddr: 0x1D1BC, symSize: 0x28 }
  - { offset: 0xEAE7C, size: 0x8, addend: 0x0, symName: '__ZN89_$LT$tokio..runtime..task..join..JoinHandle$LT$T$GT$$u20$as$u20$core..ops..drop..Drop$GT$4drop17h190561d3b867caeeE', symObjAddr: 0x11914, symBinAddr: 0x2E20C, symSize: 0x54 }
  - { offset: 0xEAEAF, size: 0x8, addend: 0x0, symName: '__ZN89_$LT$tokio..runtime..task..join..JoinHandle$LT$T$GT$$u20$as$u20$core..ops..drop..Drop$GT$4drop17h2c0b84c410a12c65E', symObjAddr: 0x11968, symBinAddr: 0x2E260, symSize: 0x54 }
  - { offset: 0xEAEE2, size: 0x8, addend: 0x0, symName: '__ZN89_$LT$tokio..runtime..task..join..JoinHandle$LT$T$GT$$u20$as$u20$core..ops..drop..Drop$GT$4drop17h4189aaf44ab4f45fE', symObjAddr: 0x119BC, symBinAddr: 0x2E2B4, symSize: 0x54 }
  - { offset: 0xEAF15, size: 0x8, addend: 0x0, symName: '__ZN89_$LT$tokio..runtime..task..join..JoinHandle$LT$T$GT$$u20$as$u20$core..ops..drop..Drop$GT$4drop17hcccbfd30c44faa5fE', symObjAddr: 0x11A10, symBinAddr: 0x2E308, symSize: 0x54 }
  - { offset: 0xEAF48, size: 0x8, addend: 0x0, symName: '__ZN89_$LT$tokio..runtime..task..join..JoinHandle$LT$T$GT$$u20$as$u20$core..ops..drop..Drop$GT$4drop17hf3af437a42001eb1E', symObjAddr: 0x11A64, symBinAddr: 0x2E35C, symSize: 0x54 }
  - { offset: 0xF364A, size: 0x8, addend: 0x0, symName: '__ZN4core3ptr100drop_in_place$LT$alloc..raw_vec..RawVec$LT$$LP$_sys..storage..snapshot..SnapshotId$C$f32$RP$$GT$$GT$17h9950000f93c82a6eE', symObjAddr: 0x2B50, symBinAddr: 0x1F6E8, symSize: 0x24 }
  - { offset: 0xF3679, size: 0x8, addend: 0x0, symName: '__ZN4core3ptr100drop_in_place$LT$alloc..vec..into_iter..IntoIter$LT$_sys..cache..eviction..EvictionCandidate$GT$$GT$17h6868a38029158d24E', symObjAddr: 0x2B74, symBinAddr: 0x1F70C, symSize: 0x24 }
  - { offset: 0xF36A8, size: 0x8, addend: 0x0, symName: '__ZN4core3ptr100drop_in_place$LT$core..result..Result$LT$alloc..vec..Vec$LT$f32$GT$$C$_sys..error..DrexError$GT$$GT$17h5d1111f072859466E', symObjAddr: 0x2B98, symBinAddr: 0x1F730, symSize: 0x54 }
  - { offset: 0xF36D7, size: 0x8, addend: 0x0, symName: '__ZN4core3ptr101drop_in_place$LT$alloc..vec..into_iter..IntoIter$LT$_sys..storage..snapshot..SnapshotMetadata$GT$$GT$17hb903b24cdc690f07E', symObjAddr: 0x2C10, symBinAddr: 0x1F784, symSize: 0x24 }
  - { offset: 0xF3706, size: 0x8, addend: 0x0, symName: '__ZN4core3ptr101drop_in_place$LT$core..option..Option$LT$tokio..runtime..scheduler..current_thread..CoreGuard$GT$$GT$17h21084bba9b42ab18E', symObjAddr: 0x2C34, symBinAddr: 0x1F7A8, symSize: 0x44 }
  - { offset: 0xF3735, size: 0x8, addend: 0x0, symName: '__ZN4core3ptr101drop_in_place$LT$core..result..Result$LT$tokio..fs..read_dir..ReadDir$C$std..io..error..Error$GT$$GT$17h52bb6f60d67d34d0E', symObjAddr: 0x2C78, symBinAddr: 0x1F7EC, symSize: 0x60 }
  - { offset: 0xF3764, size: 0x8, addend: 0x0, symName: '__ZN4core3ptr101drop_in_place$LT$tokio..fs..read..read$LT$$RF$std..path..PathBuf$GT$..$u7b$$u7b$closure$u7d$$u7d$$GT$17h3b39c7714ee57d71E', symObjAddr: 0x2CD8, symBinAddr: 0x1F84C, symSize: 0x94 }
  - { offset: 0xF37DE, size: 0x8, addend: 0x0, symName: '__ZN4core3ptr102drop_in_place$LT$_sys..cache..manager..MemoryTierManager..maybe_evict..$u7b$$u7b$closure$u7d$$u7d$$GT$17ha08421f7264d622fE', symObjAddr: 0x2D6C, symBinAddr: 0x1F8E0, symSize: 0x160 }
  - { offset: 0xF3920, size: 0x8, addend: 0x0, symName: '__ZN4core3ptr102drop_in_place$LT$alloc..boxed..Box$LT$$u5b$core..mem..maybe_uninit..MaybeUninit$LT$u8$GT$$u5d$$GT$$GT$17hc4a8fc00a0cd097eE', symObjAddr: 0x2ECC, symBinAddr: 0x1FA40, symSize: 0x2C }
  - { offset: 0xF394F, size: 0x8, addend: 0x0, symName: '__ZN4core3ptr102drop_in_place$LT$alloc..vec..in_place_drop..InPlaceDrop$LT$_sys..storage..snapshot..SnapshotId$GT$$GT$17h98324d925732c424E', symObjAddr: 0x2EF8, symBinAddr: 0x1FA6C, symSize: 0x24 }
  - { offset: 0xF397E, size: 0x8, addend: 0x0, symName: '__ZN4core3ptr102drop_in_place$LT$alloc..vec..into_iter..IntoIter$LT$_sys..bindings..storage_py..PySnapshotMeta$GT$$GT$17h25d7ca49f80a3d8fE', symObjAddr: 0x2F1C, symBinAddr: 0x1FA90, symSize: 0x24 }
  - { offset: 0xF39AD, size: 0x8, addend: 0x0, symName: '__ZN4core3ptr102drop_in_place$LT$hashbrown..raw..RawTable$LT$$LP$u32$C$_sys..prefetch..sketch..SketchIndex$RP$$GT$$GT$17hacce170dc9759da6E', symObjAddr: 0x2F40, symBinAddr: 0x1FAB4, symSize: 0x24 }
  - { offset: 0xF39DC, size: 0x8, addend: 0x0, symName: '__ZN4core3ptr103drop_in_place$LT$_sys..storage..snapshot..SnapshotStore..list_by_layer..$u7b$$u7b$closure$u7d$$u7d$$GT$17hb49a25ba29d679f9E', symObjAddr: 0x2F64, symBinAddr: 0x1FAD8, symSize: 0x8C }
  - { offset: 0xF3A5F, size: 0x8, addend: 0x0, symName: '__ZN4core3ptr103drop_in_place$LT$core..result..Result$LT$alloc..vec..Vec$LT$f32$GT$$C$_sys..error..StorageError$GT$$GT$17h8e31d9dc9175a5c9E', symObjAddr: 0x2FF0, symBinAddr: 0x1FB64, symSize: 0x54 }
  - { offset: 0xF3A8E, size: 0x8, addend: 0x0, symName: '__ZN4core3ptr106drop_in_place$LT$core..result..Result$LT$$BP$mut$u20$pyo3_ffi..object..PyObject$C$pyo3..err..PyErr$GT$$GT$17hc921fd77c6d298a8E', symObjAddr: 0x3068, symBinAddr: 0x1FBB8, symSize: 0x40 }
  - { offset: 0xF3ABD, size: 0x8, addend: 0x0, symName: '__ZN4core3ptr106drop_in_place$LT$std..collections..hash..map..HashMap$LT$u32$C$_sys..prefetch..sketch..SketchIndex$GT$$GT$17h1d72bfb59430912eE', symObjAddr: 0x30A8, symBinAddr: 0x1FBF8, symSize: 0x24 }
  - { offset: 0xF3AEC, size: 0x8, addend: 0x0, symName: '__ZN4core3ptr108drop_in_place$LT$alloc..vec..in_place_drop..InPlaceDrop$LT$_sys..storage..snapshot..SnapshotMetadata$GT$$GT$17h64ce1e0f93842790E', symObjAddr: 0x30F0, symBinAddr: 0x1FC1C, symSize: 0x24 }
  - { offset: 0xF3B1B, size: 0x8, addend: 0x0, symName: '__ZN4core3ptr108drop_in_place$LT$core..result..Result$LT$$LP$$RP$$C$alloc..borrow..Cow$LT$core..ffi..c_str..CStr$GT$$GT$$GT$17he0b1ca6e874b3a4dE', symObjAddr: 0x3114, symBinAddr: 0x1FC40, symSize: 0x44 }
  - { offset: 0xF3B4A, size: 0x8, addend: 0x0, symName: '__ZN4core3ptr108drop_in_place$LT$dashmap..mapref..one..RefMut$LT$$LP$u32$C$u32$RP$$C$_sys..cache..eviction..H2OScore$GT$$GT$17hdb30f66844374e79E', symObjAddr: 0x3158, symBinAddr: 0x1FC84, symSize: 0x24 }
  - { offset: 0xF3B79, size: 0x8, addend: 0x0, symName: '__ZN4core3ptr109drop_in_place$LT$alloc..vec..in_place_drop..InPlaceDrop$LT$_sys..bindings..storage_py..PySnapshotMeta$GT$$GT$17haec8ccf41c1e9ee5E', symObjAddr: 0x317C, symBinAddr: 0x1FCA8, symSize: 0x24 }
  - { offset: 0xF3BA8, size: 0x8, addend: 0x0, symName: '__ZN4core3ptr109drop_in_place$LT$alloc..vec..into_iter..IntoIter$LT$$LP$_sys..storage..snapshot..SnapshotId$C$f32$RP$$GT$$GT$17h39f3305e679fda31E', symObjAddr: 0x31A0, symBinAddr: 0x1FCCC, symSize: 0x24 }
  - { offset: 0xF3BD7, size: 0x8, addend: 0x0, symName: '__ZN4core3ptr109drop_in_place$LT$core..cell..UnsafeCell$LT$alloc..vec..Vec$LT$_sys..storage..snapshot..SnapshotId$GT$$GT$$GT$17hd3fca05e2bed2f46E', symObjAddr: 0x31C4, symBinAddr: 0x1FCF0, symSize: 0x24 }
  - { offset: 0xF3C06, size: 0x8, addend: 0x0, symName: '__ZN4core3ptr109drop_in_place$LT$dashmap..DashMap$LT$_sys..storage..snapshot..SnapshotId$C$alloc..vec..Vec$LT$f32$GT$$GT$$GT$17hadd43b4ca9a4e394E', symObjAddr: 0x31E8, symBinAddr: 0x1FD14, symSize: 0x24 }
  - { offset: 0xF3C35, size: 0x8, addend: 0x0, symName: '__ZN4core3ptr109drop_in_place$LT$dashmap..DashMap$LT$u32$C$alloc..vec..Vec$LT$_sys..storage..snapshot..SnapshotId$GT$$GT$$GT$17h93bae2729368b3c2E', symObjAddr: 0x320C, symBinAddr: 0x1FD38, symSize: 0x24 }
  - { offset: 0xF3C64, size: 0x8, addend: 0x0, symName: '__ZN4core3ptr109drop_in_place$LT$pyo3..pyclass_init..PyClassInitializer$LT$_sys..bindings..storage_py..PySnapshotMeta$GT$$GT$17h410dbf94798c02a2E', symObjAddr: 0x3230, symBinAddr: 0x1FD5C, symSize: 0x24 }
  - { offset: 0xF3C93, size: 0x8, addend: 0x0, symName: '__ZN4core3ptr109drop_in_place$LT$tokio..fs..read_dir..read_dir$LT$$RF$std..path..PathBuf$GT$..$u7b$$u7b$closure$u7d$$u7d$$GT$17h02d56452e3dd712bE', symObjAddr: 0x3254, symBinAddr: 0x1FD80, symSize: 0x94 }
  - { offset: 0xF3D0D, size: 0x8, addend: 0x0, symName: '__ZN4core3ptr110drop_in_place$LT$core..option..Option$LT$core..result..Result$LT$$LP$$RP$$C$_sys..error..DrexError$GT$$GT$$GT$17h74a9ae03ea05ef0bE', symObjAddr: 0x32E8, symBinAddr: 0x1FE14, symSize: 0x44 }
  - { offset: 0xF3D3C, size: 0x8, addend: 0x0, symName: '__ZN4core3ptr110drop_in_place$LT$pyo3..pyclass_init..PyClassInitializer$LT$_sys..bindings..storage_py..PySnapshotStore$GT$$GT$17h6df8d987770ea3e9E', symObjAddr: 0x332C, symBinAddr: 0x1FE58, symSize: 0x24 }
  - { offset: 0xF3D6B, size: 0x8, addend: 0x0, symName: '__ZN4core3ptr110drop_in_place$LT$tokio..runtime..builder..Builder..thread_name$LT$$RF$str$GT$..$u7b$$u7b$closure$u7d$$u7d$$GT$17hc330a0b2a0abcc11E', symObjAddr: 0x3350, symBinAddr: 0x1FE7C, symSize: 0x24 }
  - { offset: 0xF3D9A, size: 0x8, addend: 0x0, symName: '__ZN4core3ptr111drop_in_place$LT$alloc..sync..Weak$LT$_sys..storage..snapshot..SnapshotStore$C$$RF$alloc..alloc..Global$GT$$GT$17hfb0c80d20df0c93aE', symObjAddr: 0x3374, symBinAddr: 0x1FEA0, symSize: 0x24 }
  - { offset: 0xF3DC9, size: 0x8, addend: 0x0, symName: '__ZN4core3ptr111drop_in_place$LT$core..result..Result$LT$_sys..bindings..storage_py..PySnapshotStore$C$pyo3..err..PyErr$GT$$GT$17h04f440afc19dce1fE', symObjAddr: 0x3398, symBinAddr: 0x1FEC4, symSize: 0x58 }
  - { offset: 0xF3DF8, size: 0x8, addend: 0x0, symName: '__ZN4core3ptr111drop_in_place$LT$core..result..Result$LT$_sys..storage..snapshot..SnapshotId$C$serde_json..error..Error$GT$$GT$17hee19ac3751c5cde5E', symObjAddr: 0x33F0, symBinAddr: 0x1FF1C, symSize: 0x40 }
  - { offset: 0xF3E27, size: 0x8, addend: 0x0, symName: '__ZN4core3ptr112drop_in_place$LT$$LP$alloc..boxed..Box$LT$tokio..runtime..scheduler..current_thread..Core$GT$$C$$LP$$RP$$RP$$GT$17hcdb45c6d6649e53eE', symObjAddr: 0x3430, symBinAddr: 0x1FF5C, symSize: 0x24 }
  - { offset: 0xF3E56, size: 0x8, addend: 0x0, symName: '__ZN4core3ptr112drop_in_place$LT$alloc..sync..Weak$LT$_sys..cache..registry..SnapshotRegistry$C$$RF$alloc..alloc..Global$GT$$GT$17h2522f837610c92eaE', symObjAddr: 0x3454, symBinAddr: 0x1FF80, symSize: 0x24 }
  - { offset: 0xF3E85, size: 0x8, addend: 0x0, symName: '__ZN4core3ptr112drop_in_place$LT$core..task..poll..Poll$LT$core..result..Result$LT$$LP$$RP$$C$_sys..error..DrexError$GT$$GT$$GT$17h077d43435e941d7eE', symObjAddr: 0x3478, symBinAddr: 0x1FFA4, symSize: 0x48 }
  - { offset: 0xF3EB4, size: 0x8, addend: 0x0, symName: '__ZN4core3ptr112drop_in_place$LT$dashmap..iter..Iter$LT$_sys..storage..snapshot..SnapshotId$C$alloc..vec..Vec$LT$f32$GT$$GT$$GT$17he3768cb3f377d949E', symObjAddr: 0x34C0, symBinAddr: 0x1FFEC, symSize: 0x24 }
  - { offset: 0xF3EE3, size: 0x8, addend: 0x0, symName: '__ZN4core3ptr112drop_in_place$LT$pyo3..pyclass_init..PyClassInitializer$LT$_sys..bindings..cache_py..PyMemoryTierManager$GT$$GT$17hd34bef82043701cdE', symObjAddr: 0x34E4, symBinAddr: 0x20010, symSize: 0x24 }
  - { offset: 0xF3F12, size: 0x8, addend: 0x0, symName: '__ZN4core3ptr112drop_in_place$LT$pyo3..pyclass_init..PyClassInitializer$LT$_sys..bindings..prefetch_py..PyPrefetchEngine$GT$$GT$17h9a710ee83720b42dE', symObjAddr: 0x3508, symBinAddr: 0x20034, symSize: 0x24 }
  - { offset: 0xF3F41, size: 0x8, addend: 0x0, symName: '__ZN4core3ptr113drop_in_place$LT$alloc..sync..Weak$LT$_sys..cache..eviction..H2OEvictionPolicy$C$$RF$alloc..alloc..Global$GT$$GT$17hfc1c70ab7a8a6c9cE', symObjAddr: 0x352C, symBinAddr: 0x20058, symSize: 0x24 }
  - { offset: 0xF3F70, size: 0x8, addend: 0x0, symName: '__ZN4core3ptr113drop_in_place$LT$core..option..Option$LT$core..result..Result$LT$$LP$$RP$$C$_sys..error..StorageError$GT$$GT$$GT$17he1289dc94586f036E', symObjAddr: 0x3550, symBinAddr: 0x2007C, symSize: 0x44 }
  - { offset: 0xF3F9F, size: 0x8, addend: 0x0, symName: '__ZN4core3ptr113drop_in_place$LT$core..result..Result$LT$_sys..bindings..cache_py..PyMemoryTierManager$C$pyo3..err..PyErr$GT$$GT$17ha936d5f5ffc39429E', symObjAddr: 0x3594, symBinAddr: 0x200C0, symSize: 0x58 }
  - { offset: 0xF3FCE, size: 0x8, addend: 0x0, symName: '__ZN4core3ptr113drop_in_place$LT$core..result..Result$LT$_sys..bindings..prefetch_py..PyPrefetchEngine$C$pyo3..err..PyErr$GT$$GT$17h332cbc436897e6fcE', symObjAddr: 0x35EC, symBinAddr: 0x20118, symSize: 0x58 }
  - { offset: 0xF3FFD, size: 0x8, addend: 0x0, symName: '__ZN4core3ptr113drop_in_place$LT$core..slice..sort..stable..merge..MergeState$LT$_sys..cache..eviction..EvictionCandidate$GT$$GT$17h4519ef0566ac8e0dE', symObjAddr: 0x3644, symBinAddr: 0x20170, symSize: 0x24 }
  - { offset: 0xF402C, size: 0x8, addend: 0x0, symName: '__ZN4core3ptr113drop_in_place$LT$dashmap..util..SharedValue$LT$alloc..vec..Vec$LT$_sys..storage..snapshot..SnapshotId$GT$$GT$$GT$17h43740bd04e3d49a1E', symObjAddr: 0x3668, symBinAddr: 0x20194, symSize: 0x24 }
  - { offset: 0xF405B, size: 0x8, addend: 0x0, symName: '__ZN4core3ptr113drop_in_place$LT$pyo3..pyclass_init..PyClassInitializerImpl$LT$_sys..bindings..storage_py..PySnapshotMeta$GT$$GT$17h405da8e184abeca7E', symObjAddr: 0x368C, symBinAddr: 0x201B8, symSize: 0x44 }
  - { offset: 0xF408A, size: 0x8, addend: 0x0, symName: '__ZN4core3ptr114drop_in_place$LT$alloc..sync..Weak$LT$_sys..storage..journal..WriteAheadJournal$C$$RF$alloc..alloc..Global$GT$$GT$17hcdcf49f541337115E', symObjAddr: 0x36D0, symBinAddr: 0x201FC, symSize: 0x24 }
  - { offset: 0xF40B9, size: 0x8, addend: 0x0, symName: '__ZN4core3ptr114drop_in_place$LT$core..result..Result$LT$alloc..vec..Vec$LT$$LP$u32$C$u32$RP$$GT$$C$_sys..error..DrexError$GT$$GT$17h0c66c11541278885E', symObjAddr: 0x36F4, symBinAddr: 0x20220, symSize: 0x54 }
  - { offset: 0xF40E8, size: 0x8, addend: 0x0, symName: '__ZN4core3ptr114drop_in_place$LT$pyo3..pyclass_init..PyClassInitializerImpl$LT$_sys..bindings..storage_py..PySnapshotStore$GT$$GT$17hc88846bcabfabe00E', symObjAddr: 0x3748, symBinAddr: 0x20274, symSize: 0x54 }
  - { offset: 0xF4117, size: 0x8, addend: 0x0, symName: '__ZN4core3ptr115drop_in_place$LT$core..task..poll..Poll$LT$core..result..Result$LT$$LP$$RP$$C$_sys..error..StorageError$GT$$GT$$GT$17h182a38cdc9f91ea9E', symObjAddr: 0x379C, symBinAddr: 0x202C8, symSize: 0x48 }
  - { offset: 0xF4146, size: 0x8, addend: 0x0, symName: '__ZN4core3ptr115drop_in_place$LT$dashmap..mapref..multiple..RefMulti$LT$$LP$u32$C$u32$RP$$C$_sys..cache..eviction..H2OScore$GT$$GT$17hfd84b574dea7dc05E', symObjAddr: 0x37E4, symBinAddr: 0x20310, symSize: 0x24 }
  - { offset: 0xF4175, size: 0x8, addend: 0x0, symName: '__ZN4core3ptr115drop_in_place$LT$std..io..buffered..bufreader..BufReader$LT$std..io..cursor..Cursor$LT$$RF$$u5b$u8$u5d$$GT$$GT$$GT$17h2265dd5567279ba4E', symObjAddr: 0x3808, symBinAddr: 0x20334, symSize: 0x24 }
  - { offset: 0xF41A4, size: 0x8, addend: 0x0, symName: '__ZN4core3ptr115drop_in_place$LT$tokio..fs..remove_file..remove_file$LT$$RF$std..path..PathBuf$GT$..$u7b$$u7b$closure$u7d$$u7d$$GT$17hf5026b529437df19E', symObjAddr: 0x382C, symBinAddr: 0x20358, symSize: 0x94 }
  - { offset: 0xF421E, size: 0x8, addend: 0x0, symName: '__ZN4core3ptr116drop_in_place$LT$core..task..poll..Poll$LT$core..result..Result$LT$std..fs..File$C$std..io..error..Error$GT$$GT$$GT$17h50ddb0511a9ed4f3E', symObjAddr: 0x38C0, symBinAddr: 0x203EC, symSize: 0x48 }
  - { offset: 0xF424D, size: 0x8, addend: 0x0, symName: '__ZN4core3ptr116drop_in_place$LT$pyo3..pyclass_init..PyClassInitializerImpl$LT$_sys..bindings..cache_py..PyMemoryTierManager$GT$$GT$17h9feaa272a8f7cfceE', symObjAddr: 0x3908, symBinAddr: 0x20434, symSize: 0x54 }
  - { offset: 0xF427C, size: 0x8, addend: 0x0, symName: '__ZN4core3ptr116drop_in_place$LT$pyo3..pyclass_init..PyClassInitializerImpl$LT$_sys..bindings..prefetch_py..PyPrefetchEngine$GT$$GT$17ha893ef142d011ac3E', symObjAddr: 0x395C, symBinAddr: 0x20488, symSize: 0x54 }
  - { offset: 0xF42AB, size: 0x8, addend: 0x0, symName: '__ZN4core3ptr117drop_in_place$LT$core..result..Result$LT$_sys..storage..snapshot..SnapshotMetadata$C$serde_json..error..Error$GT$$GT$17h1fd90ca525f907b3E', symObjAddr: 0x39B0, symBinAddr: 0x204DC, symSize: 0x48 }
  - { offset: 0xF42DA, size: 0x8, addend: 0x0, symName: '__ZN4core3ptr117drop_in_place$LT$core..slice..sort..shared..smallsort..CopyOnDrop$LT$_sys..cache..eviction..EvictionCandidate$GT$$GT$17h2da7eff3749594d9E', symObjAddr: 0x39F8, symBinAddr: 0x20524, symSize: 0x24 }
  - { offset: 0xF4309, size: 0x8, addend: 0x0, symName: '__ZN4core3ptr117drop_in_place$LT$dashmap..mapref..entry..OccupiedEntry$LT$$LP$u32$C$u32$RP$$C$_sys..cache..eviction..H2OScore$GT$$GT$17heb35fe369eae9ebeE', symObjAddr: 0x3A1C, symBinAddr: 0x20548, symSize: 0x24 }
  - { offset: 0xF4338, size: 0x8, addend: 0x0, symName: '__ZN4core3ptr117drop_in_place$LT$tokio..fs..write..write_spawn_blocking..$u7b$$u7b$closure$u7d$$u7d$..$u7b$$u7b$closure$u7d$$u7d$$GT$17h011c5a02104f4b8bE', symObjAddr: 0x3A40, symBinAddr: 0x2056C, symSize: 0x60 }
  - { offset: 0xF4367, size: 0x8, addend: 0x0, symName: '__ZN4core3ptr118drop_in_place$LT$core..option..Option$LT$pyo3..pycell..PyRef$LT$_sys..bindings..storage_py..PySnapshotMeta$GT$$GT$$GT$17h52ea63e4b49a4cd2E', symObjAddr: 0x3AA0, symBinAddr: 0x205CC, symSize: 0x44 }
  - { offset: 0xF4396, size: 0x8, addend: 0x0, symName: '__ZN4core3ptr118drop_in_place$LT$core..result..Result$LT$_sys..storage..snapshot..SnapshotMetadata$C$_sys..error..StorageError$GT$$GT$17h7cb151bde3cef6d9E', symObjAddr: 0x3AE4, symBinAddr: 0x20610, symSize: 0x48 }
  - { offset: 0xF43C5, size: 0x8, addend: 0x0, symName: '__ZN4core3ptr118drop_in_place$LT$dashmap..mapref..one..Ref$LT$_sys..storage..snapshot..SnapshotId$C$alloc..vec..Vec$LT$f32$GT$$GT$$GT$17h9ff7181a4860ac2cE', symObjAddr: 0x3B2C, symBinAddr: 0x20658, symSize: 0x24 }
  - { offset: 0xF43F4, size: 0x8, addend: 0x0, symName: '__ZN4core3ptr118drop_in_place$LT$dashmap..mapref..one..Ref$LT$u32$C$alloc..vec..Vec$LT$_sys..storage..snapshot..SnapshotId$GT$$GT$$GT$17h8d4ae81188e04400E', symObjAddr: 0x3B50, symBinAddr: 0x2067C, symSize: 0x24 }
  - { offset: 0xF4423, size: 0x8, addend: 0x0, symName: '__ZN4core3ptr119drop_in_place$LT$alloc..boxed..Box$LT$_sys..storage..snapshot..SnapshotStore..read..$u7b$$u7b$closure$u7d$$u7d$$GT$$GT$17h49f62901c534792fE', symObjAddr: 0x3B74, symBinAddr: 0x206A0, symSize: 0x60 }
  - { offset: 0xF4452, size: 0x8, addend: 0x0, symName: '__ZN4core3ptr119drop_in_place$LT$core..option..Option$LT$pyo3..pycell..PyRef$LT$_sys..bindings..storage_py..PySnapshotStore$GT$$GT$$GT$17hae24c14011e52ab6E', symObjAddr: 0x3BD4, symBinAddr: 0x20700, symSize: 0x44 }
  - { offset: 0xF4481, size: 0x8, addend: 0x0, symName: '__ZN4core3ptr120drop_in_place$LT$alloc..boxed..Box$LT$_sys..storage..snapshot..SnapshotStore..write..$u7b$$u7b$closure$u7d$$u7d$$GT$$GT$17h0dcab5143572ca4dE', symObjAddr: 0x3C18, symBinAddr: 0x20744, symSize: 0x60 }
  - { offset: 0xF44B0, size: 0x8, addend: 0x0, symName: '__ZN4core3ptr121drop_in_place$LT$alloc..boxed..Box$LT$_sys..storage..snapshot..SnapshotStore..delete..$u7b$$u7b$closure$u7d$$u7d$$GT$$GT$17hacdf69087281e866E', symObjAddr: 0x3C78, symBinAddr: 0x207A4, symSize: 0x60 }
  - { offset: 0xF44DF, size: 0x8, addend: 0x0, symName: '__ZN4core3ptr121drop_in_place$LT$alloc..boxed..Box$LT$_sys..storage..snapshot..SnapshotStore..exists..$u7b$$u7b$closure$u7d$$u7d$$GT$$GT$17he7c04cf1aee10d8eE', symObjAddr: 0x3CD8, symBinAddr: 0x20804, symSize: 0x60 }
  - { offset: 0xF450E, size: 0x8, addend: 0x0, symName: '__ZN4core3ptr121drop_in_place$LT$core..option..Option$LT$$LP$_sys..storage..snapshot..SnapshotId$C$alloc..vec..Vec$LT$f32$GT$$RP$$GT$$GT$17h89f88fa65a34c9d3E', symObjAddr: 0x3D38, symBinAddr: 0x20864, symSize: 0x48 }
  - { offset: 0xF453D, size: 0x8, addend: 0x0, symName: '__ZN4core3ptr121drop_in_place$LT$core..option..Option$LT$pyo3..pycell..PyRef$LT$_sys..bindings..cache_py..PyMemoryTierManager$GT$$GT$$GT$17h193754af2f91fd1aE', symObjAddr: 0x3D80, symBinAddr: 0x208AC, symSize: 0x44 }
  - { offset: 0xF456C, size: 0x8, addend: 0x0, symName: '__ZN4core3ptr121drop_in_place$LT$core..option..Option$LT$pyo3..pycell..PyRef$LT$_sys..bindings..prefetch_py..PyPrefetchEngine$GT$$GT$$GT$17hf53f01527ea020e8E', symObjAddr: 0x3DC4, symBinAddr: 0x208F0, symSize: 0x44 }
  - { offset: 0xF459B, size: 0x8, addend: 0x0, symName: '__ZN4core3ptr121drop_in_place$LT$dashmap..mapref..one..RefMut$LT$_sys..storage..snapshot..SnapshotId$C$alloc..vec..Vec$LT$f32$GT$$GT$$GT$17h70f615e30c53f12dE', symObjAddr: 0x3E08, symBinAddr: 0x20934, symSize: 0x24 }
  - { offset: 0xF45CA, size: 0x8, addend: 0x0, symName: '__ZN4core3ptr121drop_in_place$LT$dashmap..mapref..one..RefMut$LT$u32$C$alloc..vec..Vec$LT$_sys..storage..snapshot..SnapshotId$GT$$GT$$GT$17h0e39b6bb4386c054E', symObjAddr: 0x3E2C, symBinAddr: 0x20958, symSize: 0x24 }
  - { offset: 0xF45F9, size: 0x8, addend: 0x0, symName: '__ZN4core3ptr122drop_in_place$LT$alloc..boxed..Box$LT$_sys..cache..manager..MemoryTierManager..demote..$u7b$$u7b$closure$u7d$$u7d$$GT$$GT$17h04787bc56a128706E', symObjAddr: 0x3E50, symBinAddr: 0x2097C, symSize: 0x60 }
  - { offset: 0xF4628, size: 0x8, addend: 0x0, symName: '__ZN4core3ptr122drop_in_place$LT$core..slice..sort..stable..merge..MergeState$LT$$LP$_sys..storage..snapshot..SnapshotId$C$f32$RP$$GT$$GT$17h0109a2adac0ec64dE', symObjAddr: 0x3EB0, symBinAddr: 0x209DC, symSize: 0x24 }
  - { offset: 0xF4657, size: 0x8, addend: 0x0, symName: '__ZN4core3ptr122drop_in_place$LT$tokio..fs..open_options..OpenOptions..open$LT$$RF$std..path..PathBuf$GT$..$u7b$$u7b$closure$u7d$$u7d$$GT$17h8f6d860213fc3065E', symObjAddr: 0x3ED4, symBinAddr: 0x20A00, symSize: 0x8C }
  - { offset: 0xF46FD, size: 0x8, addend: 0x0, symName: '__ZN4core3ptr123drop_in_place$LT$alloc..boxed..Box$LT$_sys..cache..manager..MemoryTierManager..promote..$u7b$$u7b$closure$u7d$$u7d$$GT$$GT$17h69520fc2bb4722fdE', symObjAddr: 0x3F60, symBinAddr: 0x20A8C, symSize: 0x60 }
  - { offset: 0xF472C, size: 0x8, addend: 0x0, symName: '__ZN4core3ptr123drop_in_place$LT$alloc..boxed..Box$LT$_sys..prefetch..engine..PrefetchEngine..prefetch..$u7b$$u7b$closure$u7d$$u7d$$GT$$GT$17hbe20224d3302e50cE', symObjAddr: 0x3FC0, symBinAddr: 0x20AEC, symSize: 0x60 }
  - { offset: 0xF475B, size: 0x8, addend: 0x0, symName: '__ZN4core3ptr123drop_in_place$LT$alloc..boxed..Box$LT$_sys..storage..snapshot..SnapshotStore..list_all..$u7b$$u7b$closure$u7d$$u7d$$GT$$GT$17h2b603004c72c8d36E', symObjAddr: 0x4020, symBinAddr: 0x20B4C, symSize: 0x60 }
  - { offset: 0xF478A, size: 0x8, addend: 0x0, symName: '__ZN4core3ptr123drop_in_place$LT$tokio..fs..write..write$LT$std..path..PathBuf$C$alloc..string..String$GT$..$u7b$$u7b$closure$u7d$$u7d$$GT$17h7c1d7ef9581008c4E', symObjAddr: 0x4080, symBinAddr: 0x20BAC, symSize: 0x110 }
  - { offset: 0xF4842, size: 0x8, addend: 0x0, symName: '__ZN4core3ptr124drop_in_place$LT$alloc..boxed..Box$LT$_sys..storage..snapshot..SnapshotStore..read_mmap..$u7b$$u7b$closure$u7d$$u7d$$GT$$GT$17h1cc69187534f2c41E', symObjAddr: 0x4190, symBinAddr: 0x20CBC, symSize: 0x60 }
  - { offset: 0xF4871, size: 0x8, addend: 0x0, symName: '__ZN4core3ptr124drop_in_place$LT$core..option..Option$LT$pyo3..pycell..PyRefMut$LT$_sys..bindings..prefetch_py..PyPrefetchEngine$GT$$GT$$GT$17hcb4a139be6afd934E', symObjAddr: 0x41F0, symBinAddr: 0x20D1C, symSize: 0x44 }
  - { offset: 0xF48A0, size: 0x8, addend: 0x0, symName: '__ZN4core3ptr124drop_in_place$LT$dashmap..DashMap$LT$_sys..storage..snapshot..SnapshotId$C$_sys..storage..snapshot..SnapshotMetadata$GT$$GT$17h284b3a60bf33f66aE', symObjAddr: 0x4234, symBinAddr: 0x20D60, symSize: 0x24 }
  - { offset: 0xF48CF, size: 0x8, addend: 0x0, symName: '__ZN4core3ptr126drop_in_place$LT$core..slice..sort..shared..smallsort..CopyOnDrop$LT$$LP$_sys..storage..snapshot..SnapshotId$C$f32$RP$$GT$$GT$17h986054465e8e887bE', symObjAddr: 0x42A0, symBinAddr: 0x20D84, symSize: 0x24 }
  - { offset: 0xF48FE, size: 0x8, addend: 0x0, symName: '__ZN4core3ptr126drop_in_place$LT$hashbrown..map..HashMap$LT$u32$C$_sys..prefetch..sketch..SketchIndex$C$std..hash..random..RandomState$GT$$GT$17h416b856dbcf83858E', symObjAddr: 0x42C4, symBinAddr: 0x20DA8, symSize: 0x24 }
  - { offset: 0xF492D, size: 0x8, addend: 0x0, symName: '__ZN4core3ptr126drop_in_place$LT$tokio..fs..open_options..OpenOptions..std_open$LT$$RF$std..path..PathBuf$GT$..$u7b$$u7b$closure$u7d$$u7d$$GT$17h2753b0fdbc3dd7f2E', symObjAddr: 0x430C, symBinAddr: 0x20DCC, symSize: 0xAC }
  - { offset: 0xF49D4, size: 0x8, addend: 0x0, symName: '__ZN4core3ptr126drop_in_place$LT$tokio..fs..read..read$LT$std..path..PathBuf$GT$..$u7b$$u7b$closure$u7d$$u7d$..$u7b$$u7b$closure$u7d$$u7d$$GT$17h88be9cfdf5a995c7E', symObjAddr: 0x43B8, symBinAddr: 0x20E78, symSize: 0x24 }
  - { offset: 0xF4A03, size: 0x8, addend: 0x0, symName: '__ZN4core3ptr127drop_in_place$LT$$LP$_sys..storage..snapshot..SnapshotId$C$dashmap..util..SharedValue$LT$alloc..vec..Vec$LT$f32$GT$$GT$$RP$$GT$17heddf9323dc83eb32E', symObjAddr: 0x43DC, symBinAddr: 0x20E9C, symSize: 0x24 }
  - { offset: 0xF4A32, size: 0x8, addend: 0x0, symName: '__ZN4core3ptr127drop_in_place$LT$$LP$u32$C$dashmap..util..SharedValue$LT$alloc..vec..Vec$LT$_sys..storage..snapshot..SnapshotId$GT$$GT$$RP$$GT$17h25100547d8b133a2E', symObjAddr: 0x4400, symBinAddr: 0x20EC0, symSize: 0x24 }
  - { offset: 0xF4A61, size: 0x8, addend: 0x0, symName: '__ZN4core3ptr127drop_in_place$LT$alloc..boxed..Box$LT$_sys..cache..manager..MemoryTierManager..maybe_evict..$u7b$$u7b$closure$u7d$$u7d$$GT$$GT$17h6261957520e4f802E', symObjAddr: 0x4424, symBinAddr: 0x20EE4, symSize: 0x60 }
  - { offset: 0xF4A90, size: 0x8, addend: 0x0, symName: '__ZN4core3ptr127drop_in_place$LT$tokio..runtime..task..join..JoinHandle$LT$core..result..Result$LT$$LP$$RP$$C$std..io..error..Error$GT$$GT$$GT$17h98bb987dfc743d95E', symObjAddr: 0x44A8, symBinAddr: 0x20F44, symSize: 0x24 }
  - { offset: 0xF4ABF, size: 0x8, addend: 0x0, symName: '__ZN4core3ptr128drop_in_place$LT$_sys..storage..snapshot..SnapshotStore..read_mmap..$u7b$$u7b$closure$u7d$$u7d$..$u7b$$u7b$closure$u7d$$u7d$$GT$17he70b24411e05aa0bE', symObjAddr: 0x44CC, symBinAddr: 0x20F68, symSize: 0x24 }
  - { offset: 0xF4AEE, size: 0x8, addend: 0x0, symName: '__ZN4core3ptr128drop_in_place$LT$alloc..boxed..Box$LT$_sys..storage..snapshot..SnapshotStore..list_by_layer..$u7b$$u7b$closure$u7d$$u7d$$GT$$GT$17he47bbb42a5a5cf4cE', symObjAddr: 0x44F0, symBinAddr: 0x20F8C, symSize: 0x60 }
  - { offset: 0xF4B1D, size: 0x8, addend: 0x0, symName: '__ZN4core3ptr128drop_in_place$LT$core..option..Option$LT$core..result..Result$LT$alloc..vec..Vec$LT$f32$GT$$C$_sys..error..DrexError$GT$$GT$$GT$17h15672c91eaede14aE', symObjAddr: 0x4550, symBinAddr: 0x20FEC, symSize: 0x44 }
  - { offset: 0xF4B4C, size: 0x8, addend: 0x0, symName: '__ZN4core3ptr128drop_in_place$LT$core..task..poll..Poll$LT$core..result..Result$LT$alloc..vec..Vec$LT$u8$GT$$C$std..io..error..Error$GT$$GT$$GT$17hceea9883082343f3E', symObjAddr: 0x4594, symBinAddr: 0x21030, symSize: 0x4C }
  - { offset: 0xF4B7B, size: 0x8, addend: 0x0, symName: '__ZN4core3ptr128drop_in_place$LT$dashmap..mapref..entry..VacantEntry$LT$u32$C$alloc..vec..Vec$LT$_sys..storage..snapshot..SnapshotId$GT$$GT$$GT$17h2aea4899fc627f75E', symObjAddr: 0x45E0, symBinAddr: 0x2107C, symSize: 0x24 }
  - { offset: 0xF4BAA, size: 0x8, addend: 0x0, symName: '__ZN4core3ptr128drop_in_place$LT$dashmap..mapref..multiple..RefMulti$LT$_sys..storage..snapshot..SnapshotId$C$alloc..vec..Vec$LT$f32$GT$$GT$$GT$17h761dac07c2b47531E', symObjAddr: 0x4604, symBinAddr: 0x210A0, symSize: 0x24 }
  - { offset: 0xF4BD9, size: 0x8, addend: 0x0, symName: '__ZN4core3ptr128drop_in_place$LT$zstd..stream..zio..writer..Writer$LT$$RF$mut$u20$alloc..vec..Vec$LT$u8$GT$$C$zstd..stream..raw..Encoder$GT$$GT$17h376450355dd4d984E', symObjAddr: 0x4670, symBinAddr: 0x210C4, symSize: 0x60 }
  - { offset: 0xF4C08, size: 0x8, addend: 0x0, symName: '__ZN4core3ptr130drop_in_place$LT$core..task..poll..Poll$LT$core..result..Result$LT$alloc..vec..Vec$LT$f32$GT$$C$_sys..error..DrexError$GT$$GT$$GT$17hee42df97aba743c0E', symObjAddr: 0x46D0, symBinAddr: 0x21124, symSize: 0x48 }
  - { offset: 0xF4C37, size: 0x8, addend: 0x0, symName: '__ZN4core3ptr130drop_in_place$LT$dashmap..mapref..entry..OccupiedEntry$LT$_sys..storage..snapshot..SnapshotId$C$alloc..vec..Vec$LT$f32$GT$$GT$$GT$17h756a7baa2dbb4608E', symObjAddr: 0x4718, symBinAddr: 0x2116C, symSize: 0x24 }
  - { offset: 0xF4C66, size: 0x8, addend: 0x0, symName: '__ZN4core3ptr130drop_in_place$LT$dashmap..mapref..entry..OccupiedEntry$LT$u32$C$alloc..vec..Vec$LT$_sys..storage..snapshot..SnapshotId$GT$$GT$$GT$17h21b1d66f6efc4ad7E', symObjAddr: 0x473C, symBinAddr: 0x21190, symSize: 0x24 }
  - { offset: 0xF4C95, size: 0x8, addend: 0x0, symName: '__ZN4core3ptr130drop_in_place$LT$tokio..fs..read..read$LT$$RF$std..path..PathBuf$GT$..$u7b$$u7b$closure$u7d$$u7d$..$u7b$$u7b$closure$u7d$$u7d$$GT$17h96422c92d669f7e7E', symObjAddr: 0x4760, symBinAddr: 0x211B4, symSize: 0x24 }
  - { offset: 0xF4CC4, size: 0x8, addend: 0x0, symName: '__ZN4core3ptr130drop_in_place$LT$tokio..fs..rename..rename$LT$$RF$std..path..PathBuf$C$$RF$std..path..PathBuf$GT$..$u7b$$u7b$closure$u7d$$u7d$$GT$17h3e183941bd1bf9eaE', symObjAddr: 0x4784, symBinAddr: 0x211D8, symSize: 0xA0 }
  - { offset: 0xF4D82, size: 0x8, addend: 0x0, symName: '__ZN4core3ptr131drop_in_place$LT$alloc..vec..Vec$LT$u8$GT$..extend_trusted$LT$core..option..IntoIter$LT$u8$GT$$GT$..$u7b$$u7b$closure$u7d$$u7d$$GT$17h69f2a5b5070b47caE', symObjAddr: 0x4824, symBinAddr: 0x21278, symSize: 0x24 }
  - { offset: 0xF4DB1, size: 0x8, addend: 0x0, symName: '__ZN4core3ptr131drop_in_place$LT$core..option..Option$LT$core..result..Result$LT$alloc..vec..Vec$LT$f32$GT$$C$_sys..error..StorageError$GT$$GT$$GT$17h4482994d63c9e7c5E', symObjAddr: 0x486C, symBinAddr: 0x2129C, symSize: 0x44 }
  - { offset: 0xF4DE0, size: 0x8, addend: 0x0, symName: '__ZN4core3ptr131drop_in_place$LT$core..task..poll..Poll$LT$core..result..Result$LT$tokio..fs..read_dir..ReadDir$C$std..io..error..Error$GT$$GT$$GT$17hc92dc1548a4b2bb9E', symObjAddr: 0x48B0, symBinAddr: 0x212E0, symSize: 0x4C }
  - { offset: 0xF4E0F, size: 0x8, addend: 0x0, symName: '__ZN4core3ptr132drop_in_place$LT$tokio..runtime..task..join..JoinHandle$LT$core..result..Result$LT$std..fs..File$C$std..io..error..Error$GT$$GT$$GT$17hd4eb0836b1d61ef7E', symObjAddr: 0x48FC, symBinAddr: 0x2132C, symSize: 0x24 }
  - { offset: 0xF4E3E, size: 0x8, addend: 0x0, symName: '__ZN4core3ptr133drop_in_place$LT$alloc..sync..Arc$LT$dashmap..DashMap$LT$_sys..storage..snapshot..SnapshotId$C$alloc..vec..Vec$LT$f32$GT$$GT$$GT$$GT$17h51020a07a4e1cff3E', symObjAddr: 0x4920, symBinAddr: 0x21350, symSize: 0x24 }
  - { offset: 0xF4E6D, size: 0x8, addend: 0x0, symName: '__ZN4core3ptr133drop_in_place$LT$core..task..poll..Poll$LT$core..result..Result$LT$alloc..vec..Vec$LT$f32$GT$$C$_sys..error..StorageError$GT$$GT$$GT$17h5a0999f794f9283bE', symObjAddr: 0x4944, symBinAddr: 0x21374, symSize: 0x48 }
  - { offset: 0xF4E9C, size: 0x8, addend: 0x0, symName: '__ZN4core3ptr133drop_in_place$LT$dashmap..mapref..one..Ref$LT$_sys..storage..snapshot..SnapshotId$C$_sys..storage..snapshot..SnapshotMetadata$GT$$GT$17h1adfb44828dcf002E', symObjAddr: 0x498C, symBinAddr: 0x213BC, symSize: 0x24 }
  - { offset: 0xF4ECB, size: 0x8, addend: 0x0, symName: '__ZN4core3ptr135drop_in_place$LT$tokio..fs..write..write$LT$$RF$std..path..PathBuf$C$$RF$alloc..vec..Vec$LT$u8$GT$$GT$..$u7b$$u7b$closure$u7d$$u7d$$GT$17hd049426a9d663740E', symObjAddr: 0x49D4, symBinAddr: 0x213E0, symSize: 0xA4 }
  - { offset: 0xF4F88, size: 0x8, addend: 0x0, symName: '__ZN4core3ptr136drop_in_place$LT$dashmap..mapref..one..RefMut$LT$_sys..storage..snapshot..SnapshotId$C$_sys..storage..snapshot..SnapshotMetadata$GT$$GT$17hbb789901d7d28533E', symObjAddr: 0x4A78, symBinAddr: 0x21484, symSize: 0x24 }
  - { offset: 0xF4FB7, size: 0x8, addend: 0x0, symName: '__ZN4core3ptr137drop_in_place$LT$tokio..runtime..task..LocalNotified$LT$alloc..sync..Arc$LT$tokio..runtime..scheduler..current_thread..Handle$GT$$GT$$GT$17he882ed1a765f29edE', symObjAddr: 0x4A9C, symBinAddr: 0x214A8, symSize: 0x24 }
  - { offset: 0xF4FE6, size: 0x8, addend: 0x0, symName: '__ZN4core3ptr1382drop_in_place$LT$core..iter..adapters..map..map_fold$LT$usize$C$crossbeam_utils..cache_padded..CachePadded$LT$lock_api..rwlock..RwLock$LT$dashmap..lock..RawRwLock$C$hashbrown..raw..inner..RawTable$LT$$LP$$LP$u32$C$u32$RP$$C$dashmap..util..SharedValue$LT$_sys..cache..eviction..H2OScore$GT$$RP$$GT$$GT$$GT$$C$$LP$$RP$$C$dashmap..DashMap$LT$$LP$u32$C$u32$RP$$C$_sys..cache..eviction..H2OScore$GT$..with_capacity_and_hasher_and_shard_amount..$u7b$$u7b$closure$u7d$$u7d$$C$core..iter..traits..iterator..Iterator..for_each..call$LT$crossbeam_utils..cache_padded..CachePadded$LT$lock_api..rwlock..RwLock$LT$dashmap..lock..RawRwLock$C$hashbrown..raw..inner..RawTable$LT$$LP$$LP$u32$C$u32$RP$$C$dashmap..util..SharedValue$LT$_sys..cache..eviction..H2OScore$GT$$RP$$GT$$GT$$GT$$C$alloc..vec..Vec$LT$crossbeam_utils..cache_padded..CachePadded$LT$lock_api..rwlock..RwLock$LT$dashmap..lock..RawRwLock$C$hashbrown..raw..inner..RawTable$LT$$LP$$LP$u32$C$u32$RP$$C$dashmap..util..SharedValue$LT$_sys..cache..eviction..H2OScore$GT$$RP$$GT$$GT$$GT$$GT$..extend_trusted$LT$core..iter..adapters..map..Map$LT$core..ops..range..Range$LT$usize$GT$$C$dashmap..DashMap$LT$$LP$u32$C$u32$RP$$C$_sys..cache..eviction..H2OScore$GT$..with_capacity_and_hasher_and_shard_amount..$u7b$$u7b$closure$u7d$$u7d$$GT$$GT$..$u7b$$u7b$closure$u7d$$u7d$$GT$..$u7b$$u7b$closure$u7d$$u7d$$GT$..$u7b$$u7b$closure$u7d$$u7d$$GT$17hb025767ec9765612E', symObjAddr: 0x4AC0, symBinAddr: 0x214CC, symSize: 0x24 }
  - { offset: 0xF5015, size: 0x8, addend: 0x0, symName: '__ZN4core3ptr138drop_in_place$LT$alloc..sync..ArcInner$LT$dashmap..DashMap$LT$_sys..storage..snapshot..SnapshotId$C$alloc..vec..Vec$LT$f32$GT$$GT$$GT$$GT$17hd7aeba8aeff62f20E', symObjAddr: 0x4AE4, symBinAddr: 0x214F0, symSize: 0x24 }
  - { offset: 0xF5044, size: 0x8, addend: 0x0, symName: '__ZN4core3ptr138drop_in_place$LT$tokio..fs..read_dir..read_dir$LT$$RF$std..path..PathBuf$GT$..$u7b$$u7b$closure$u7d$$u7d$..$u7b$$u7b$closure$u7d$$u7d$$GT$17h2c6b9a8b1cac7845E', symObjAddr: 0x4B08, symBinAddr: 0x21514, symSize: 0x24 }
  - { offset: 0xF5073, size: 0x8, addend: 0x0, symName: '__ZN4core3ptr139drop_in_place$LT$alloc..sync..ArcInner$LT$tokio..runtime..builder..Builder..thread_name$LT$$RF$str$GT$..$u7b$$u7b$closure$u7d$$u7d$$GT$$GT$17h1e33877f59c1420cE', symObjAddr: 0x4B2C, symBinAddr: 0x21538, symSize: 0x24 }
  - { offset: 0xF50A2, size: 0x8, addend: 0x0, symName: '__ZN4core3ptr139drop_in_place$LT$tokio..runtime..task..core..Stage$LT$_sys..prefetch..engine..PrefetchEngine..prefetch..$u7b$$u7b$closure$u7d$$u7d$$GT$$GT$17h8394f088dbe51d4cE', symObjAddr: 0x4B50, symBinAddr: 0x2155C, symSize: 0x64 }
  - { offset: 0xF50D1, size: 0x8, addend: 0x0, symName: '__ZN4core3ptr140drop_in_place$LT$core..task..poll..Poll$LT$core..option..Option$LT$core..result..Result$LT$$LP$$RP$$C$_sys..error..DrexError$GT$$GT$$GT$$GT$17h15e35f303384e711E', symObjAddr: 0x4BB4, symBinAddr: 0x215C0, symSize: 0x48 }
  - { offset: 0xF5100, size: 0x8, addend: 0x0, symName: '__ZN4core3ptr141drop_in_place$LT$core..pin..Pin$LT$alloc..boxed..Box$LT$_sys..storage..snapshot..SnapshotStore..read..$u7b$$u7b$closure$u7d$$u7d$$GT$$GT$$GT$17h2ddaf14c7b449304E', symObjAddr: 0x4BFC, symBinAddr: 0x21608, symSize: 0x24 }
  - { offset: 0xF512F, size: 0x8, addend: 0x0, symName: '__ZN4core3ptr141drop_in_place$LT$core..result..Result$LT$alloc..vec..Vec$LT$_sys..storage..snapshot..SnapshotMetadata$GT$$C$_sys..error..StorageError$GT$$GT$17h032def9ce200b85aE', symObjAddr: 0x4C20, symBinAddr: 0x2162C, symSize: 0x54 }
  - { offset: 0xF515E, size: 0x8, addend: 0x0, symName: '__ZN4core3ptr142drop_in_place$LT$alloc..boxed..Box$LT$tokio..fs..write..write_spawn_blocking..$u7b$$u7b$closure$u7d$$u7d$..$u7b$$u7b$closure$u7d$$u7d$$GT$$GT$17h91ecebf06278a8ceE', symObjAddr: 0x4C74, symBinAddr: 0x21680, symSize: 0x60 }
  - { offset: 0xF518D, size: 0x8, addend: 0x0, symName: '__ZN4core3ptr142drop_in_place$LT$core..option..Option$LT$core..result..Result$LT$alloc..vec..Vec$LT$$LP$u32$C$u32$RP$$GT$$C$_sys..error..DrexError$GT$$GT$$GT$17h9e3b0a0835bd8c62E', symObjAddr: 0x4CD4, symBinAddr: 0x216E0, symSize: 0x44 }
  - { offset: 0xF51BC, size: 0x8, addend: 0x0, symName: '__ZN4core3ptr142drop_in_place$LT$core..pin..Pin$LT$alloc..boxed..Box$LT$_sys..storage..snapshot..SnapshotStore..write..$u7b$$u7b$closure$u7d$$u7d$$GT$$GT$$GT$17ha0f8166c8e7ad161E', symObjAddr: 0x4D18, symBinAddr: 0x21724, symSize: 0x24 }
  - { offset: 0xF51EB, size: 0x8, addend: 0x0, symName: '__ZN4core3ptr142drop_in_place$LT$core..result..Result$LT$alloc..vec..Vec$LT$_sys..bindings..storage_py..PySnapshotMeta$GT$$C$_sys..error..StorageError$GT$$GT$17h1c90b7d1bd4920d7E', symObjAddr: 0x4D3C, symBinAddr: 0x21748, symSize: 0x54 }
  - { offset: 0xF521A, size: 0x8, addend: 0x0, symName: '__ZN4core3ptr143drop_in_place$LT$core..pin..Pin$LT$alloc..boxed..Box$LT$_sys..storage..snapshot..SnapshotStore..delete..$u7b$$u7b$closure$u7d$$u7d$$GT$$GT$$GT$17h81af79fb98b4be08E', symObjAddr: 0x4D90, symBinAddr: 0x2179C, symSize: 0x24 }
  - { offset: 0xF5249, size: 0x8, addend: 0x0, symName: '__ZN4core3ptr143drop_in_place$LT$core..pin..Pin$LT$alloc..boxed..Box$LT$_sys..storage..snapshot..SnapshotStore..exists..$u7b$$u7b$closure$u7d$$u7d$$GT$$GT$$GT$17hea1d9b46253a5190E', symObjAddr: 0x4DB4, symBinAddr: 0x217C0, symSize: 0x24 }
  - { offset: 0xF5278, size: 0x8, addend: 0x0, symName: '__ZN4core3ptr143drop_in_place$LT$core..task..poll..Poll$LT$core..option..Option$LT$core..result..Result$LT$$LP$$RP$$C$_sys..error..StorageError$GT$$GT$$GT$$GT$17h4f4f04dd8abd7bc1E', symObjAddr: 0x4DD8, symBinAddr: 0x217E4, symSize: 0x48 }
  - { offset: 0xF52A7, size: 0x8, addend: 0x0, symName: '__ZN4core3ptr143drop_in_place$LT$tokio..runtime..task..core..CoreStage$LT$_sys..prefetch..engine..PrefetchEngine..prefetch..$u7b$$u7b$closure$u7d$$u7d$$GT$$GT$17h759110174e7b5cb1E', symObjAddr: 0x4E20, symBinAddr: 0x2182C, symSize: 0x24 }
  - { offset: 0xF52D6, size: 0x8, addend: 0x0, symName: '__ZN4core3ptr1447drop_in_place$LT$core..iter..adapters..map..map_fold$LT$usize$C$crossbeam_utils..cache_padded..CachePadded$LT$lock_api..rwlock..RwLock$LT$dashmap..lock..RawRwLock$C$hashbrown..raw..inner..RawTable$LT$$LP$_sys..storage..snapshot..SnapshotId$C$dashmap..util..SharedValue$LT$alloc..vec..Vec$LT$f32$GT$$GT$$RP$$GT$$GT$$GT$$C$$LP$$RP$$C$dashmap..DashMap$LT$_sys..storage..snapshot..SnapshotId$C$alloc..vec..Vec$LT$f32$GT$$GT$..with_capacity_and_hasher_and_shard_amount..$u7b$$u7b$closure$u7d$$u7d$$C$core..iter..traits..iterator..Iterator..for_each..call$LT$crossbeam_utils..cache_padded..CachePadded$LT$lock_api..rwlock..RwLock$LT$dashmap..lock..RawRwLock$C$hashbrown..raw..inner..RawTable$LT$$LP$_sys..storage..snapshot..SnapshotId$C$dashmap..util..SharedValue$LT$alloc..vec..Vec$LT$f32$GT$$GT$$RP$$GT$$GT$$GT$$C$alloc..vec..Vec$LT$crossbeam_utils..cache_padded..CachePadded$LT$lock_api..rwlock..RwLock$LT$dashmap..lock..RawRwLock$C$hashbrown..raw..inner..RawTable$LT$$LP$_sys..storage..snapshot..SnapshotId$C$dashmap..util..SharedValue$LT$alloc..vec..Vec$LT$f32$GT$$GT$$RP$$GT$$GT$$GT$$GT$..extend_trusted$LT$core..iter..adapters..map..Map$LT$core..ops..range..Range$LT$usize$GT$$C$dashmap..DashMap$LT$_sys..storage..snapshot..SnapshotId$C$alloc..vec..Vec$LT$f32$GT$$GT$..with_capacity_and_hasher_and_shard_amount..$u7b$$u7b$closure$u7d$$u7d$$GT$$GT$..$u7b$$u7b$closure$u7d$$u7d$$GT$..$u7b$$u7b$closure$u7d$$u7d$$GT$..$u7b$$u7b$closure$u7d$$u7d$$GT$17hdaadc49ee426d5c9E', symObjAddr: 0x4E44, symBinAddr: 0x21850, symSize: 0x24 }
  - { offset: 0xF5305, size: 0x8, addend: 0x0, symName: '__ZN4core3ptr1447drop_in_place$LT$core..iter..adapters..map..map_fold$LT$usize$C$crossbeam_utils..cache_padded..CachePadded$LT$lock_api..rwlock..RwLock$LT$dashmap..lock..RawRwLock$C$hashbrown..raw..inner..RawTable$LT$$LP$u32$C$dashmap..util..SharedValue$LT$alloc..vec..Vec$LT$_sys..storage..snapshot..SnapshotId$GT$$GT$$RP$$GT$$GT$$GT$$C$$LP$$RP$$C$dashmap..DashMap$LT$u32$C$alloc..vec..Vec$LT$_sys..storage..snapshot..SnapshotId$GT$$GT$..with_capacity_and_hasher_and_shard_amount..$u7b$$u7b$closure$u7d$$u7d$$C$core..iter..traits..iterator..Iterator..for_each..call$LT$crossbeam_utils..cache_padded..CachePadded$LT$lock_api..rwlock..RwLock$LT$dashmap..lock..RawRwLock$C$hashbrown..raw..inner..RawTable$LT$$LP$u32$C$dashmap..util..SharedValue$LT$alloc..vec..Vec$LT$_sys..storage..snapshot..SnapshotId$GT$$GT$$RP$$GT$$GT$$GT$$C$alloc..vec..Vec$LT$crossbeam_utils..cache_padded..CachePadded$LT$lock_api..rwlock..RwLock$LT$dashmap..lock..RawRwLock$C$hashbrown..raw..inner..RawTable$LT$$LP$u32$C$dashmap..util..SharedValue$LT$alloc..vec..Vec$LT$_sys..storage..snapshot..SnapshotId$GT$$GT$$RP$$GT$$GT$$GT$$GT$..extend_trusted$LT$core..iter..adapters..map..Map$LT$core..ops..range..Range$LT$usize$GT$$C$dashmap..DashMap$LT$u32$C$alloc..vec..Vec$LT$_sys..storage..snapshot..SnapshotId$GT$$GT$..with_capacity_and_hasher_and_shard_amount..$u7b$$u7b$closure$u7d$$u7d$$GT$$GT$..$u7b$$u7b$closure$u7d$$u7d$$GT$..$u7b$$u7b$closure$u7d$$u7d$$GT$..$u7b$$u7b$closure$u7d$$u7d$$GT$17h4f2cfcf9c4c2d1f4E', symObjAddr: 0x4E68, symBinAddr: 0x21874, symSize: 0x24 }
  - { offset: 0xF5334, size: 0x8, addend: 0x0, symName: '__ZN4core3ptr144drop_in_place$LT$alloc..vec..Vec$LT$T$C$A$GT$..retain_mut..BackshiftOnDrop$LT$_sys..storage..snapshot..SnapshotId$C$alloc..alloc..Global$GT$$GT$17h583e2d0884fb9ebbE', symObjAddr: 0x4E8C, symBinAddr: 0x21898, symSize: 0x24 }
  - { offset: 0xF5363, size: 0x8, addend: 0x0, symName: '__ZN4core3ptr144drop_in_place$LT$core..pin..Pin$LT$alloc..boxed..Box$LT$_sys..cache..manager..MemoryTierManager..demote..$u7b$$u7b$closure$u7d$$u7d$$GT$$GT$$GT$17hb1373c9992e509f2E', symObjAddr: 0x4EB0, symBinAddr: 0x218BC, symSize: 0x24 }
  - { offset: 0xF5392, size: 0x8, addend: 0x0, symName: '__ZN4core3ptr144drop_in_place$LT$core..task..poll..Poll$LT$core..result..Result$LT$alloc..vec..Vec$LT$$LP$u32$C$u32$RP$$GT$$C$_sys..error..DrexError$GT$$GT$$GT$17h9fbe593d143a3f85E', symObjAddr: 0x4ED4, symBinAddr: 0x218E0, symSize: 0x48 }
  - { offset: 0xF53C1, size: 0x8, addend: 0x0, symName: '__ZN4core3ptr144drop_in_place$LT$tokio..fs..remove_file..remove_file$LT$$RF$std..path..PathBuf$GT$..$u7b$$u7b$closure$u7d$$u7d$..$u7b$$u7b$closure$u7d$$u7d$$GT$17h07a1e1b0b68efbabE', symObjAddr: 0x4F1C, symBinAddr: 0x21928, symSize: 0x24 }
  - { offset: 0xF53F0, size: 0x8, addend: 0x0, symName: '__ZN4core3ptr144drop_in_place$LT$tokio..runtime..task..join..JoinHandle$LT$core..result..Result$LT$alloc..vec..Vec$LT$u8$GT$$C$std..io..error..Error$GT$$GT$$GT$17h4b21ff770415c7caE', symObjAddr: 0x4F40, symBinAddr: 0x2194C, symSize: 0x24 }
  - { offset: 0xF541F, size: 0x8, addend: 0x0, symName: '__ZN4core3ptr145drop_in_place$LT$core..array..iter..iter_inner..PolymorphicIter$LT$$u5b$core..mem..maybe_uninit..MaybeUninit$LT$usize$GT$$u3b$$u20$2$u5d$$GT$$GT$17hba7a8f3a07b7a05fE', symObjAddr: 0x4F64, symBinAddr: 0x21970, symSize: 0x24 }
  - { offset: 0xF544E, size: 0x8, addend: 0x0, symName: '__ZN4core3ptr145drop_in_place$LT$core..option..Option$LT$tokio..fs..write..write_spawn_blocking..$u7b$$u7b$closure$u7d$$u7d$..$u7b$$u7b$closure$u7d$$u7d$$GT$$GT$17h4178f6122325d54dE', symObjAddr: 0x4F88, symBinAddr: 0x21994, symSize: 0x48 }
  - { offset: 0xF547D, size: 0x8, addend: 0x0, symName: '__ZN4core3ptr145drop_in_place$LT$core..pin..Pin$LT$alloc..boxed..Box$LT$_sys..cache..manager..MemoryTierManager..promote..$u7b$$u7b$closure$u7d$$u7d$$GT$$GT$$GT$17h6e6a8dab18364b0bE', symObjAddr: 0x4FD0, symBinAddr: 0x219DC, symSize: 0x24 }
  - { offset: 0xF54AC, size: 0x8, addend: 0x0, symName: '__ZN4core3ptr145drop_in_place$LT$core..pin..Pin$LT$alloc..boxed..Box$LT$_sys..prefetch..engine..PrefetchEngine..prefetch..$u7b$$u7b$closure$u7d$$u7d$$GT$$GT$$GT$17h4a878f26a076502eE', symObjAddr: 0x4FF4, symBinAddr: 0x21A00, symSize: 0x24 }
  - { offset: 0xF54DB, size: 0x8, addend: 0x0, symName: '__ZN4core3ptr145drop_in_place$LT$core..pin..Pin$LT$alloc..boxed..Box$LT$_sys..storage..snapshot..SnapshotStore..list_all..$u7b$$u7b$closure$u7d$$u7d$$GT$$GT$$GT$17hac11ef3081261aa2E', symObjAddr: 0x5018, symBinAddr: 0x21A24, symSize: 0x24 }
  - { offset: 0xF550A, size: 0x8, addend: 0x0, symName: '__ZN4core3ptr145drop_in_place$LT$dashmap..mapref..entry..OccupiedEntry$LT$_sys..storage..snapshot..SnapshotId$C$_sys..storage..snapshot..SnapshotMetadata$GT$$GT$17had7f2b8ef5f81e8dE', symObjAddr: 0x503C, symBinAddr: 0x21A48, symSize: 0x24 }
  - { offset: 0xF5539, size: 0x8, addend: 0x0, symName: '__ZN4core3ptr146drop_in_place$LT$core..option..Option$LT$core..result..Result$LT$_sys..storage..snapshot..SnapshotMetadata$C$_sys..error..StorageError$GT$$GT$$GT$17hce854430d8db6535E', symObjAddr: 0x5060, symBinAddr: 0x21A6C, symSize: 0x44 }
  - { offset: 0xF5568, size: 0x8, addend: 0x0, symName: '__ZN4core3ptr146drop_in_place$LT$core..option..Option$LT$dashmap..mapref..one..Ref$LT$_sys..storage..snapshot..SnapshotId$C$alloc..vec..Vec$LT$f32$GT$$GT$$GT$$GT$17hcaf932c8e6369134E', symObjAddr: 0x50A4, symBinAddr: 0x21AB0, symSize: 0x44 }
  - { offset: 0xF5597, size: 0x8, addend: 0x0, symName: '__ZN4core3ptr146drop_in_place$LT$core..pin..Pin$LT$alloc..boxed..Box$LT$_sys..storage..snapshot..SnapshotStore..read_mmap..$u7b$$u7b$closure$u7d$$u7d$$GT$$GT$$GT$17h81e5def703391d14E', symObjAddr: 0x50E8, symBinAddr: 0x21AF4, symSize: 0x24 }
  - { offset: 0xF55C6, size: 0x8, addend: 0x0, symName: '__ZN4core3ptr147drop_in_place$LT$tokio..runtime..task..join..JoinHandle$LT$core..result..Result$LT$tokio..fs..read_dir..ReadDir$C$std..io..error..Error$GT$$GT$$GT$17hfb18d8aea6c1a584E', symObjAddr: 0x510C, symBinAddr: 0x21B18, symSize: 0x24 }
  - { offset: 0xF55F5, size: 0x8, addend: 0x0, symName: '__ZN4core3ptr148drop_in_place$LT$core..task..poll..Poll$LT$core..result..Result$LT$_sys..storage..snapshot..SnapshotMetadata$C$_sys..error..StorageError$GT$$GT$$GT$17h8aaf625d1a8cba17E', symObjAddr: 0x5130, symBinAddr: 0x21B3C, symSize: 0x48 }
  - { offset: 0xF5624, size: 0x8, addend: 0x0, symName: '__ZN4core3ptr149drop_in_place$LT$core..iter..adapters..take..Take$LT$alloc..vec..into_iter..IntoIter$LT$$LP$_sys..storage..snapshot..SnapshotId$C$f32$RP$$GT$$GT$$GT$17h30d4b8f524bc4050E', symObjAddr: 0x5178, symBinAddr: 0x21B84, symSize: 0x24 }
  - { offset: 0xF5653, size: 0x8, addend: 0x0, symName: '__ZN4core3ptr149drop_in_place$LT$core..pin..Pin$LT$alloc..boxed..Box$LT$_sys..cache..manager..MemoryTierManager..maybe_evict..$u7b$$u7b$closure$u7d$$u7d$$GT$$GT$$GT$17hd5afd5aeb418a27eE', symObjAddr: 0x519C, symBinAddr: 0x21BA8, symSize: 0x24 }
  - { offset: 0xF5682, size: 0x8, addend: 0x0, symName: '__ZN4core3ptr149drop_in_place$LT$tokio..runtime..task..join..JoinHandle$LT$core..result..Result$LT$alloc..vec..Vec$LT$f32$GT$$C$_sys..error..StorageError$GT$$GT$$GT$17hc946bde1f4b15d15E', symObjAddr: 0x51C0, symBinAddr: 0x21BCC, symSize: 0x24 }
  - { offset: 0xF56B1, size: 0x8, addend: 0x0, symName: '__ZN4core3ptr150drop_in_place$LT$core..pin..Pin$LT$alloc..boxed..Box$LT$_sys..storage..snapshot..SnapshotStore..list_by_layer..$u7b$$u7b$closure$u7d$$u7d$$GT$$GT$$GT$17h3a16de47bf22ea50E', symObjAddr: 0x51E4, symBinAddr: 0x21BF0, symSize: 0x24 }
  - { offset: 0xF56E0, size: 0x8, addend: 0x0, symName: '__ZN4core3ptr150drop_in_place$LT$core..result..Result$LT$core..result..Result$LT$$LP$$RP$$C$std..io..error..Error$GT$$C$tokio..runtime..task..error..JoinError$GT$$GT$17h59b14be345bbecd0E', symObjAddr: 0x5208, symBinAddr: 0x21C14, symSize: 0x54 }
  - { offset: 0xF570F, size: 0x8, addend: 0x0, symName: '__ZN4core3ptr150drop_in_place$LT$zstd..stream..read..Decoder$LT$std..io..buffered..bufreader..BufReader$LT$std..io..cursor..Cursor$LT$$RF$$u5b$u8$u5d$$GT$$GT$$GT$$GT$17h3ee71c5c09f89c6eE', symObjAddr: 0x525C, symBinAddr: 0x21C68, symSize: 0x24 }
  - { offset: 0xF573E, size: 0x8, addend: 0x0, symName: '__ZN4core3ptr151drop_in_place$LT$alloc..boxed..Box$LT$tokio..fs..read..read$LT$std..path..PathBuf$GT$..$u7b$$u7b$closure$u7d$$u7d$..$u7b$$u7b$closure$u7d$$u7d$$GT$$GT$17h7b1c2d71feaa31e0E', symObjAddr: 0x5280, symBinAddr: 0x21C8C, symSize: 0x60 }
  - { offset: 0xF576D, size: 0x8, addend: 0x0, symName: '__ZN4core3ptr1522drop_in_place$LT$core..iter..adapters..map..map_fold$LT$usize$C$crossbeam_utils..cache_padded..CachePadded$LT$lock_api..rwlock..RwLock$LT$dashmap..lock..RawRwLock$C$hashbrown..raw..inner..RawTable$LT$$LP$_sys..storage..snapshot..SnapshotId$C$dashmap..util..SharedValue$LT$_sys..storage..snapshot..SnapshotMetadata$GT$$RP$$GT$$GT$$GT$$C$$LP$$RP$$C$dashmap..DashMap$LT$_sys..storage..snapshot..SnapshotId$C$_sys..storage..snapshot..SnapshotMetadata$GT$..with_capacity_and_hasher_and_shard_amount..$u7b$$u7b$closure$u7d$$u7d$$C$core..iter..traits..iterator..Iterator..for_each..call$LT$crossbeam_utils..cache_padded..CachePadded$LT$lock_api..rwlock..RwLock$LT$dashmap..lock..RawRwLock$C$hashbrown..raw..inner..RawTable$LT$$LP$_sys..storage..snapshot..SnapshotId$C$dashmap..util..SharedValue$LT$_sys..storage..snapshot..SnapshotMetadata$GT$$RP$$GT$$GT$$GT$$C$alloc..vec..Vec$LT$crossbeam_utils..cache_padded..CachePadded$LT$lock_api..rwlock..RwLock$LT$dashmap..lock..RawRwLock$C$hashbrown..raw..inner..RawTable$LT$$LP$_sys..storage..snapshot..SnapshotId$C$dashmap..util..SharedValue$LT$_sys..storage..snapshot..SnapshotMetadata$GT$$RP$$GT$$GT$$GT$$GT$..extend_trusted$LT$core..iter..adapters..map..Map$LT$core..ops..range..Range$LT$usize$GT$$C$dashmap..DashMap$LT$_sys..storage..snapshot..SnapshotId$C$_sys..storage..snapshot..SnapshotMetadata$GT$..with_capacity_and_hasher_and_shard_amount..$u7b$$u7b$closure$u7d$$u7d$$GT$$GT$..$u7b$$u7b$closure$u7d$$u7d$$GT$..$u7b$$u7b$closure$u7d$$u7d$$GT$..$u7b$$u7b$closure$u7d$$u7d$$GT$17hdce76df9eae14ac9E', symObjAddr: 0x52E0, symBinAddr: 0x21CEC, symSize: 0x24 }
  - { offset: 0xF579C, size: 0x8, addend: 0x0, symName: '__ZN4core3ptr153drop_in_place$LT$alloc..boxed..Box$LT$_sys..storage..snapshot..SnapshotStore..read_mmap..$u7b$$u7b$closure$u7d$$u7d$..$u7b$$u7b$closure$u7d$$u7d$$GT$$GT$17h2ce260cef39577b0E', symObjAddr: 0x5304, symBinAddr: 0x21D10, symSize: 0x60 }
  - { offset: 0xF57CB, size: 0x8, addend: 0x0, symName: '__ZN4core3ptr153drop_in_place$LT$hashbrown..raw..inner..RawTable$LT$$LP$$LP$u32$C$u32$RP$$C$dashmap..util..SharedValue$LT$_sys..cache..eviction..H2OScore$GT$$RP$$GT$$GT$17hcf0699d1383a7a87E', symObjAddr: 0x5364, symBinAddr: 0x21D70, symSize: 0x24 }
  - { offset: 0xF57FA, size: 0x8, addend: 0x0, symName: '__ZN4core3ptr154drop_in_place$LT$core..option..Option$LT$tokio..fs..read..read$LT$std..path..PathBuf$GT$..$u7b$$u7b$closure$u7d$$u7d$..$u7b$$u7b$closure$u7d$$u7d$$GT$$GT$17h6186f92bc3a2596dE', symObjAddr: 0x5388, symBinAddr: 0x21D94, symSize: 0x48 }
  - { offset: 0xF5829, size: 0x8, addend: 0x0, symName: '__ZN4core3ptr155drop_in_place$LT$alloc..boxed..Box$LT$tokio..fs..read..read$LT$$RF$std..path..PathBuf$GT$..$u7b$$u7b$closure$u7d$$u7d$..$u7b$$u7b$closure$u7d$$u7d$$GT$$GT$17hb175b0fbc4e7fb89E', symObjAddr: 0x53D0, symBinAddr: 0x21DDC, symSize: 0x60 }
  - { offset: 0xF5858, size: 0x8, addend: 0x0, symName: '__ZN4core3ptr155drop_in_place$LT$core..result..Result$LT$core..result..Result$LT$std..fs..File$C$std..io..error..Error$GT$$C$tokio..runtime..task..error..JoinError$GT$$GT$17h5cb3d85949192ff3E', symObjAddr: 0x5430, symBinAddr: 0x21E3C, symSize: 0x54 }
  - { offset: 0xF5887, size: 0x8, addend: 0x0, symName: '__ZN4core3ptr155drop_in_place$LT$tokio..fs..open_options..OpenOptions..std_open$LT$$RF$std..path..PathBuf$GT$..$u7b$$u7b$closure$u7d$$u7d$..$u7b$$u7b$closure$u7d$$u7d$$GT$17hd956be74986097aaE', symObjAddr: 0x5484, symBinAddr: 0x21E90, symSize: 0x24 }
  - { offset: 0xF58B6, size: 0x8, addend: 0x0, symName: '__ZN4core3ptr156drop_in_place$LT$core..option..Option$LT$_sys..storage..snapshot..SnapshotStore..read_mmap..$u7b$$u7b$closure$u7d$$u7d$..$u7b$$u7b$closure$u7d$$u7d$$GT$$GT$17h844325f64378227eE', symObjAddr: 0x54A8, symBinAddr: 0x21EB4, symSize: 0x48 }
  - { offset: 0xF58E5, size: 0x8, addend: 0x0, symName: '__ZN4core3ptr156drop_in_place$LT$core..option..Option$LT$dashmap..mapref..multiple..RefMulti$LT$_sys..storage..snapshot..SnapshotId$C$alloc..vec..Vec$LT$f32$GT$$GT$$GT$$GT$17h27d81c81458726e9E', symObjAddr: 0x54F0, symBinAddr: 0x21EFC, symSize: 0x44 }
  - { offset: 0xF5914, size: 0x8, addend: 0x0, symName: '__ZN4core3ptr157drop_in_place$LT$$LT$alloc..vec..into_iter..IntoIter$LT$T$C$A$GT$$u20$as$u20$core..ops..drop..Drop$GT$..drop..DropGuard$LT$f32$C$alloc..alloc..Global$GT$$GT$17ha30cda0501a31cb6E', symObjAddr: 0x5534, symBinAddr: 0x21F40, symSize: 0x24 }
  - { offset: 0xF5943, size: 0x8, addend: 0x0, symName: '__ZN4core3ptr158drop_in_place$LT$core..option..Option$LT$tokio..fs..read..read$LT$$RF$std..path..PathBuf$GT$..$u7b$$u7b$closure$u7d$$u7d$..$u7b$$u7b$closure$u7d$$u7d$$GT$$GT$17h6f847893328ccd98E', symObjAddr: 0x5558, symBinAddr: 0x21F64, symSize: 0x48 }
  - { offset: 0xF5972, size: 0x8, addend: 0x0, symName: '__ZN4core3ptr158drop_in_place$LT$core..task..poll..Poll$LT$core..option..Option$LT$core..result..Result$LT$alloc..vec..Vec$LT$f32$GT$$C$_sys..error..DrexError$GT$$GT$$GT$$GT$17h397876e63c57f470E', symObjAddr: 0x55A0, symBinAddr: 0x21FAC, symSize: 0x48 }
  - { offset: 0xF59A1, size: 0x8, addend: 0x0, symName: '__ZN4core3ptr159drop_in_place$LT$tokio..fs..rename..rename$LT$$RF$std..path..PathBuf$C$$RF$std..path..PathBuf$GT$..$u7b$$u7b$closure$u7d$$u7d$..$u7b$$u7b$closure$u7d$$u7d$$GT$17hd3ed7785a0ad5cf9E', symObjAddr: 0x55E8, symBinAddr: 0x21FF4, symSize: 0x60 }
  - { offset: 0xF59D0, size: 0x8, addend: 0x0, symName: '__ZN4core3ptr161drop_in_place$LT$alloc..sync..Weak$LT$dashmap..DashMap$LT$_sys..storage..snapshot..SnapshotId$C$alloc..vec..Vec$LT$f32$GT$$GT$$C$$RF$alloc..alloc..Global$GT$$GT$17h8eb8e91c78dee7ccE', symObjAddr: 0x5648, symBinAddr: 0x22054, symSize: 0x24 }
  - { offset: 0xF59FF, size: 0x8, addend: 0x0, symName: '__ZN4core3ptr161drop_in_place$LT$core..task..poll..Poll$LT$core..option..Option$LT$core..result..Result$LT$alloc..vec..Vec$LT$f32$GT$$C$_sys..error..StorageError$GT$$GT$$GT$$GT$17h642fc901700b8275E', symObjAddr: 0x566C, symBinAddr: 0x22078, symSize: 0x48 }
  - { offset: 0xF5A2E, size: 0x8, addend: 0x0, symName: '__ZN4core3ptr163drop_in_place$LT$alloc..boxed..Box$LT$tokio..fs..read_dir..read_dir$LT$$RF$std..path..PathBuf$GT$..$u7b$$u7b$closure$u7d$$u7d$..$u7b$$u7b$closure$u7d$$u7d$$GT$$GT$17ha4f88d04dbf5ea0cE', symObjAddr: 0x56B4, symBinAddr: 0x220C0, symSize: 0x60 }
  - { offset: 0xF5A5D, size: 0x8, addend: 0x0, symName: '__ZN4core3ptr165drop_in_place$LT$alloc..vec..in_place_drop..InPlaceDstDataSrcBufDrop$LT$_sys..storage..snapshot..SnapshotMetadata$C$_sys..storage..snapshot..SnapshotMetadata$GT$$GT$17hc309bbde578abce7E', symObjAddr: 0x5714, symBinAddr: 0x22120, symSize: 0x24 }
  - { offset: 0xF5A8C, size: 0x8, addend: 0x0, symName: '__ZN4core3ptr166drop_in_place$LT$alloc..vec..in_place_drop..InPlaceDstDataSrcBufDrop$LT$_sys..storage..snapshot..SnapshotMetadata$C$_sys..bindings..storage_py..PySnapshotMeta$GT$$GT$17h76d34b9fecf814ccE', symObjAddr: 0x5738, symBinAddr: 0x22144, symSize: 0x24 }
  - { offset: 0xF5ABB, size: 0x8, addend: 0x0, symName: '__ZN4core3ptr166drop_in_place$LT$core..option..Option$LT$tokio..fs..read_dir..read_dir$LT$$RF$std..path..PathBuf$GT$..$u7b$$u7b$closure$u7d$$u7d$..$u7b$$u7b$closure$u7d$$u7d$$GT$$GT$17hea4773a68583a709E', symObjAddr: 0x575C, symBinAddr: 0x22168, symSize: 0x48 }
  - { offset: 0xF5AEA, size: 0x8, addend: 0x0, symName: '__ZN4core3ptr166drop_in_place$LT$hashbrown..raw..inner..RawTable$LT$$LP$_sys..storage..snapshot..SnapshotId$C$dashmap..util..SharedValue$LT$alloc..vec..Vec$LT$f32$GT$$GT$$RP$$GT$$GT$17h48669cb79dec51eeE', symObjAddr: 0x57A4, symBinAddr: 0x221B0, symSize: 0x24 }
  - { offset: 0xF5B19, size: 0x8, addend: 0x0, symName: '__ZN4core3ptr166drop_in_place$LT$hashbrown..raw..inner..RawTable$LT$$LP$u32$C$dashmap..util..SharedValue$LT$alloc..vec..Vec$LT$_sys..storage..snapshot..SnapshotId$GT$$GT$$RP$$GT$$GT$17h0eb1d0fea94b6c12E', symObjAddr: 0x57C8, symBinAddr: 0x221D4, symSize: 0x24 }
  - { offset: 0xF5B48, size: 0x8, addend: 0x0, symName: '__ZN4core3ptr167drop_in_place$LT$alloc..vec..in_place_drop..InPlaceDstDataSrcBufDrop$LT$$LP$_sys..storage..snapshot..SnapshotId$C$f32$RP$$C$_sys..storage..snapshot..SnapshotId$GT$$GT$17h00082ecd40a276e8E', symObjAddr: 0x57EC, symBinAddr: 0x221F8, symSize: 0x24 }
  - { offset: 0xF5B77, size: 0x8, addend: 0x0, symName: '__ZN4core3ptr167drop_in_place$LT$core..result..Result$LT$core..result..Result$LT$alloc..vec..Vec$LT$u8$GT$$C$std..io..error..Error$GT$$C$tokio..runtime..task..error..JoinError$GT$$GT$17hff5ac43e9f3b37a1E', symObjAddr: 0x5810, symBinAddr: 0x2221C, symSize: 0x50 }
  - { offset: 0xF5BA6, size: 0x8, addend: 0x0, symName: '__ZN4core3ptr169drop_in_place$LT$alloc..boxed..Box$LT$tokio..fs..remove_file..remove_file$LT$$RF$std..path..PathBuf$GT$..$u7b$$u7b$closure$u7d$$u7d$..$u7b$$u7b$closure$u7d$$u7d$$GT$$GT$17h5ea1e622191629ddE', symObjAddr: 0x5860, symBinAddr: 0x2226C, symSize: 0x60 }
  - { offset: 0xF5BD5, size: 0x8, addend: 0x0, symName: '__ZN4core3ptr169drop_in_place$LT$core..cell..UnsafeCell$LT$tokio..runtime..task..core..Stage$LT$_sys..prefetch..engine..PrefetchEngine..prefetch..$u7b$$u7b$closure$u7d$$u7d$$GT$$GT$$GT$17hf6512534bff240b2E', symObjAddr: 0x58C0, symBinAddr: 0x222CC, symSize: 0x24 }
  - { offset: 0xF5C04, size: 0x8, addend: 0x0, symName: '__ZN4core3ptr169drop_in_place$LT$core..option..Option$LT$core..result..Result$LT$alloc..vec..Vec$LT$_sys..storage..snapshot..SnapshotMetadata$GT$$C$_sys..error..StorageError$GT$$GT$$GT$17h48d2c9864e25f535E', symObjAddr: 0x58E4, symBinAddr: 0x222F0, symSize: 0x44 }
  - { offset: 0xF5C33, size: 0x8, addend: 0x0, symName: '__ZN4core3ptr169drop_in_place$LT$tokio..runtime..blocking..task..BlockingTask$LT$tokio..fs..write..write_spawn_blocking..$u7b$$u7b$closure$u7d$$u7d$..$u7b$$u7b$closure$u7d$$u7d$$GT$$GT$17h87471372133f9c7bE', symObjAddr: 0x5928, symBinAddr: 0x22334, symSize: 0x24 }
  - { offset: 0xF5C62, size: 0x8, addend: 0x0, symName: '__ZN4core3ptr170drop_in_place$LT$core..option..Option$LT$alloc..boxed..Box$LT$tokio..fs..write..write_spawn_blocking..$u7b$$u7b$closure$u7d$$u7d$..$u7b$$u7b$closure$u7d$$u7d$$GT$$GT$$GT$17h26fe642c539a440fE', symObjAddr: 0x594C, symBinAddr: 0x22358, symSize: 0x44 }
  - { offset: 0xF5C91, size: 0x8, addend: 0x0, symName: '__ZN4core3ptr170drop_in_place$LT$core..result..Result$LT$core..result..Result$LT$tokio..fs..read_dir..ReadDir$C$std..io..error..Error$GT$$C$tokio..runtime..task..error..JoinError$GT$$GT$17h0286781b901e6887E', symObjAddr: 0x5990, symBinAddr: 0x2239C, symSize: 0x5C }
  - { offset: 0xF5CC0, size: 0x8, addend: 0x0, symName: '__ZN4core3ptr171drop_in_place$LT$$LT$alloc..vec..into_iter..IntoIter$LT$T$C$A$GT$$u20$as$u20$core..ops..drop..Drop$GT$..drop..DropGuard$LT$$LP$u32$C$u32$RP$$C$alloc..alloc..Global$GT$$GT$17h7773062ba819529bE', symObjAddr: 0x59EC, symBinAddr: 0x223F8, symSize: 0x24 }
  - { offset: 0xF5CEF, size: 0x8, addend: 0x0, symName: '__ZN4core3ptr171drop_in_place$LT$core..task..poll..Poll$LT$core..result..Result$LT$alloc..vec..Vec$LT$_sys..storage..snapshot..SnapshotMetadata$GT$$C$_sys..error..StorageError$GT$$GT$$GT$17h8bd992b1b29c5e92E', symObjAddr: 0x5A10, symBinAddr: 0x2241C, symSize: 0x48 }
  - { offset: 0xF5D1E, size: 0x8, addend: 0x0, symName: '__ZN4core3ptr172drop_in_place$LT$core..option..Option$LT$tokio..fs..remove_file..remove_file$LT$$RF$std..path..PathBuf$GT$..$u7b$$u7b$closure$u7d$$u7d$..$u7b$$u7b$closure$u7d$$u7d$$GT$$GT$17h81e991f37fe9ca50E', symObjAddr: 0x5A58, symBinAddr: 0x22464, symSize: 0x48 }
  - { offset: 0xF5D4D, size: 0x8, addend: 0x0, symName: '__ZN4core3ptr172drop_in_place$LT$core..result..Result$LT$core..result..Result$LT$alloc..vec..Vec$LT$f32$GT$$C$_sys..error..StorageError$GT$$C$tokio..runtime..task..error..JoinError$GT$$GT$17h6637ab795f2a48a7E', symObjAddr: 0x5AA0, symBinAddr: 0x224AC, symSize: 0x58 }
  - { offset: 0xF5D7C, size: 0x8, addend: 0x0, symName: '__ZN4core3ptr172drop_in_place$LT$core..task..poll..Poll$LT$core..option..Option$LT$core..result..Result$LT$alloc..vec..Vec$LT$$LP$u32$C$u32$RP$$GT$$C$_sys..error..DrexError$GT$$GT$$GT$$GT$17h157decf618de6d64E', symObjAddr: 0x5AF8, symBinAddr: 0x22504, symSize: 0x48 }
  - { offset: 0xF5DAB, size: 0x8, addend: 0x0, symName: '__ZN4core3ptr176drop_in_place$LT$core..task..poll..Poll$LT$core..option..Option$LT$core..result..Result$LT$_sys..storage..snapshot..SnapshotMetadata$C$_sys..error..StorageError$GT$$GT$$GT$$GT$17h54302228708cfc90E', symObjAddr: 0x5B40, symBinAddr: 0x2254C, symSize: 0x48 }
  - { offset: 0xF5DDA, size: 0x8, addend: 0x0, symName: '__ZN4core3ptr178drop_in_place$LT$tokio..runtime..blocking..task..BlockingTask$LT$tokio..fs..read..read$LT$std..path..PathBuf$GT$..$u7b$$u7b$closure$u7d$$u7d$..$u7b$$u7b$closure$u7d$$u7d$$GT$$GT$17he6de3e261b45ccf8E', symObjAddr: 0x5B88, symBinAddr: 0x22594, symSize: 0x24 }
  - { offset: 0xF5E09, size: 0x8, addend: 0x0, symName: '__ZN4core3ptr179drop_in_place$LT$core..option..Option$LT$alloc..boxed..Box$LT$tokio..fs..read..read$LT$std..path..PathBuf$GT$..$u7b$$u7b$closure$u7d$$u7d$..$u7b$$u7b$closure$u7d$$u7d$$GT$$GT$$GT$17h7a9963c169e66c19E', symObjAddr: 0x5BAC, symBinAddr: 0x225B8, symSize: 0x44 }
  - { offset: 0xF5E38, size: 0x8, addend: 0x0, symName: '__ZN4core3ptr180drop_in_place$LT$alloc..boxed..Box$LT$tokio..fs..open_options..OpenOptions..std_open$LT$$RF$std..path..PathBuf$GT$..$u7b$$u7b$closure$u7d$$u7d$..$u7b$$u7b$closure$u7d$$u7d$$GT$$GT$17he5e656c27de0f28cE', symObjAddr: 0x5BF0, symBinAddr: 0x225FC, symSize: 0x60 }
  - { offset: 0xF5E67, size: 0x8, addend: 0x0, symName: '__ZN4core3ptr180drop_in_place$LT$core..task..poll..Poll$LT$core..result..Result$LT$core..result..Result$LT$$LP$$RP$$C$std..io..error..Error$GT$$C$tokio..runtime..task..error..JoinError$GT$$GT$$GT$17h533913fd5fa51dd6E', symObjAddr: 0x5C50, symBinAddr: 0x2265C, symSize: 0x40 }
  - { offset: 0xF5E96, size: 0x8, addend: 0x0, symName: '__ZN4core3ptr180drop_in_place$LT$tokio..runtime..blocking..task..BlockingTask$LT$_sys..storage..snapshot..SnapshotStore..read_mmap..$u7b$$u7b$closure$u7d$$u7d$..$u7b$$u7b$closure$u7d$$u7d$$GT$$GT$17h20899a7d9c7eb027E', symObjAddr: 0x5C90, symBinAddr: 0x2269C, symSize: 0x24 }
  - { offset: 0xF5EC5, size: 0x8, addend: 0x0, symName: '__ZN4core3ptr181drop_in_place$LT$core..option..Option$LT$alloc..boxed..Box$LT$_sys..storage..snapshot..SnapshotStore..read_mmap..$u7b$$u7b$closure$u7d$$u7d$..$u7b$$u7b$closure$u7d$$u7d$$GT$$GT$$GT$17h877680d1009de73cE', symObjAddr: 0x5CB4, symBinAddr: 0x226C0, symSize: 0x44 }
  - { offset: 0xF5EF4, size: 0x8, addend: 0x0, symName: '__ZN4core3ptr181drop_in_place$LT$hashbrown..raw..inner..RawTable$LT$$LP$_sys..storage..snapshot..SnapshotId$C$dashmap..util..SharedValue$LT$_sys..storage..snapshot..SnapshotMetadata$GT$$RP$$GT$$GT$17h9ece21412af8aed6E', symObjAddr: 0x5CF8, symBinAddr: 0x22704, symSize: 0x24 }
  - { offset: 0xF5F23, size: 0x8, addend: 0x0, symName: '__ZN4core3ptr182drop_in_place$LT$tokio..runtime..blocking..task..BlockingTask$LT$tokio..fs..read..read$LT$$RF$std..path..PathBuf$GT$..$u7b$$u7b$closure$u7d$$u7d$..$u7b$$u7b$closure$u7d$$u7d$$GT$$GT$17h11f1f6cb63f3834cE', symObjAddr: 0x5D1C, symBinAddr: 0x22728, symSize: 0x24 }
  - { offset: 0xF5F52, size: 0x8, addend: 0x0, symName: '__ZN4core3ptr183drop_in_place$LT$core..cell..UnsafeCell$LT$hashbrown..raw..inner..RawTable$LT$$LP$$LP$u32$C$u32$RP$$C$dashmap..util..SharedValue$LT$_sys..cache..eviction..H2OScore$GT$$RP$$GT$$GT$$GT$17h8b69d62d4b502cf1E', symObjAddr: 0x5D40, symBinAddr: 0x2274C, symSize: 0x24 }
  - { offset: 0xF5F81, size: 0x8, addend: 0x0, symName: '__ZN4core3ptr183drop_in_place$LT$core..option..Option$LT$alloc..boxed..Box$LT$tokio..fs..read..read$LT$$RF$std..path..PathBuf$GT$..$u7b$$u7b$closure$u7d$$u7d$..$u7b$$u7b$closure$u7d$$u7d$$GT$$GT$$GT$17hb31cf8d06cdf3118E', symObjAddr: 0x5D64, symBinAddr: 0x22770, symSize: 0x44 }
  - { offset: 0xF5FB0, size: 0x8, addend: 0x0, symName: '__ZN4core3ptr183drop_in_place$LT$core..option..Option$LT$tokio..fs..open_options..OpenOptions..std_open$LT$$RF$std..path..PathBuf$GT$..$u7b$$u7b$closure$u7d$$u7d$..$u7b$$u7b$closure$u7d$$u7d$$GT$$GT$17h1ad18fc99cee477bE', symObjAddr: 0x5DA8, symBinAddr: 0x227B4, symSize: 0x48 }
  - { offset: 0xF5FDF, size: 0x8, addend: 0x0, symName: '__ZN4core3ptr184drop_in_place$LT$alloc..boxed..Box$LT$tokio..fs..rename..rename$LT$$RF$std..path..PathBuf$C$$RF$std..path..PathBuf$GT$..$u7b$$u7b$closure$u7d$$u7d$..$u7b$$u7b$closure$u7d$$u7d$$GT$$GT$17h57a6126450e7ce89E', symObjAddr: 0x5DF0, symBinAddr: 0x227FC, symSize: 0x60 }
  - { offset: 0xF600E, size: 0x8, addend: 0x0, symName: '__ZN4core3ptr184drop_in_place$LT$tokio..fs..asyncify$LT$tokio..fs..write..write_spawn_blocking..$u7b$$u7b$closure$u7d$$u7d$..$u7b$$u7b$closure$u7d$$u7d$$C$$LP$$RP$$GT$..$u7b$$u7b$closure$u7d$$u7d$$GT$17h83cdaaeeb997a3f4E', symObjAddr: 0x5E50, symBinAddr: 0x2285C, symSize: 0xAC }
  - { offset: 0xF6063, size: 0x8, addend: 0x0, symName: '__ZN4core3ptr185drop_in_place$LT$core..task..poll..Poll$LT$core..result..Result$LT$core..result..Result$LT$std..fs..File$C$std..io..error..Error$GT$$C$tokio..runtime..task..error..JoinError$GT$$GT$$GT$17h319ecc6ce4ee569bE', symObjAddr: 0x5EFC, symBinAddr: 0x22908, symSize: 0x40 }
  - { offset: 0xF6092, size: 0x8, addend: 0x0, symName: '__ZN4core3ptr185drop_in_place$LT$zstd..stream..zio..reader..Reader$LT$std..io..buffered..bufreader..BufReader$LT$std..io..cursor..Cursor$LT$$RF$$u5b$u8$u5d$$GT$$GT$$C$zstd..stream..raw..Decoder$GT$$GT$17h75aad8e3fe550766E', symObjAddr: 0x5F3C, symBinAddr: 0x22948, symSize: 0x5C }
  - { offset: 0xF60C1, size: 0x8, addend: 0x0, symName: '__ZN4core3ptr186drop_in_place$LT$tokio..runtime..task..core..Stage$LT$core..pin..Pin$LT$alloc..boxed..Box$LT$_sys..prefetch..engine..PrefetchEngine..prefetch..$u7b$$u7b$closure$u7d$$u7d$$GT$$GT$$GT$$GT$17hd59bf56f021b18d6E', symObjAddr: 0x5F98, symBinAddr: 0x229A4, symSize: 0x64 }
  - { offset: 0xF60F0, size: 0x8, addend: 0x0, symName: '__ZN4core3ptr187drop_in_place$LT$core..option..Option$LT$tokio..fs..rename..rename$LT$$RF$std..path..PathBuf$C$$RF$std..path..PathBuf$GT$..$u7b$$u7b$closure$u7d$$u7d$..$u7b$$u7b$closure$u7d$$u7d$$GT$$GT$17hbd556c3bb24a6ddaE', symObjAddr: 0x5FFC, symBinAddr: 0x22A08, symSize: 0x48 }
  - { offset: 0xF611F, size: 0x8, addend: 0x0, symName: '__ZN4core3ptr188drop_in_place$LT$tokio..loom..std..unsafe_cell..UnsafeCell$LT$tokio..runtime..task..core..Stage$LT$_sys..prefetch..engine..PrefetchEngine..prefetch..$u7b$$u7b$closure$u7d$$u7d$$GT$$GT$$GT$17h25bbb27426cf3045E', symObjAddr: 0x6044, symBinAddr: 0x22A50, symSize: 0x24 }
  - { offset: 0xF614E, size: 0x8, addend: 0x0, symName: '__ZN4core3ptr189drop_in_place$LT$$LT$alloc..vec..into_iter..IntoIter$LT$T$C$A$GT$$u20$as$u20$core..ops..drop..Drop$GT$..drop..DropGuard$LT$_sys..storage..snapshot..SnapshotId$C$alloc..alloc..Global$GT$$GT$17hfb11d0bb73edf01fE', symObjAddr: 0x6068, symBinAddr: 0x22A74, symSize: 0x24 }
  - { offset: 0xF617D, size: 0x8, addend: 0x0, symName: '__ZN4core3ptr190drop_in_place$LT$tokio..runtime..blocking..task..BlockingTask$LT$tokio..fs..read_dir..read_dir$LT$$RF$std..path..PathBuf$GT$..$u7b$$u7b$closure$u7d$$u7d$..$u7b$$u7b$closure$u7d$$u7d$$GT$$GT$17hc6a06c1fdd1fd749E', symObjAddr: 0x608C, symBinAddr: 0x22A98, symSize: 0x24 }
  - { offset: 0xF61AC, size: 0x8, addend: 0x0, symName: '__ZN4core3ptr190drop_in_place$LT$tokio..runtime..task..core..CoreStage$LT$core..pin..Pin$LT$alloc..boxed..Box$LT$_sys..prefetch..engine..PrefetchEngine..prefetch..$u7b$$u7b$closure$u7d$$u7d$$GT$$GT$$GT$$GT$17h97fba9a89ab52f0fE', symObjAddr: 0x60B0, symBinAddr: 0x22ABC, symSize: 0x24 }
  - { offset: 0xF61DB, size: 0x8, addend: 0x0, symName: '__ZN4core3ptr191drop_in_place$LT$core..option..Option$LT$alloc..boxed..Box$LT$tokio..fs..read_dir..read_dir$LT$$RF$std..path..PathBuf$GT$..$u7b$$u7b$closure$u7d$$u7d$..$u7b$$u7b$closure$u7d$$u7d$$GT$$GT$$GT$17hc7ae5382c7677f52E', symObjAddr: 0x60D4, symBinAddr: 0x22AE0, symSize: 0x44 }
  - { offset: 0xF620A, size: 0x8, addend: 0x0, symName: '__ZN4core3ptr193drop_in_place$LT$tokio..runtime..scheduler..multi_thread..MultiThread..block_on$LT$_sys..storage..snapshot..SnapshotStore..read..$u7b$$u7b$closure$u7d$$u7d$$GT$..$u7b$$u7b$closure$u7d$$u7d$$GT$17h27f495f19f16476fE', symObjAddr: 0x6118, symBinAddr: 0x22B24, symSize: 0x24 }
  - { offset: 0xF6239, size: 0x8, addend: 0x0, symName: '__ZN4core3ptr194drop_in_place$LT$$LT$alloc..vec..into_iter..IntoIter$LT$T$C$A$GT$$u20$as$u20$core..ops..drop..Drop$GT$..drop..DropGuard$LT$_sys..cache..eviction..EvictionCandidate$C$alloc..alloc..Global$GT$$GT$17h37f0c09ff75d33eaE', symObjAddr: 0x613C, symBinAddr: 0x22B48, symSize: 0x24 }
  - { offset: 0xF6268, size: 0x8, addend: 0x0, symName: '__ZN4core3ptr194drop_in_place$LT$tokio..runtime..blocking..task..BlockingTask$LT$alloc..boxed..Box$LT$tokio..fs..write..write_spawn_blocking..$u7b$$u7b$closure$u7d$$u7d$..$u7b$$u7b$closure$u7d$$u7d$$GT$$GT$$GT$17h90e5ecf22fd34a26E', symObjAddr: 0x6160, symBinAddr: 0x22B6C, symSize: 0x24 }
  - { offset: 0xF6297, size: 0x8, addend: 0x0, symName: '__ZN4core3ptr194drop_in_place$LT$tokio..runtime..scheduler..multi_thread..MultiThread..block_on$LT$_sys..storage..snapshot..SnapshotStore..write..$u7b$$u7b$closure$u7d$$u7d$$GT$..$u7b$$u7b$closure$u7d$$u7d$$GT$17h8b6c829a56f1335aE', symObjAddr: 0x6184, symBinAddr: 0x22B90, symSize: 0x24 }
  - { offset: 0xF62C6, size: 0x8, addend: 0x0, symName: '__ZN4core3ptr195drop_in_place$LT$$LT$alloc..vec..into_iter..IntoIter$LT$T$C$A$GT$$u20$as$u20$core..ops..drop..Drop$GT$..drop..DropGuard$LT$_sys..storage..snapshot..SnapshotMetadata$C$alloc..alloc..Global$GT$$GT$17h75012e102e728d63E', symObjAddr: 0x61A8, symBinAddr: 0x22BB4, symSize: 0x24 }
  - { offset: 0xF62F5, size: 0x8, addend: 0x0, symName: '__ZN4core3ptr195drop_in_place$LT$hashbrown..scopeguard..ScopeGuard$LT$$RF$mut$u20$hashbrown..raw..inner..RawTableInner$C$hashbrown..raw..inner..RawTableInner..rehash_in_place..$u7b$$u7b$closure$u7d$$u7d$$GT$$GT$17h434c815feb295b6cE', symObjAddr: 0x61CC, symBinAddr: 0x22BD8, symSize: 0x24 }
  - { offset: 0xF6324, size: 0x8, addend: 0x0, symName: '__ZN4core3ptr195drop_in_place$LT$tokio..runtime..scheduler..multi_thread..MultiThread..block_on$LT$_sys..storage..snapshot..SnapshotStore..delete..$u7b$$u7b$closure$u7d$$u7d$$GT$..$u7b$$u7b$closure$u7d$$u7d$$GT$17hb2f615bd1bfa8206E', symObjAddr: 0x61F0, symBinAddr: 0x22BFC, symSize: 0x24 }
  - { offset: 0xF6353, size: 0x8, addend: 0x0, symName: '__ZN4core3ptr195drop_in_place$LT$tokio..runtime..scheduler..multi_thread..MultiThread..block_on$LT$_sys..storage..snapshot..SnapshotStore..exists..$u7b$$u7b$closure$u7d$$u7d$$GT$..$u7b$$u7b$closure$u7d$$u7d$$GT$17h4a73fc6a436dd02dE', symObjAddr: 0x6214, symBinAddr: 0x22C20, symSize: 0x24 }
  - { offset: 0xF6382, size: 0x8, addend: 0x0, symName: '__ZN4core3ptr196drop_in_place$LT$$LT$alloc..vec..into_iter..IntoIter$LT$T$C$A$GT$$u20$as$u20$core..ops..drop..Drop$GT$..drop..DropGuard$LT$_sys..bindings..storage_py..PySnapshotMeta$C$alloc..alloc..Global$GT$$GT$17h0c1e0178c97765b1E', symObjAddr: 0x6238, symBinAddr: 0x22C44, symSize: 0x24 }
  - { offset: 0xF63B1, size: 0x8, addend: 0x0, symName: '__ZN4core3ptr196drop_in_place$LT$core..cell..UnsafeCell$LT$hashbrown..raw..inner..RawTable$LT$$LP$_sys..storage..snapshot..SnapshotId$C$dashmap..util..SharedValue$LT$alloc..vec..Vec$LT$f32$GT$$GT$$RP$$GT$$GT$$GT$17hdb29ea5a0a55ddd1E', symObjAddr: 0x625C, symBinAddr: 0x22C68, symSize: 0x24 }
  - { offset: 0xF63E0, size: 0x8, addend: 0x0, symName: '__ZN4core3ptr196drop_in_place$LT$core..cell..UnsafeCell$LT$hashbrown..raw..inner..RawTable$LT$$LP$u32$C$dashmap..util..SharedValue$LT$alloc..vec..Vec$LT$_sys..storage..snapshot..SnapshotId$GT$$GT$$RP$$GT$$GT$$GT$17h8945e2ac515ca708E', symObjAddr: 0x6280, symBinAddr: 0x22C8C, symSize: 0x24 }
  - { offset: 0xF640F, size: 0x8, addend: 0x0, symName: '__ZN4core3ptr196drop_in_place$LT$tokio..runtime..blocking..task..BlockingTask$LT$tokio..fs..remove_file..remove_file$LT$$RF$std..path..PathBuf$GT$..$u7b$$u7b$closure$u7d$$u7d$..$u7b$$u7b$closure$u7d$$u7d$$GT$$GT$17hf3082e840e81dc9dE', symObjAddr: 0x62A4, symBinAddr: 0x22CB0, symSize: 0x24 }
  - { offset: 0xF643E, size: 0x8, addend: 0x0, symName: '__ZN4core3ptr196drop_in_place$LT$tokio..runtime..scheduler..multi_thread..MultiThread..block_on$LT$_sys..cache..manager..MemoryTierManager..demote..$u7b$$u7b$closure$u7d$$u7d$$GT$..$u7b$$u7b$closure$u7d$$u7d$$GT$17h909a1ef405a7153eE', symObjAddr: 0x62C8, symBinAddr: 0x22CD4, symSize: 0x24 }
  - { offset: 0xF646D, size: 0x8, addend: 0x0, symName: '__ZN4core3ptr197drop_in_place$LT$core..option..Option$LT$alloc..boxed..Box$LT$tokio..fs..remove_file..remove_file$LT$$RF$std..path..PathBuf$GT$..$u7b$$u7b$closure$u7d$$u7d$..$u7b$$u7b$closure$u7d$$u7d$$GT$$GT$$GT$17hd6b4a6fd391b9ca8E', symObjAddr: 0x62EC, symBinAddr: 0x22CF8, symSize: 0x44 }
  - { offset: 0xF649C, size: 0x8, addend: 0x0, symName: '__ZN4core3ptr197drop_in_place$LT$core..task..poll..Poll$LT$core..result..Result$LT$core..result..Result$LT$alloc..vec..Vec$LT$u8$GT$$C$std..io..error..Error$GT$$C$tokio..runtime..task..error..JoinError$GT$$GT$$GT$17hcdb37ff9ea030686E', symObjAddr: 0x6330, symBinAddr: 0x22D3C, symSize: 0x48 }
  - { offset: 0xF64CB, size: 0x8, addend: 0x0, symName: '__ZN4core3ptr197drop_in_place$LT$tokio..runtime..scheduler..multi_thread..MultiThread..block_on$LT$_sys..cache..manager..MemoryTierManager..promote..$u7b$$u7b$closure$u7d$$u7d$$GT$..$u7b$$u7b$closure$u7d$$u7d$$GT$17he93b06533bc72475E', symObjAddr: 0x6378, symBinAddr: 0x22D84, symSize: 0x24 }
  - { offset: 0xF64FA, size: 0x8, addend: 0x0, symName: '__ZN4core3ptr197drop_in_place$LT$tokio..runtime..scheduler..multi_thread..MultiThread..block_on$LT$_sys..storage..snapshot..SnapshotStore..list_all..$u7b$$u7b$closure$u7d$$u7d$$GT$..$u7b$$u7b$closure$u7d$$u7d$$GT$17h8a81d4f0d0497c11E', symObjAddr: 0x639C, symBinAddr: 0x22DA8, symSize: 0x24 }
  - { offset: 0xF6529, size: 0x8, addend: 0x0, symName: '__ZN4core3ptr198drop_in_place$LT$tokio..runtime..scheduler..multi_thread..MultiThread..block_on$LT$_sys..storage..snapshot..SnapshotStore..read_mmap..$u7b$$u7b$closure$u7d$$u7d$$GT$..$u7b$$u7b$closure$u7d$$u7d$$GT$17h4854bacf2c7d2d0aE', symObjAddr: 0x63C0, symBinAddr: 0x22DCC, symSize: 0x24 }
  - { offset: 0xF6558, size: 0x8, addend: 0x0, symName: '__ZN4core3ptr199drop_in_place$LT$core..task..poll..Poll$LT$core..option..Option$LT$core..result..Result$LT$alloc..vec..Vec$LT$_sys..storage..snapshot..SnapshotMetadata$GT$$C$_sys..error..StorageError$GT$$GT$$GT$$GT$17h85e4ae086f2baa80E', symObjAddr: 0x63E4, symBinAddr: 0x22DF0, symSize: 0x48 }
  - { offset: 0xF6587, size: 0x8, addend: 0x0, symName: '__ZN4core3ptr200drop_in_place$LT$core..task..poll..Poll$LT$core..result..Result$LT$core..result..Result$LT$tokio..fs..read_dir..ReadDir$C$std..io..error..Error$GT$$C$tokio..runtime..task..error..JoinError$GT$$GT$$GT$17hd5c09efce12d1e60E', symObjAddr: 0x642C, symBinAddr: 0x22E38, symSize: 0x50 }
  - { offset: 0xF65B6, size: 0x8, addend: 0x0, symName: '__ZN4core3ptr201drop_in_place$LT$tokio..runtime..scheduler..multi_thread..MultiThread..block_on$LT$_sys..cache..manager..MemoryTierManager..maybe_evict..$u7b$$u7b$closure$u7d$$u7d$$GT$..$u7b$$u7b$closure$u7d$$u7d$$GT$17heb79128dcb7a6f7bE', symObjAddr: 0x647C, symBinAddr: 0x22E88, symSize: 0x24 }
  - { offset: 0xF65E5, size: 0x8, addend: 0x0, symName: '__ZN4core3ptr202drop_in_place$LT$core..task..poll..Poll$LT$core..result..Result$LT$core..result..Result$LT$alloc..vec..Vec$LT$f32$GT$$C$_sys..error..StorageError$GT$$C$tokio..runtime..task..error..JoinError$GT$$GT$$GT$17h08a3fa171b74d8ddE', symObjAddr: 0x64A0, symBinAddr: 0x22EAC, symSize: 0x48 }
  - { offset: 0xF6614, size: 0x8, addend: 0x0, symName: '__ZN4core3ptr202drop_in_place$LT$tokio..runtime..scheduler..multi_thread..MultiThread..block_on$LT$_sys..storage..snapshot..SnapshotStore..list_by_layer..$u7b$$u7b$closure$u7d$$u7d$$GT$..$u7b$$u7b$closure$u7d$$u7d$$GT$17h7ba796a7fed8a586E', symObjAddr: 0x64E8, symBinAddr: 0x22EF4, symSize: 0x24 }
  - { offset: 0xF6643, size: 0x8, addend: 0x0, symName: '__ZN4core3ptr203drop_in_place$LT$$LT$alloc..vec..into_iter..IntoIter$LT$T$C$A$GT$$u20$as$u20$core..ops..drop..Drop$GT$..drop..DropGuard$LT$$LP$_sys..storage..snapshot..SnapshotId$C$f32$RP$$C$alloc..alloc..Global$GT$$GT$17hb46a4d4e7f847d42E', symObjAddr: 0x650C, symBinAddr: 0x22F18, symSize: 0x24 }
  - { offset: 0xF6672, size: 0x8, addend: 0x0, symName: '__ZN4core3ptr203drop_in_place$LT$tokio..runtime..blocking..task..BlockingTask$LT$alloc..boxed..Box$LT$tokio..fs..read..read$LT$std..path..PathBuf$GT$..$u7b$$u7b$closure$u7d$$u7d$..$u7b$$u7b$closure$u7d$$u7d$$GT$$GT$$GT$17h8604905aa74c5040E', symObjAddr: 0x6530, symBinAddr: 0x22F3C, symSize: 0x24 }
  - { offset: 0xF66A1, size: 0x8, addend: 0x0, symName: '__ZN4core3ptr205drop_in_place$LT$tokio..runtime..blocking..task..BlockingTask$LT$alloc..boxed..Box$LT$_sys..storage..snapshot..SnapshotStore..read_mmap..$u7b$$u7b$closure$u7d$$u7d$..$u7b$$u7b$closure$u7d$$u7d$$GT$$GT$$GT$17h227aa9140b39977eE', symObjAddr: 0x6554, symBinAddr: 0x22F60, symSize: 0x24 }
  - { offset: 0xF66D0, size: 0x8, addend: 0x0, symName: '__ZN4core3ptr207drop_in_place$LT$tokio..runtime..blocking..task..BlockingTask$LT$alloc..boxed..Box$LT$tokio..fs..read..read$LT$$RF$std..path..PathBuf$GT$..$u7b$$u7b$closure$u7d$$u7d$..$u7b$$u7b$closure$u7d$$u7d$$GT$$GT$$GT$17hb29ddb3f23a42f45E', symObjAddr: 0x6578, symBinAddr: 0x22F84, symSize: 0x24 }
  - { offset: 0xF66FF, size: 0x8, addend: 0x0, symName: '__ZN4core3ptr207drop_in_place$LT$tokio..runtime..blocking..task..BlockingTask$LT$tokio..fs..open_options..OpenOptions..std_open$LT$$RF$std..path..PathBuf$GT$..$u7b$$u7b$closure$u7d$$u7d$..$u7b$$u7b$closure$u7d$$u7d$$GT$$GT$17hc4281e4433c2f547E', symObjAddr: 0x659C, symBinAddr: 0x22FA8, symSize: 0x24 }
  - { offset: 0xF672E, size: 0x8, addend: 0x0, symName: '__ZN4core3ptr208drop_in_place$LT$core..option..Option$LT$alloc..boxed..Box$LT$tokio..fs..open_options..OpenOptions..std_open$LT$$RF$std..path..PathBuf$GT$..$u7b$$u7b$closure$u7d$$u7d$..$u7b$$u7b$closure$u7d$$u7d$$GT$$GT$$GT$17h77fafb5dd9a756f2E', symObjAddr: 0x65C0, symBinAddr: 0x22FCC, symSize: 0x44 }
  - { offset: 0xF675D, size: 0x8, addend: 0x0, symName: '__ZN4core3ptr210drop_in_place$LT$tokio..fs..asyncify$LT$tokio..fs..read..read$LT$std..path..PathBuf$GT$..$u7b$$u7b$closure$u7d$$u7d$..$u7b$$u7b$closure$u7d$$u7d$$C$alloc..vec..Vec$LT$u8$GT$$GT$..$u7b$$u7b$closure$u7d$$u7d$$GT$17h01dae1a26eeaaebcE', symObjAddr: 0x6604, symBinAddr: 0x23010, symSize: 0xAC }
  - { offset: 0xF67B2, size: 0x8, addend: 0x0, symName: '__ZN4core3ptr210drop_in_place$LT$tokio..runtime..task..core..Stage$LT$tokio..runtime..blocking..task..BlockingTask$LT$tokio..fs..write..write_spawn_blocking..$u7b$$u7b$closure$u7d$$u7d$..$u7b$$u7b$closure$u7d$$u7d$$GT$$GT$$GT$17h36eccf1e00a157b1E', symObjAddr: 0x66B0, symBinAddr: 0x230BC, symSize: 0x64 }
  - { offset: 0xF67E1, size: 0x8, addend: 0x0, symName: '__ZN4core3ptr210drop_in_place$LT$tokio..util..sharded_list..ShardGuard$LT$tokio..runtime..task..Task$LT$alloc..sync..Arc$LT$tokio..runtime..scheduler..current_thread..Handle$GT$$GT$$C$tokio..runtime..task..core..Header$GT$$GT$17h021a9abb9bca046eE', symObjAddr: 0x6714, symBinAddr: 0x23120, symSize: 0x24 }
  - { offset: 0xF6810, size: 0x8, addend: 0x0, symName: '__ZN4core3ptr211drop_in_place$LT$core..cell..UnsafeCell$LT$hashbrown..raw..inner..RawTable$LT$$LP$_sys..storage..snapshot..SnapshotId$C$dashmap..util..SharedValue$LT$_sys..storage..snapshot..SnapshotMetadata$GT$$RP$$GT$$GT$$GT$17hf84bd4429b3e0621E', symObjAddr: 0x6738, symBinAddr: 0x23144, symSize: 0x24 }
  - { offset: 0xF683F, size: 0x8, addend: 0x0, symName: '__ZN4core3ptr211drop_in_place$LT$tokio..fs..asyncify$LT$tokio..fs..remove_file..remove_file$LT$$RF$std..path..PathBuf$GT$..$u7b$$u7b$closure$u7d$$u7d$..$u7b$$u7b$closure$u7d$$u7d$$C$$LP$$RP$$GT$..$u7b$$u7b$closure$u7d$$u7d$$GT$17h95bcb93c8d5bdf05E', symObjAddr: 0x675C, symBinAddr: 0x23168, symSize: 0xAC }
  - { offset: 0xF6894, size: 0x8, addend: 0x0, symName: '__ZN4core3ptr211drop_in_place$LT$tokio..runtime..blocking..task..BlockingTask$LT$tokio..fs..rename..rename$LT$$RF$std..path..PathBuf$C$$RF$std..path..PathBuf$GT$..$u7b$$u7b$closure$u7d$$u7d$..$u7b$$u7b$closure$u7d$$u7d$$GT$$GT$17h64edcedd3f8ec8b9E', symObjAddr: 0x6808, symBinAddr: 0x23214, symSize: 0x24 }
  - { offset: 0xF68C3, size: 0x8, addend: 0x0, symName: '__ZN4core3ptr212drop_in_place$LT$core..option..Option$LT$alloc..boxed..Box$LT$tokio..fs..rename..rename$LT$$RF$std..path..PathBuf$C$$RF$std..path..PathBuf$GT$..$u7b$$u7b$closure$u7d$$u7d$..$u7b$$u7b$closure$u7d$$u7d$$GT$$GT$$GT$17hf0fa9ea96b10500fE', symObjAddr: 0x682C, symBinAddr: 0x23238, symSize: 0x44 }
  - { offset: 0xF68F2, size: 0x8, addend: 0x0, symName: '__ZN4core3ptr212drop_in_place$LT$lock_api..rwlock..RwLock$LT$dashmap..lock..RawRwLock$C$hashbrown..raw..inner..RawTable$LT$$LP$$LP$u32$C$u32$RP$$C$dashmap..util..SharedValue$LT$_sys..cache..eviction..H2OScore$GT$$RP$$GT$$GT$$GT$17h132942804f057dfeE', symObjAddr: 0x6870, symBinAddr: 0x2327C, symSize: 0x24 }
  - { offset: 0xF6921, size: 0x8, addend: 0x0, symName: '__ZN4core3ptr214drop_in_place$LT$tokio..fs..asyncify$LT$tokio..fs..read..read$LT$$RF$std..path..PathBuf$GT$..$u7b$$u7b$closure$u7d$$u7d$..$u7b$$u7b$closure$u7d$$u7d$$C$alloc..vec..Vec$LT$u8$GT$$GT$..$u7b$$u7b$closure$u7d$$u7d$$GT$17h97e2fdc353a6395bE', symObjAddr: 0x6894, symBinAddr: 0x232A0, symSize: 0xAC }
  - { offset: 0xF6976, size: 0x8, addend: 0x0, symName: '__ZN4core3ptr214drop_in_place$LT$tokio..runtime..task..core..Cell$LT$_sys..prefetch..engine..PrefetchEngine..prefetch..$u7b$$u7b$closure$u7d$$u7d$$C$alloc..sync..Arc$LT$tokio..runtime..scheduler..current_thread..Handle$GT$$GT$$GT$17hf529a8ce230521beE', symObjAddr: 0x6940, symBinAddr: 0x2334C, symSize: 0x64 }
  - { offset: 0xF69A5, size: 0x8, addend: 0x0, symName: '__ZN4core3ptr214drop_in_place$LT$tokio..runtime..task..core..Core$LT$_sys..prefetch..engine..PrefetchEngine..prefetch..$u7b$$u7b$closure$u7d$$u7d$$C$alloc..sync..Arc$LT$tokio..runtime..scheduler..current_thread..Handle$GT$$GT$$GT$17h562d2056053507deE', symObjAddr: 0x69A4, symBinAddr: 0x233B0, symSize: 0x60 }
  - { offset: 0xF69D4, size: 0x8, addend: 0x0, symName: '__ZN4core3ptr214drop_in_place$LT$tokio..runtime..task..core..CoreStage$LT$tokio..runtime..blocking..task..BlockingTask$LT$tokio..fs..write..write_spawn_blocking..$u7b$$u7b$closure$u7d$$u7d$..$u7b$$u7b$closure$u7d$$u7d$$GT$$GT$$GT$17hb7ad30c7e985ecf9E', symObjAddr: 0x6A04, symBinAddr: 0x23410, symSize: 0x24 }
  - { offset: 0xF6A03, size: 0x8, addend: 0x0, symName: '__ZN4core3ptr215drop_in_place$LT$tokio..runtime..blocking..task..BlockingTask$LT$alloc..boxed..Box$LT$tokio..fs..read_dir..read_dir$LT$$RF$std..path..PathBuf$GT$..$u7b$$u7b$closure$u7d$$u7d$..$u7b$$u7b$closure$u7d$$u7d$$GT$$GT$$GT$17hbc8a2300c4e2ca93E', symObjAddr: 0x6A28, symBinAddr: 0x23434, symSize: 0x24 }
  - { offset: 0xF6A32, size: 0x8, addend: 0x0, symName: '__ZN4core3ptr216drop_in_place$LT$core..cell..UnsafeCell$LT$tokio..runtime..task..core..Stage$LT$core..pin..Pin$LT$alloc..boxed..Box$LT$_sys..prefetch..engine..PrefetchEngine..prefetch..$u7b$$u7b$closure$u7d$$u7d$$GT$$GT$$GT$$GT$$GT$17h9fb8bd964fcda76dE', symObjAddr: 0x6A4C, symBinAddr: 0x23458, symSize: 0x24 }
  - { offset: 0xF6A61, size: 0x8, addend: 0x0, symName: '__ZN4core3ptr216drop_in_place$LT$tokio..util..sharded_list..ShardGuard$LT$tokio..runtime..task..Task$LT$alloc..sync..Arc$LT$tokio..runtime..scheduler..multi_thread..handle..Handle$GT$$GT$$C$tokio..runtime..task..core..Header$GT$$GT$17h3cb2f0d356c65cacE', symObjAddr: 0x6A70, symBinAddr: 0x2347C, symSize: 0x24 }
  - { offset: 0xF6A90, size: 0x8, addend: 0x0, symName: '__ZN4core3ptr219drop_in_place$LT$tokio..runtime..task..core..Stage$LT$tokio..runtime..blocking..task..BlockingTask$LT$tokio..fs..read..read$LT$std..path..PathBuf$GT$..$u7b$$u7b$closure$u7d$$u7d$..$u7b$$u7b$closure$u7d$$u7d$$GT$$GT$$GT$17h6a0cc655895b995dE', symObjAddr: 0x6A94, symBinAddr: 0x234A0, symSize: 0x64 }
  - { offset: 0xF6ABF, size: 0x8, addend: 0x0, symName: '__ZN4core3ptr220drop_in_place$LT$tokio..runtime..task..core..Cell$LT$_sys..prefetch..engine..PrefetchEngine..prefetch..$u7b$$u7b$closure$u7d$$u7d$$C$alloc..sync..Arc$LT$tokio..runtime..scheduler..multi_thread..handle..Handle$GT$$GT$$GT$17h7021e46e0a435d37E', symObjAddr: 0x6AF8, symBinAddr: 0x23504, symSize: 0x64 }
  - { offset: 0xF6AEE, size: 0x8, addend: 0x0, symName: '__ZN4core3ptr220drop_in_place$LT$tokio..runtime..task..core..Core$LT$_sys..prefetch..engine..PrefetchEngine..prefetch..$u7b$$u7b$closure$u7d$$u7d$$C$alloc..sync..Arc$LT$tokio..runtime..scheduler..multi_thread..handle..Handle$GT$$GT$$GT$17h62919381947e5ed0E', symObjAddr: 0x6B5C, symBinAddr: 0x23568, symSize: 0x60 }
  - { offset: 0xF6B1D, size: 0x8, addend: 0x0, symName: '__ZN4core3ptr221drop_in_place$LT$lock_api..rwlock..RwLockReadGuard$LT$dashmap..lock..RawRwLock$C$hashbrown..raw..inner..RawTable$LT$$LP$$LP$u32$C$u32$RP$$C$dashmap..util..SharedValue$LT$_sys..cache..eviction..H2OScore$GT$$RP$$GT$$GT$$GT$17he88d86207442b5d5E', symObjAddr: 0x6BBC, symBinAddr: 0x235C8, symSize: 0x24 }
  - { offset: 0xF6B4C, size: 0x8, addend: 0x0, symName: '__ZN4core3ptr221drop_in_place$LT$tokio..runtime..blocking..task..BlockingTask$LT$alloc..boxed..Box$LT$tokio..fs..remove_file..remove_file$LT$$RF$std..path..PathBuf$GT$..$u7b$$u7b$closure$u7d$$u7d$..$u7b$$u7b$closure$u7d$$u7d$$GT$$GT$$GT$17h47e3acdb3aebfd9cE', symObjAddr: 0x6BE0, symBinAddr: 0x235EC, symSize: 0x24 }
  - { offset: 0xF6B7B, size: 0x8, addend: 0x0, symName: '__ZN4core3ptr221drop_in_place$LT$tokio..runtime..task..core..Stage$LT$tokio..runtime..blocking..task..BlockingTask$LT$_sys..storage..snapshot..SnapshotStore..read_mmap..$u7b$$u7b$closure$u7d$$u7d$..$u7b$$u7b$closure$u7d$$u7d$$GT$$GT$$GT$17h9182a41e0a1d4326E', symObjAddr: 0x6C04, symBinAddr: 0x23610, symSize: 0x64 }
  - { offset: 0xF6BAA, size: 0x8, addend: 0x0, symName: '__ZN4core3ptr222drop_in_place$LT$lock_api..rwlock..RwLockWriteGuard$LT$dashmap..lock..RawRwLock$C$hashbrown..raw..inner..RawTable$LT$$LP$$LP$u32$C$u32$RP$$C$dashmap..util..SharedValue$LT$_sys..cache..eviction..H2OScore$GT$$RP$$GT$$GT$$GT$17h26b3cb6484c05731E', symObjAddr: 0x6C68, symBinAddr: 0x23674, symSize: 0x24 }
  - { offset: 0xF6BD9, size: 0x8, addend: 0x0, symName: '__ZN4core3ptr223drop_in_place$LT$tokio..runtime..task..core..CoreStage$LT$tokio..runtime..blocking..task..BlockingTask$LT$tokio..fs..read..read$LT$std..path..PathBuf$GT$..$u7b$$u7b$closure$u7d$$u7d$..$u7b$$u7b$closure$u7d$$u7d$$GT$$GT$$GT$17h1242df84a4817e4fE', symObjAddr: 0x6C8C, symBinAddr: 0x23698, symSize: 0x24 }
  - { offset: 0xF6C08, size: 0x8, addend: 0x0, symName: '__ZN4core3ptr223drop_in_place$LT$tokio..runtime..task..core..Stage$LT$tokio..runtime..blocking..task..BlockingTask$LT$tokio..fs..read..read$LT$$RF$std..path..PathBuf$GT$..$u7b$$u7b$closure$u7d$$u7d$..$u7b$$u7b$closure$u7d$$u7d$$GT$$GT$$GT$17hc4a085bccd77dc2fE', symObjAddr: 0x6CB0, symBinAddr: 0x236BC, symSize: 0x64 }
  - { offset: 0xF6C37, size: 0x8, addend: 0x0, symName: '__ZN4core3ptr225drop_in_place$LT$lock_api..rwlock..RwLock$LT$dashmap..lock..RawRwLock$C$hashbrown..raw..inner..RawTable$LT$$LP$_sys..storage..snapshot..SnapshotId$C$dashmap..util..SharedValue$LT$alloc..vec..Vec$LT$f32$GT$$GT$$RP$$GT$$GT$$GT$17hb9e477f0ecfa67a8E', symObjAddr: 0x6D14, symBinAddr: 0x23720, symSize: 0x24 }
  - { offset: 0xF6C66, size: 0x8, addend: 0x0, symName: '__ZN4core3ptr225drop_in_place$LT$lock_api..rwlock..RwLock$LT$dashmap..lock..RawRwLock$C$hashbrown..raw..inner..RawTable$LT$$LP$u32$C$dashmap..util..SharedValue$LT$alloc..vec..Vec$LT$_sys..storage..snapshot..SnapshotId$GT$$GT$$RP$$GT$$GT$$GT$17h91573cc766a424a9E', symObjAddr: 0x6D38, symBinAddr: 0x23744, symSize: 0x24 }
  - { offset: 0xF6C95, size: 0x8, addend: 0x0, symName: '__ZN4core3ptr225drop_in_place$LT$tokio..fs..asyncify$LT$tokio..fs..read_dir..read_dir$LT$$RF$std..path..PathBuf$GT$..$u7b$$u7b$closure$u7d$$u7d$..$u7b$$u7b$closure$u7d$$u7d$$C$tokio..fs..read_dir..ReadDir$GT$..$u7b$$u7b$closure$u7d$$u7d$$GT$17h4244dde432fa6907E', symObjAddr: 0x6D5C, symBinAddr: 0x23768, symSize: 0xAC }
  - { offset: 0xF6CEA, size: 0x8, addend: 0x0, symName: '__ZN4core3ptr225drop_in_place$LT$tokio..runtime..task..core..CoreStage$LT$tokio..runtime..blocking..task..BlockingTask$LT$_sys..storage..snapshot..SnapshotStore..read_mmap..$u7b$$u7b$closure$u7d$$u7d$..$u7b$$u7b$closure$u7d$$u7d$$GT$$GT$$GT$17hbf9ea14ae620a3e7E', symObjAddr: 0x6E08, symBinAddr: 0x23814, symSize: 0x24 }
  - { offset: 0xF6D19, size: 0x8, addend: 0x0, symName: '__ZN4core3ptr226drop_in_place$LT$tokio..fs..asyncify$LT$tokio..fs..rename..rename$LT$$RF$std..path..PathBuf$C$$RF$std..path..PathBuf$GT$..$u7b$$u7b$closure$u7d$$u7d$..$u7b$$u7b$closure$u7d$$u7d$$C$$LP$$RP$$GT$..$u7b$$u7b$closure$u7d$$u7d$$GT$17h1baf33332ac2eb98E', symObjAddr: 0x6E2C, symBinAddr: 0x23838, symSize: 0xAC }
  - { offset: 0xF6D6E, size: 0x8, addend: 0x0, symName: '__ZN4core3ptr227drop_in_place$LT$core..iter..traits..iterator..Iterator..for_each..call$LT$u8$C$alloc..vec..Vec$LT$u8$GT$..extend_trusted$LT$core..option..IntoIter$LT$u8$GT$$GT$..$u7b$$u7b$closure$u7d$$u7d$$GT$..$u7b$$u7b$closure$u7d$$u7d$$GT$17hef3d166875cf097dE', symObjAddr: 0x6ED8, symBinAddr: 0x238E4, symSize: 0x24 }
  - { offset: 0xF6D9D, size: 0x8, addend: 0x0, symName: '__ZN4core3ptr227drop_in_place$LT$tokio..fs..asyncify$LT$tokio..fs..open_options..OpenOptions..std_open$LT$$RF$std..path..PathBuf$GT$..$u7b$$u7b$closure$u7d$$u7d$..$u7b$$u7b$closure$u7d$$u7d$$C$std..fs..File$GT$..$u7b$$u7b$closure$u7d$$u7d$$GT$17h332c3b9553739f97E', symObjAddr: 0x6EFC, symBinAddr: 0x23908, symSize: 0xAC }
  - { offset: 0xF6DF2, size: 0x8, addend: 0x0, symName: '__ZN4core3ptr227drop_in_place$LT$tokio..runtime..task..core..CoreStage$LT$tokio..runtime..blocking..task..BlockingTask$LT$tokio..fs..read..read$LT$$RF$std..path..PathBuf$GT$..$u7b$$u7b$closure$u7d$$u7d$..$u7b$$u7b$closure$u7d$$u7d$$GT$$GT$$GT$17ha563a5e2e76264f7E', symObjAddr: 0x6FA8, symBinAddr: 0x239B4, symSize: 0x24 }
  - { offset: 0xF6E21, size: 0x8, addend: 0x0, symName: '__ZN4core3ptr229drop_in_place$LT$core..iter..adapters..map..Map$LT$alloc..vec..into_iter..IntoIter$LT$_sys..storage..snapshot..SnapshotMetadata$GT$$C$_sys..bindings..storage_py..PySnapshotStore..list_by_layer..$u7b$$u7b$closure$u7d$$u7d$$GT$$GT$17h60667ac8ede947ffE', symObjAddr: 0x6FCC, symBinAddr: 0x239D8, symSize: 0x24 }
  - { offset: 0xF6E50, size: 0x8, addend: 0x0, symName: '__ZN4core3ptr230drop_in_place$LT$core..iter..adapters..map..Map$LT$alloc..vec..into_iter..IntoIter$LT$_sys..storage..snapshot..SnapshotMetadata$GT$$C$_sys..bindings..storage_py..PySnapshotStore..list_snapshots..$u7b$$u7b$closure$u7d$$u7d$$GT$$GT$17hf7fad1111bec3ebaE', symObjAddr: 0x6FF0, symBinAddr: 0x239FC, symSize: 0x24 }
  - { offset: 0xF6E7F, size: 0x8, addend: 0x0, symName: '__ZN4core3ptr231drop_in_place$LT$tokio..runtime..task..core..Stage$LT$tokio..runtime..blocking..task..BlockingTask$LT$tokio..fs..read_dir..read_dir$LT$$RF$std..path..PathBuf$GT$..$u7b$$u7b$closure$u7d$$u7d$..$u7b$$u7b$closure$u7d$$u7d$$GT$$GT$$GT$17hb80240f44be703ddE', symObjAddr: 0x7014, symBinAddr: 0x23A20, symSize: 0x64 }
  - { offset: 0xF6EAE, size: 0x8, addend: 0x0, symName: '__ZN4core3ptr232drop_in_place$LT$tokio..runtime..blocking..task..BlockingTask$LT$alloc..boxed..Box$LT$tokio..fs..open_options..OpenOptions..std_open$LT$$RF$std..path..PathBuf$GT$..$u7b$$u7b$closure$u7d$$u7d$..$u7b$$u7b$closure$u7d$$u7d$$GT$$GT$$GT$17h630d16eb6f80990eE', symObjAddr: 0x7078, symBinAddr: 0x23A84, symSize: 0x24 }
  - { offset: 0xF6EDD, size: 0x8, addend: 0x0, symName: '__ZN4core3ptr233drop_in_place$LT$hashbrown..scopeguard..ScopeGuard$LT$hashbrown..raw..inner..RawTableInner$C$hashbrown..raw..inner..RawTableInner..prepare_resize$LT$hashbrown..raw..inner..alloc..inner..Global$GT$..$u7b$$u7b$closure$u7d$$u7d$$GT$$GT$17h8737bc5bb2009763E', symObjAddr: 0x709C, symBinAddr: 0x23AA8, symSize: 0x24 }
  - { offset: 0xF6F0C, size: 0x8, addend: 0x0, symName: '__ZN4core3ptr234drop_in_place$LT$lock_api..rwlock..RwLockReadGuard$LT$dashmap..lock..RawRwLock$C$hashbrown..raw..inner..RawTable$LT$$LP$_sys..storage..snapshot..SnapshotId$C$dashmap..util..SharedValue$LT$alloc..vec..Vec$LT$f32$GT$$GT$$RP$$GT$$GT$$GT$17h59ff02afee2f966bE', symObjAddr: 0x70C0, symBinAddr: 0x23ACC, symSize: 0x24 }
  - { offset: 0xF6F3B, size: 0x8, addend: 0x0, symName: '__ZN4core3ptr234drop_in_place$LT$lock_api..rwlock..RwLockReadGuard$LT$dashmap..lock..RawRwLock$C$hashbrown..raw..inner..RawTable$LT$$LP$u32$C$dashmap..util..SharedValue$LT$alloc..vec..Vec$LT$_sys..storage..snapshot..SnapshotId$GT$$GT$$RP$$GT$$GT$$GT$17hed267f3ff3eee4bdE', symObjAddr: 0x70E4, symBinAddr: 0x23AF0, symSize: 0x24 }
  - { offset: 0xF6F6A, size: 0x8, addend: 0x0, symName: '__ZN4core3ptr235drop_in_place$LT$lock_api..rwlock..RwLockWriteGuard$LT$dashmap..lock..RawRwLock$C$hashbrown..raw..inner..RawTable$LT$$LP$_sys..storage..snapshot..SnapshotId$C$dashmap..util..SharedValue$LT$alloc..vec..Vec$LT$f32$GT$$GT$$RP$$GT$$GT$$GT$17h0c97b084a475c50fE', symObjAddr: 0x7108, symBinAddr: 0x23B14, symSize: 0x24 }
  - { offset: 0xF6F99, size: 0x8, addend: 0x0, symName: '__ZN4core3ptr235drop_in_place$LT$lock_api..rwlock..RwLockWriteGuard$LT$dashmap..lock..RawRwLock$C$hashbrown..raw..inner..RawTable$LT$$LP$u32$C$dashmap..util..SharedValue$LT$alloc..vec..Vec$LT$_sys..storage..snapshot..SnapshotId$GT$$GT$$RP$$GT$$GT$$GT$17hd5f6b0b455b5a661E', symObjAddr: 0x712C, symBinAddr: 0x23B38, symSize: 0x24 }
  - { offset: 0xF6FC8, size: 0x8, addend: 0x0, symName: '__ZN4core3ptr235drop_in_place$LT$tokio..loom..std..unsafe_cell..UnsafeCell$LT$tokio..runtime..task..core..Stage$LT$core..pin..Pin$LT$alloc..boxed..Box$LT$_sys..prefetch..engine..PrefetchEngine..prefetch..$u7b$$u7b$closure$u7d$$u7d$$GT$$GT$$GT$$GT$$GT$17hda66aeb9af498630E', symObjAddr: 0x7150, symBinAddr: 0x23B5C, symSize: 0x24 }
  - { offset: 0xF6FF7, size: 0x8, addend: 0x0, symName: '__ZN4core3ptr235drop_in_place$LT$tokio..runtime..task..core..CoreStage$LT$tokio..runtime..blocking..task..BlockingTask$LT$tokio..fs..read_dir..read_dir$LT$$RF$std..path..PathBuf$GT$..$u7b$$u7b$closure$u7d$$u7d$..$u7b$$u7b$closure$u7d$$u7d$$GT$$GT$$GT$17h4ee8203aaff95610E', symObjAddr: 0x7174, symBinAddr: 0x23B80, symSize: 0x24 }
  - { offset: 0xF7026, size: 0x8, addend: 0x0, symName: '__ZN4core3ptr235drop_in_place$LT$tokio..runtime..task..core..Stage$LT$tokio..runtime..blocking..task..BlockingTask$LT$alloc..boxed..Box$LT$tokio..fs..write..write_spawn_blocking..$u7b$$u7b$closure$u7d$$u7d$..$u7b$$u7b$closure$u7d$$u7d$$GT$$GT$$GT$$GT$17hd7ffa7cfc61a6a9eE', symObjAddr: 0x7198, symBinAddr: 0x23BA4, symSize: 0x64 }
  - { offset: 0xF7055, size: 0x8, addend: 0x0, symName: '__ZN4core3ptr236drop_in_place$LT$tokio..runtime..blocking..task..BlockingTask$LT$alloc..boxed..Box$LT$tokio..fs..rename..rename$LT$$RF$std..path..PathBuf$C$$RF$std..path..PathBuf$GT$..$u7b$$u7b$closure$u7d$$u7d$..$u7b$$u7b$closure$u7d$$u7d$$GT$$GT$$GT$17h0f0e6d4d001a38ffE', symObjAddr: 0x71FC, symBinAddr: 0x23C08, symSize: 0x24 }
  - { offset: 0xF7084, size: 0x8, addend: 0x0, symName: '__ZN4core3ptr237drop_in_place$LT$tokio..runtime..task..core..Stage$LT$tokio..runtime..blocking..task..BlockingTask$LT$tokio..fs..remove_file..remove_file$LT$$RF$std..path..PathBuf$GT$..$u7b$$u7b$closure$u7d$$u7d$..$u7b$$u7b$closure$u7d$$u7d$$GT$$GT$$GT$17ha0b44af0299c151eE', symObjAddr: 0x7220, symBinAddr: 0x23C2C, symSize: 0x64 }
  - { offset: 0xF70B3, size: 0x8, addend: 0x0, symName: '__ZN4core3ptr239drop_in_place$LT$alloc..boxed..Box$LT$tokio..runtime..task..core..Cell$LT$_sys..prefetch..engine..PrefetchEngine..prefetch..$u7b$$u7b$closure$u7d$$u7d$$C$alloc..sync..Arc$LT$tokio..runtime..scheduler..current_thread..Handle$GT$$GT$$GT$$GT$17hdfd52133011d67f1E', symObjAddr: 0x7284, symBinAddr: 0x23C90, symSize: 0x60 }
  - { offset: 0xF70E2, size: 0x8, addend: 0x0, symName: '__ZN4core3ptr239drop_in_place$LT$tokio..runtime..task..core..CoreStage$LT$tokio..runtime..blocking..task..BlockingTask$LT$alloc..boxed..Box$LT$tokio..fs..write..write_spawn_blocking..$u7b$$u7b$closure$u7d$$u7d$..$u7b$$u7b$closure$u7d$$u7d$$GT$$GT$$GT$$GT$17h86519e6b77d13b34E', symObjAddr: 0x72E4, symBinAddr: 0x23CF0, symSize: 0x24 }
  - { offset: 0xF7111, size: 0x8, addend: 0x0, symName: '__ZN4core3ptr240drop_in_place$LT$core..cell..UnsafeCell$LT$tokio..runtime..task..core..Stage$LT$tokio..runtime..blocking..task..BlockingTask$LT$tokio..fs..write..write_spawn_blocking..$u7b$$u7b$closure$u7d$$u7d$..$u7b$$u7b$closure$u7d$$u7d$$GT$$GT$$GT$$GT$17he43d5d2e2540f5a4E', symObjAddr: 0x7308, symBinAddr: 0x23D14, symSize: 0x24 }
  - { offset: 0xF7140, size: 0x8, addend: 0x0, symName: '__ZN4core3ptr240drop_in_place$LT$lock_api..rwlock..RwLock$LT$dashmap..lock..RawRwLock$C$hashbrown..raw..inner..RawTable$LT$$LP$_sys..storage..snapshot..SnapshotId$C$dashmap..util..SharedValue$LT$_sys..storage..snapshot..SnapshotMetadata$GT$$RP$$GT$$GT$$GT$17hdd1eab25bc959551E', symObjAddr: 0x732C, symBinAddr: 0x23D38, symSize: 0x24 }
  - { offset: 0xF716F, size: 0x8, addend: 0x0, symName: '__ZN4core3ptr240drop_in_place$LT$tokio..runtime..scheduler..multi_thread..MultiThread..block_on$LT$core..pin..Pin$LT$alloc..boxed..Box$LT$_sys..storage..snapshot..SnapshotStore..read..$u7b$$u7b$closure$u7d$$u7d$$GT$$GT$$GT$..$u7b$$u7b$closure$u7d$$u7d$$GT$17hc24746fbb0815e1eE', symObjAddr: 0x7350, symBinAddr: 0x23D5C, symSize: 0x24 }
  - { offset: 0xF719E, size: 0x8, addend: 0x0, symName: '__ZN4core3ptr241drop_in_place$LT$tokio..runtime..scheduler..multi_thread..MultiThread..block_on$LT$core..pin..Pin$LT$alloc..boxed..Box$LT$_sys..storage..snapshot..SnapshotStore..write..$u7b$$u7b$closure$u7d$$u7d$$GT$$GT$$GT$..$u7b$$u7b$closure$u7d$$u7d$$GT$17h7ac84943c151a945E', symObjAddr: 0x7374, symBinAddr: 0x23D80, symSize: 0x24 }
  - { offset: 0xF71CD, size: 0x8, addend: 0x0, symName: '__ZN4core3ptr241drop_in_place$LT$tokio..runtime..task..core..CoreStage$LT$tokio..runtime..blocking..task..BlockingTask$LT$tokio..fs..remove_file..remove_file$LT$$RF$std..path..PathBuf$GT$..$u7b$$u7b$closure$u7d$$u7d$..$u7b$$u7b$closure$u7d$$u7d$$GT$$GT$$GT$17h7b8922a58d9bfc51E', symObjAddr: 0x7398, symBinAddr: 0x23DA4, symSize: 0x24 }
  - { offset: 0xF71FC, size: 0x8, addend: 0x0, symName: '__ZN4core3ptr242drop_in_place$LT$tokio..runtime..scheduler..multi_thread..MultiThread..block_on$LT$core..pin..Pin$LT$alloc..boxed..Box$LT$_sys..storage..snapshot..SnapshotStore..delete..$u7b$$u7b$closure$u7d$$u7d$$GT$$GT$$GT$..$u7b$$u7b$closure$u7d$$u7d$$GT$17h96c4b86a42b807f5E', symObjAddr: 0x73BC, symBinAddr: 0x23DC8, symSize: 0x24 }
  - { offset: 0xF722B, size: 0x8, addend: 0x0, symName: '__ZN4core3ptr242drop_in_place$LT$tokio..runtime..scheduler..multi_thread..MultiThread..block_on$LT$core..pin..Pin$LT$alloc..boxed..Box$LT$_sys..storage..snapshot..SnapshotStore..exists..$u7b$$u7b$closure$u7d$$u7d$$GT$$GT$$GT$..$u7b$$u7b$closure$u7d$$u7d$$GT$17hdf9e44e17ec296bfE', symObjAddr: 0x73E0, symBinAddr: 0x23DEC, symSize: 0x24 }
  - { offset: 0xF725A, size: 0x8, addend: 0x0, symName: '__ZN4core3ptr243drop_in_place$LT$tokio..runtime..scheduler..multi_thread..MultiThread..block_on$LT$core..pin..Pin$LT$alloc..boxed..Box$LT$_sys..cache..manager..MemoryTierManager..demote..$u7b$$u7b$closure$u7d$$u7d$$GT$$GT$$GT$..$u7b$$u7b$closure$u7d$$u7d$$GT$17hdba2712844635d57E', symObjAddr: 0x7404, symBinAddr: 0x23E10, symSize: 0x24 }
  - { offset: 0xF7289, size: 0x8, addend: 0x0, symName: '__ZN4core3ptr244drop_in_place$LT$tokio..runtime..scheduler..multi_thread..MultiThread..block_on$LT$core..pin..Pin$LT$alloc..boxed..Box$LT$_sys..cache..manager..MemoryTierManager..promote..$u7b$$u7b$closure$u7d$$u7d$$GT$$GT$$GT$..$u7b$$u7b$closure$u7d$$u7d$$GT$17h932ddde07ef7c516E', symObjAddr: 0x7428, symBinAddr: 0x23E34, symSize: 0x24 }
  - { offset: 0xF72B8, size: 0x8, addend: 0x0, symName: '__ZN4core3ptr244drop_in_place$LT$tokio..runtime..scheduler..multi_thread..MultiThread..block_on$LT$core..pin..Pin$LT$alloc..boxed..Box$LT$_sys..storage..snapshot..SnapshotStore..list_all..$u7b$$u7b$closure$u7d$$u7d$$GT$$GT$$GT$..$u7b$$u7b$closure$u7d$$u7d$$GT$17h8673da55ae309554E', symObjAddr: 0x744C, symBinAddr: 0x23E58, symSize: 0x24 }
  - { offset: 0xF72E7, size: 0x8, addend: 0x0, symName: '__ZN4core3ptr244drop_in_place$LT$tokio..runtime..task..core..Stage$LT$tokio..runtime..blocking..task..BlockingTask$LT$alloc..boxed..Box$LT$tokio..fs..read..read$LT$std..path..PathBuf$GT$..$u7b$$u7b$closure$u7d$$u7d$..$u7b$$u7b$closure$u7d$$u7d$$GT$$GT$$GT$$GT$17h663e7b999b617645E', symObjAddr: 0x7470, symBinAddr: 0x23E7C, symSize: 0x64 }
  - { offset: 0xF7316, size: 0x8, addend: 0x0, symName: '__ZN4core3ptr245drop_in_place$LT$alloc..boxed..Box$LT$tokio..runtime..task..core..Cell$LT$_sys..prefetch..engine..PrefetchEngine..prefetch..$u7b$$u7b$closure$u7d$$u7d$$C$alloc..sync..Arc$LT$tokio..runtime..scheduler..multi_thread..handle..Handle$GT$$GT$$GT$$GT$17h1ffbfe622cd3b86cE', symObjAddr: 0x74D4, symBinAddr: 0x23EE0, symSize: 0x60 }
  - { offset: 0xF7345, size: 0x8, addend: 0x0, symName: '__ZN4core3ptr245drop_in_place$LT$alloc..sync..Arc$LT$lock_api..rwlock..RwLockReadGuard$LT$dashmap..lock..RawRwLock$C$hashbrown..raw..inner..RawTable$LT$$LP$$LP$u32$C$u32$RP$$C$dashmap..util..SharedValue$LT$_sys..cache..eviction..H2OScore$GT$$RP$$GT$$GT$$GT$$GT$17h7db4d0cb6b679df6E', symObjAddr: 0x7534, symBinAddr: 0x23F40, symSize: 0x24 }
  - { offset: 0xF7374, size: 0x8, addend: 0x0, symName: '__ZN4core3ptr245drop_in_place$LT$tokio..runtime..scheduler..multi_thread..MultiThread..block_on$LT$core..pin..Pin$LT$alloc..boxed..Box$LT$_sys..storage..snapshot..SnapshotStore..read_mmap..$u7b$$u7b$closure$u7d$$u7d$$GT$$GT$$GT$..$u7b$$u7b$closure$u7d$$u7d$$GT$17hff8b18634278ce03E', symObjAddr: 0x7558, symBinAddr: 0x23F64, symSize: 0x24 }
  - { offset: 0xF73A3, size: 0x8, addend: 0x0, symName: '__ZN4core3ptr246drop_in_place$LT$tokio..runtime..task..core..Stage$LT$tokio..runtime..blocking..task..BlockingTask$LT$alloc..boxed..Box$LT$_sys..storage..snapshot..SnapshotStore..read_mmap..$u7b$$u7b$closure$u7d$$u7d$..$u7b$$u7b$closure$u7d$$u7d$$GT$$GT$$GT$$GT$17ha66a24b6915b6fe3E', symObjAddr: 0x757C, symBinAddr: 0x23F88, symSize: 0x64 }
  - { offset: 0xF73D2, size: 0x8, addend: 0x0, symName: '__ZN4core3ptr248drop_in_place$LT$tokio..runtime..scheduler..multi_thread..MultiThread..block_on$LT$core..pin..Pin$LT$alloc..boxed..Box$LT$_sys..cache..manager..MemoryTierManager..maybe_evict..$u7b$$u7b$closure$u7d$$u7d$$GT$$GT$$GT$..$u7b$$u7b$closure$u7d$$u7d$$GT$17h917740e5fc15a0e2E', symObjAddr: 0x75E0, symBinAddr: 0x23FEC, symSize: 0x24 }
  - { offset: 0xF7401, size: 0x8, addend: 0x0, symName: '__ZN4core3ptr248drop_in_place$LT$tokio..runtime..task..core..CoreStage$LT$tokio..runtime..blocking..task..BlockingTask$LT$alloc..boxed..Box$LT$tokio..fs..read..read$LT$std..path..PathBuf$GT$..$u7b$$u7b$closure$u7d$$u7d$..$u7b$$u7b$closure$u7d$$u7d$$GT$$GT$$GT$$GT$17h7f422a91bdb4ab04E', symObjAddr: 0x7604, symBinAddr: 0x24010, symSize: 0x24 }
  - { offset: 0xF7430, size: 0x8, addend: 0x0, symName: '__ZN4core3ptr248drop_in_place$LT$tokio..runtime..task..core..Stage$LT$tokio..runtime..blocking..task..BlockingTask$LT$alloc..boxed..Box$LT$tokio..fs..read..read$LT$$RF$std..path..PathBuf$GT$..$u7b$$u7b$closure$u7d$$u7d$..$u7b$$u7b$closure$u7d$$u7d$$GT$$GT$$GT$$GT$17hd0a217b44a6b15f0E', symObjAddr: 0x7628, symBinAddr: 0x24034, symSize: 0x64 }
  - { offset: 0xF745F, size: 0x8, addend: 0x0, symName: '__ZN4core3ptr248drop_in_place$LT$tokio..runtime..task..core..Stage$LT$tokio..runtime..blocking..task..BlockingTask$LT$tokio..fs..open_options..OpenOptions..std_open$LT$$RF$std..path..PathBuf$GT$..$u7b$$u7b$closure$u7d$$u7d$..$u7b$$u7b$closure$u7d$$u7d$$GT$$GT$$GT$17h0020082a13226a55E', symObjAddr: 0x768C, symBinAddr: 0x24098, symSize: 0x64 }
  - { offset: 0xF748E, size: 0x8, addend: 0x0, symName: '__ZN4core3ptr249drop_in_place$LT$core..cell..UnsafeCell$LT$tokio..runtime..task..core..Stage$LT$tokio..runtime..blocking..task..BlockingTask$LT$tokio..fs..read..read$LT$std..path..PathBuf$GT$..$u7b$$u7b$closure$u7d$$u7d$..$u7b$$u7b$closure$u7d$$u7d$$GT$$GT$$GT$$GT$17h8cc91948a748e007E', symObjAddr: 0x76F0, symBinAddr: 0x240FC, symSize: 0x24 }
  - { offset: 0xF74BD, size: 0x8, addend: 0x0, symName: '__ZN4core3ptr249drop_in_place$LT$lock_api..rwlock..RwLockReadGuard$LT$dashmap..lock..RawRwLock$C$hashbrown..raw..inner..RawTable$LT$$LP$_sys..storage..snapshot..SnapshotId$C$dashmap..util..SharedValue$LT$_sys..storage..snapshot..SnapshotMetadata$GT$$RP$$GT$$GT$$GT$17h25fc78e8f5f01d0aE', symObjAddr: 0x7714, symBinAddr: 0x24120, symSize: 0x24 }
  - { offset: 0xF74EC, size: 0x8, addend: 0x0, symName: '__ZN4core3ptr249drop_in_place$LT$tokio..runtime..scheduler..multi_thread..MultiThread..block_on$LT$core..pin..Pin$LT$alloc..boxed..Box$LT$_sys..storage..snapshot..SnapshotStore..list_by_layer..$u7b$$u7b$closure$u7d$$u7d$$GT$$GT$$GT$..$u7b$$u7b$closure$u7d$$u7d$$GT$17hde03fda66d4d2a99E', symObjAddr: 0x7738, symBinAddr: 0x24144, symSize: 0x24 }
  - { offset: 0xF751B, size: 0x8, addend: 0x0, symName: '__ZN4core3ptr250drop_in_place$LT$alloc..sync..ArcInner$LT$lock_api..rwlock..RwLockReadGuard$LT$dashmap..lock..RawRwLock$C$hashbrown..raw..inner..RawTable$LT$$LP$$LP$u32$C$u32$RP$$C$dashmap..util..SharedValue$LT$_sys..cache..eviction..H2OScore$GT$$RP$$GT$$GT$$GT$$GT$17h8fb5ef446f470406E', symObjAddr: 0x775C, symBinAddr: 0x24168, symSize: 0x24 }
  - { offset: 0xF754A, size: 0x8, addend: 0x0, symName: '__ZN4core3ptr250drop_in_place$LT$lock_api..rwlock..RwLockWriteGuard$LT$dashmap..lock..RawRwLock$C$hashbrown..raw..inner..RawTable$LT$$LP$_sys..storage..snapshot..SnapshotId$C$dashmap..util..SharedValue$LT$_sys..storage..snapshot..SnapshotMetadata$GT$$RP$$GT$$GT$$GT$17h460c0b7c49f24047E', symObjAddr: 0x7780, symBinAddr: 0x2418C, symSize: 0x24 }
  - { offset: 0xF7579, size: 0x8, addend: 0x0, symName: '__ZN4core3ptr250drop_in_place$LT$tokio..runtime..task..core..CoreStage$LT$tokio..runtime..blocking..task..BlockingTask$LT$alloc..boxed..Box$LT$_sys..storage..snapshot..SnapshotStore..read_mmap..$u7b$$u7b$closure$u7d$$u7d$..$u7b$$u7b$closure$u7d$$u7d$$GT$$GT$$GT$$GT$17hae6d0da470fc2056E', symObjAddr: 0x77A4, symBinAddr: 0x241B0, symSize: 0x24 }
  - { offset: 0xF75A8, size: 0x8, addend: 0x0, symName: '__ZN4core3ptr251drop_in_place$LT$core..cell..UnsafeCell$LT$tokio..runtime..task..core..Stage$LT$tokio..runtime..blocking..task..BlockingTask$LT$_sys..storage..snapshot..SnapshotStore..read_mmap..$u7b$$u7b$closure$u7d$$u7d$..$u7b$$u7b$closure$u7d$$u7d$$GT$$GT$$GT$$GT$17h229bbe9e6a81408aE', symObjAddr: 0x77C8, symBinAddr: 0x241D4, symSize: 0x24 }
  - { offset: 0xF75D7, size: 0x8, addend: 0x0, symName: '__ZN4core3ptr252drop_in_place$LT$tokio..runtime..task..core..CoreStage$LT$tokio..runtime..blocking..task..BlockingTask$LT$alloc..boxed..Box$LT$tokio..fs..read..read$LT$$RF$std..path..PathBuf$GT$..$u7b$$u7b$closure$u7d$$u7d$..$u7b$$u7b$closure$u7d$$u7d$$GT$$GT$$GT$$GT$17h8f1f62e66bc2cf28E', symObjAddr: 0x77EC, symBinAddr: 0x241F8, symSize: 0x24 }
  - { offset: 0xF7606, size: 0x8, addend: 0x0, symName: '__ZN4core3ptr252drop_in_place$LT$tokio..runtime..task..core..CoreStage$LT$tokio..runtime..blocking..task..BlockingTask$LT$tokio..fs..open_options..OpenOptions..std_open$LT$$RF$std..path..PathBuf$GT$..$u7b$$u7b$closure$u7d$$u7d$..$u7b$$u7b$closure$u7d$$u7d$$GT$$GT$$GT$17h8003c7bd5720dc5aE', symObjAddr: 0x7810, symBinAddr: 0x2421C, symSize: 0x24 }
  - { offset: 0xF7635, size: 0x8, addend: 0x0, symName: '__ZN4core3ptr252drop_in_place$LT$tokio..runtime..task..core..Stage$LT$tokio..runtime..blocking..task..BlockingTask$LT$tokio..fs..rename..rename$LT$$RF$std..path..PathBuf$C$$RF$std..path..PathBuf$GT$..$u7b$$u7b$closure$u7d$$u7d$..$u7b$$u7b$closure$u7d$$u7d$$GT$$GT$$GT$17h834ae0506de7f67bE', symObjAddr: 0x7834, symBinAddr: 0x24240, symSize: 0x64 }
  - { offset: 0xF7664, size: 0x8, addend: 0x0, symName: '__ZN4core3ptr253drop_in_place$LT$core..cell..UnsafeCell$LT$tokio..runtime..task..core..Stage$LT$tokio..runtime..blocking..task..BlockingTask$LT$tokio..fs..read..read$LT$$RF$std..path..PathBuf$GT$..$u7b$$u7b$closure$u7d$$u7d$..$u7b$$u7b$closure$u7d$$u7d$$GT$$GT$$GT$$GT$17h17c714c827279a84E', symObjAddr: 0x7898, symBinAddr: 0x242A4, symSize: 0x24 }
  - { offset: 0xF7693, size: 0x8, addend: 0x0, symName: '__ZN4core3ptr254drop_in_place$LT$tokio..runtime..task..core..Core$LT$_sys..prefetch..engine..PrefetchEngine..prefetch..$u7b$$u7b$closure$u7d$$u7d$$C$alloc..sync..Arc$LT$tokio..runtime..scheduler..current_thread..Handle$GT$$GT$..set_stage..$u7b$$u7b$closure$u7d$$u7d$$GT$17hba81727611cd1155E', symObjAddr: 0x78BC, symBinAddr: 0x242C8, symSize: 0x24 }
  - { offset: 0xF76C2, size: 0x8, addend: 0x0, symName: '__ZN4core3ptr256drop_in_place$LT$tokio..runtime..scheduler..current_thread..CoreGuard..block_on$LT$core..pin..Pin$LT$$RF$mut$u20$_sys..storage..snapshot..SnapshotStore..read..$u7b$$u7b$closure$u7d$$u7d$$GT$$GT$..$u7b$$u7b$closure$u7d$$u7d$..$u7b$$u7b$closure$u7d$$u7d$$GT$17h1afaa59944329c84E', symObjAddr: 0x78E0, symBinAddr: 0x242EC, symSize: 0x24 }
  - { offset: 0xF76F1, size: 0x8, addend: 0x0, symName: '__ZN4core3ptr256drop_in_place$LT$tokio..runtime..task..core..CoreStage$LT$tokio..runtime..blocking..task..BlockingTask$LT$tokio..fs..rename..rename$LT$$RF$std..path..PathBuf$C$$RF$std..path..PathBuf$GT$..$u7b$$u7b$closure$u7d$$u7d$..$u7b$$u7b$closure$u7d$$u7d$$GT$$GT$$GT$17h846c2779d9e15badE', symObjAddr: 0x7904, symBinAddr: 0x24310, symSize: 0x24 }
  - { offset: 0xF7720, size: 0x8, addend: 0x0, symName: '__ZN4core3ptr256drop_in_place$LT$tokio..runtime..task..core..Stage$LT$tokio..runtime..blocking..task..BlockingTask$LT$alloc..boxed..Box$LT$tokio..fs..read_dir..read_dir$LT$$RF$std..path..PathBuf$GT$..$u7b$$u7b$closure$u7d$$u7d$..$u7b$$u7b$closure$u7d$$u7d$$GT$$GT$$GT$$GT$17h2d2ffaf91605097eE', symObjAddr: 0x7928, symBinAddr: 0x24334, symSize: 0x64 }
  - { offset: 0xF774F, size: 0x8, addend: 0x0, symName: '__ZN4core3ptr257drop_in_place$LT$tokio..runtime..scheduler..current_thread..CoreGuard..block_on$LT$core..pin..Pin$LT$$RF$mut$u20$_sys..storage..snapshot..SnapshotStore..write..$u7b$$u7b$closure$u7d$$u7d$$GT$$GT$..$u7b$$u7b$closure$u7d$$u7d$..$u7b$$u7b$closure$u7d$$u7d$$GT$17hcb645cce952b2331E', symObjAddr: 0x798C, symBinAddr: 0x24398, symSize: 0x24 }
  - { offset: 0xF777E, size: 0x8, addend: 0x0, symName: '__ZN4core3ptr258drop_in_place$LT$alloc..sync..Arc$LT$lock_api..rwlock..RwLockReadGuard$LT$dashmap..lock..RawRwLock$C$hashbrown..raw..inner..RawTable$LT$$LP$_sys..storage..snapshot..SnapshotId$C$dashmap..util..SharedValue$LT$alloc..vec..Vec$LT$f32$GT$$GT$$RP$$GT$$GT$$GT$$GT$17h7cbbbdb9c8c6ef4bE', symObjAddr: 0x79B0, symBinAddr: 0x243BC, symSize: 0x24 }
  - { offset: 0xF77AD, size: 0x8, addend: 0x0, symName: '__ZN4core3ptr258drop_in_place$LT$tokio..runtime..scheduler..current_thread..CoreGuard..block_on$LT$core..pin..Pin$LT$$RF$mut$u20$_sys..storage..snapshot..SnapshotStore..delete..$u7b$$u7b$closure$u7d$$u7d$$GT$$GT$..$u7b$$u7b$closure$u7d$$u7d$..$u7b$$u7b$closure$u7d$$u7d$$GT$17h406cd7fd50877262E', symObjAddr: 0x79D4, symBinAddr: 0x243E0, symSize: 0x24 }
  - { offset: 0xF77DC, size: 0x8, addend: 0x0, symName: '__ZN4core3ptr258drop_in_place$LT$tokio..runtime..scheduler..current_thread..CoreGuard..block_on$LT$core..pin..Pin$LT$$RF$mut$u20$_sys..storage..snapshot..SnapshotStore..exists..$u7b$$u7b$closure$u7d$$u7d$$GT$$GT$..$u7b$$u7b$closure$u7d$$u7d$..$u7b$$u7b$closure$u7d$$u7d$$GT$17hd18c11fe615c735fE', symObjAddr: 0x79F8, symBinAddr: 0x24404, symSize: 0x24 }
  - { offset: 0xF780B, size: 0x8, addend: 0x0, symName: '__ZN4core3ptr259drop_in_place$LT$core..iter..adapters..filter..Filter$LT$alloc..vec..into_iter..IntoIter$LT$_sys..storage..snapshot..SnapshotMetadata$GT$$C$_sys..storage..snapshot..SnapshotStore..list_by_layer..$u7b$$u7b$closure$u7d$$u7d$..$u7b$$u7b$closure$u7d$$u7d$$GT$$GT$17h597d240bd7ec2eefE', symObjAddr: 0x7A1C, symBinAddr: 0x24428, symSize: 0x24 }
  - { offset: 0xF783A, size: 0x8, addend: 0x0, symName: '__ZN4core3ptr259drop_in_place$LT$tokio..loom..std..unsafe_cell..UnsafeCell$LT$tokio..runtime..task..core..Stage$LT$tokio..runtime..blocking..task..BlockingTask$LT$tokio..fs..write..write_spawn_blocking..$u7b$$u7b$closure$u7d$$u7d$..$u7b$$u7b$closure$u7d$$u7d$$GT$$GT$$GT$$GT$17he5ae14dc2043703aE', symObjAddr: 0x7A40, symBinAddr: 0x2444C, symSize: 0x24 }
  - { offset: 0xF7869, size: 0x8, addend: 0x0, symName: '__ZN4core3ptr259drop_in_place$LT$tokio..runtime..scheduler..current_thread..CoreGuard..block_on$LT$core..pin..Pin$LT$$RF$mut$u20$_sys..cache..manager..MemoryTierManager..demote..$u7b$$u7b$closure$u7d$$u7d$$GT$$GT$..$u7b$$u7b$closure$u7d$$u7d$..$u7b$$u7b$closure$u7d$$u7d$$GT$17h0cdfce22bb9cfef2E', symObjAddr: 0x7A64, symBinAddr: 0x24470, symSize: 0x24 }
  - { offset: 0xF7898, size: 0x8, addend: 0x0, symName: '__ZN4core3ptr260drop_in_place$LT$tokio..runtime..scheduler..current_thread..CoreGuard..block_on$LT$core..pin..Pin$LT$$RF$mut$u20$_sys..cache..manager..MemoryTierManager..promote..$u7b$$u7b$closure$u7d$$u7d$$GT$$GT$..$u7b$$u7b$closure$u7d$$u7d$..$u7b$$u7b$closure$u7d$$u7d$$GT$17h7f3e5079470cd2bfE', symObjAddr: 0x7A88, symBinAddr: 0x24494, symSize: 0x24 }
  - { offset: 0xF78C7, size: 0x8, addend: 0x0, symName: '__ZN4core3ptr260drop_in_place$LT$tokio..runtime..scheduler..current_thread..CoreGuard..block_on$LT$core..pin..Pin$LT$$RF$mut$u20$_sys..storage..snapshot..SnapshotStore..list_all..$u7b$$u7b$closure$u7d$$u7d$$GT$$GT$..$u7b$$u7b$closure$u7d$$u7d$..$u7b$$u7b$closure$u7d$$u7d$$GT$17h38f97ea94e7282d0E', symObjAddr: 0x7AAC, symBinAddr: 0x244B8, symSize: 0x24 }
  - { offset: 0xF78F6, size: 0x8, addend: 0x0, symName: '__ZN4core3ptr260drop_in_place$LT$tokio..runtime..task..core..Core$LT$_sys..prefetch..engine..PrefetchEngine..prefetch..$u7b$$u7b$closure$u7d$$u7d$$C$alloc..sync..Arc$LT$tokio..runtime..scheduler..multi_thread..handle..Handle$GT$$GT$..set_stage..$u7b$$u7b$closure$u7d$$u7d$$GT$17hf56f3192aba8a455E', symObjAddr: 0x7AD0, symBinAddr: 0x244DC, symSize: 0x24 }
  - { offset: 0xF7925, size: 0x8, addend: 0x0, symName: '__ZN4core3ptr260drop_in_place$LT$tokio..runtime..task..core..CoreStage$LT$tokio..runtime..blocking..task..BlockingTask$LT$alloc..boxed..Box$LT$tokio..fs..read_dir..read_dir$LT$$RF$std..path..PathBuf$GT$..$u7b$$u7b$closure$u7d$$u7d$..$u7b$$u7b$closure$u7d$$u7d$$GT$$GT$$GT$$GT$17hde750cd6005bca7dE', symObjAddr: 0x7AF4, symBinAddr: 0x24500, symSize: 0x24 }
  - { offset: 0xF7954, size: 0x8, addend: 0x0, symName: '__ZN4core3ptr260drop_in_place$LT$tokio..runtime..task..harness..poll_future..$u7b$$u7b$closure$u7d$$u7d$..Guard$LT$_sys..prefetch..engine..PrefetchEngine..prefetch..$u7b$$u7b$closure$u7d$$u7d$$C$alloc..sync..Arc$LT$tokio..runtime..scheduler..current_thread..Handle$GT$$GT$$GT$17hd7fdf6755c731b0bE', symObjAddr: 0x7B18, symBinAddr: 0x24524, symSize: 0x24 }
  - { offset: 0xF7983, size: 0x8, addend: 0x0, symName: '__ZN4core3ptr261drop_in_place$LT$core..cell..UnsafeCell$LT$tokio..runtime..task..core..Stage$LT$tokio..runtime..blocking..task..BlockingTask$LT$tokio..fs..read_dir..read_dir$LT$$RF$std..path..PathBuf$GT$..$u7b$$u7b$closure$u7d$$u7d$..$u7b$$u7b$closure$u7d$$u7d$$GT$$GT$$GT$$GT$17h1b58188875158707E', symObjAddr: 0x7B3C, symBinAddr: 0x24548, symSize: 0x24 }
  - { offset: 0xF79B2, size: 0x8, addend: 0x0, symName: '__ZN4core3ptr261drop_in_place$LT$core..iter..adapters..map..Map$LT$core..iter..adapters..take..Take$LT$alloc..vec..into_iter..IntoIter$LT$$LP$_sys..storage..snapshot..SnapshotId$C$f32$RP$$GT$$GT$$C$_sys..prefetch..sketch..SketchIndex..top_k..$u7b$$u7b$closure$u7d$$u7d$$GT$$GT$17hdcb5cf1f51fe480fE', symObjAddr: 0x7B60, symBinAddr: 0x2456C, symSize: 0x24 }
  - { offset: 0xF79E1, size: 0x8, addend: 0x0, symName: '__ZN4core3ptr261drop_in_place$LT$tokio..runtime..scheduler..current_thread..CoreGuard..block_on$LT$core..pin..Pin$LT$$RF$mut$u20$_sys..storage..snapshot..SnapshotStore..read_mmap..$u7b$$u7b$closure$u7d$$u7d$$GT$$GT$..$u7b$$u7b$closure$u7d$$u7d$..$u7b$$u7b$closure$u7d$$u7d$$GT$17h67641d9e542a7111E', symObjAddr: 0x7B84, symBinAddr: 0x24590, symSize: 0x24 }
  - { offset: 0xF7A10, size: 0x8, addend: 0x0, symName: '__ZN4core3ptr261drop_in_place$LT$tokio..runtime..task..core..Cell$LT$core..pin..Pin$LT$alloc..boxed..Box$LT$_sys..prefetch..engine..PrefetchEngine..prefetch..$u7b$$u7b$closure$u7d$$u7d$$GT$$GT$$C$alloc..sync..Arc$LT$tokio..runtime..scheduler..current_thread..Handle$GT$$GT$$GT$17h2ea720c1011c4ff3E', symObjAddr: 0x7BA8, symBinAddr: 0x245B4, symSize: 0x64 }
  - { offset: 0xF7A3F, size: 0x8, addend: 0x0, symName: '__ZN4core3ptr261drop_in_place$LT$tokio..runtime..task..core..Core$LT$core..pin..Pin$LT$alloc..boxed..Box$LT$_sys..prefetch..engine..PrefetchEngine..prefetch..$u7b$$u7b$closure$u7d$$u7d$$GT$$GT$$C$alloc..sync..Arc$LT$tokio..runtime..scheduler..current_thread..Handle$GT$$GT$$GT$17hc5b327454902da4bE', symObjAddr: 0x7C0C, symBinAddr: 0x24618, symSize: 0x60 }
  - { offset: 0xF7A6E, size: 0x8, addend: 0x0, symName: '__ZN4core3ptr262drop_in_place$LT$crossbeam_utils..cache_padded..CachePadded$LT$lock_api..rwlock..RwLock$LT$dashmap..lock..RawRwLock$C$hashbrown..raw..inner..RawTable$LT$$LP$$LP$u32$C$u32$RP$$C$dashmap..util..SharedValue$LT$_sys..cache..eviction..H2OScore$GT$$RP$$GT$$GT$$GT$$GT$17h7973e36ed8891923E', symObjAddr: 0x7C6C, symBinAddr: 0x24678, symSize: 0x24 }
  - { offset: 0xF7A9D, size: 0x8, addend: 0x0, symName: '__ZN4core3ptr262drop_in_place$LT$tokio..runtime..task..core..Stage$LT$tokio..runtime..blocking..task..BlockingTask$LT$alloc..boxed..Box$LT$tokio..fs..remove_file..remove_file$LT$$RF$std..path..PathBuf$GT$..$u7b$$u7b$closure$u7d$$u7d$..$u7b$$u7b$closure$u7d$$u7d$$GT$$GT$$GT$$GT$17h119c5b4f49ad8276E', symObjAddr: 0x7C90, symBinAddr: 0x2469C, symSize: 0x64 }
  - { offset: 0xF7ACC, size: 0x8, addend: 0x0, symName: '__ZN4core3ptr263drop_in_place$LT$alloc..sync..ArcInner$LT$lock_api..rwlock..RwLockReadGuard$LT$dashmap..lock..RawRwLock$C$hashbrown..raw..inner..RawTable$LT$$LP$_sys..storage..snapshot..SnapshotId$C$dashmap..util..SharedValue$LT$alloc..vec..Vec$LT$f32$GT$$GT$$RP$$GT$$GT$$GT$$GT$17he30920e32a0f17c7E', symObjAddr: 0x7CF4, symBinAddr: 0x24700, symSize: 0x24 }
  - { offset: 0xF7AFB, size: 0x8, addend: 0x0, symName: '__ZN4core3ptr264drop_in_place$LT$tokio..runtime..scheduler..current_thread..CoreGuard..block_on$LT$core..pin..Pin$LT$$RF$mut$u20$_sys..cache..manager..MemoryTierManager..maybe_evict..$u7b$$u7b$closure$u7d$$u7d$$GT$$GT$..$u7b$$u7b$closure$u7d$$u7d$..$u7b$$u7b$closure$u7d$$u7d$$GT$17h0764fc5989d8c725E', symObjAddr: 0x7D18, symBinAddr: 0x24724, symSize: 0x24 }
  - { offset: 0xF7B2A, size: 0x8, addend: 0x0, symName: '__ZN4core3ptr264drop_in_place$LT$tokio..runtime..task..core..Cell$LT$tokio..runtime..blocking..task..BlockingTask$LT$tokio..fs..write..write_spawn_blocking..$u7b$$u7b$closure$u7d$$u7d$..$u7b$$u7b$closure$u7d$$u7d$$GT$$C$tokio..runtime..blocking..schedule..BlockingSchedule$GT$$GT$17h829fa08a2526cbbaE', symObjAddr: 0x7D3C, symBinAddr: 0x24748, symSize: 0x64 }
  - { offset: 0xF7B59, size: 0x8, addend: 0x0, symName: '__ZN4core3ptr264drop_in_place$LT$tokio..runtime..task..core..Core$LT$tokio..runtime..blocking..task..BlockingTask$LT$tokio..fs..write..write_spawn_blocking..$u7b$$u7b$closure$u7d$$u7d$..$u7b$$u7b$closure$u7d$$u7d$$GT$$C$tokio..runtime..blocking..schedule..BlockingSchedule$GT$$GT$17he5aca371f0db7ba0E', symObjAddr: 0x7DA0, symBinAddr: 0x247AC, symSize: 0x60 }
  - { offset: 0xF7B88, size: 0x8, addend: 0x0, symName: '__ZN4core3ptr265drop_in_place$LT$core..cell..UnsafeCell$LT$tokio..runtime..task..core..Stage$LT$tokio..runtime..blocking..task..BlockingTask$LT$alloc..boxed..Box$LT$tokio..fs..write..write_spawn_blocking..$u7b$$u7b$closure$u7d$$u7d$..$u7b$$u7b$closure$u7d$$u7d$$GT$$GT$$GT$$GT$$GT$17h07b5062d69635039E', symObjAddr: 0x7E00, symBinAddr: 0x2480C, symSize: 0x24 }
  - { offset: 0xF7BB7, size: 0x8, addend: 0x0, symName: '__ZN4core3ptr265drop_in_place$LT$tokio..runtime..scheduler..current_thread..CoreGuard..block_on$LT$core..pin..Pin$LT$$RF$mut$u20$_sys..storage..snapshot..SnapshotStore..list_by_layer..$u7b$$u7b$closure$u7d$$u7d$$GT$$GT$..$u7b$$u7b$closure$u7d$$u7d$..$u7b$$u7b$closure$u7d$$u7d$$GT$17he3c8b8a30b4dd706E', symObjAddr: 0x7E24, symBinAddr: 0x24830, symSize: 0x24 }
  - { offset: 0xF7BE6, size: 0x8, addend: 0x0, symName: '__ZN4core3ptr266drop_in_place$LT$tokio..runtime..task..core..CoreStage$LT$tokio..runtime..blocking..task..BlockingTask$LT$alloc..boxed..Box$LT$tokio..fs..remove_file..remove_file$LT$$RF$std..path..PathBuf$GT$..$u7b$$u7b$closure$u7d$$u7d$..$u7b$$u7b$closure$u7d$$u7d$$GT$$GT$$GT$$GT$17h4a682e88cea2a5feE', symObjAddr: 0x7E48, symBinAddr: 0x24854, symSize: 0x24 }
  - { offset: 0xF7C15, size: 0x8, addend: 0x0, symName: '__ZN4core3ptr266drop_in_place$LT$tokio..runtime..task..harness..poll_future..$u7b$$u7b$closure$u7d$$u7d$..Guard$LT$_sys..prefetch..engine..PrefetchEngine..prefetch..$u7b$$u7b$closure$u7d$$u7d$$C$alloc..sync..Arc$LT$tokio..runtime..scheduler..multi_thread..handle..Handle$GT$$GT$$GT$17hc4c9ff1cb8f9d339E', symObjAddr: 0x7E6C, symBinAddr: 0x24878, symSize: 0x24 }
  - { offset: 0xF7C44, size: 0x8, addend: 0x0, symName: '__ZN4core3ptr267drop_in_place$LT$core..cell..UnsafeCell$LT$tokio..runtime..task..core..Stage$LT$tokio..runtime..blocking..task..BlockingTask$LT$tokio..fs..remove_file..remove_file$LT$$RF$std..path..PathBuf$GT$..$u7b$$u7b$closure$u7d$$u7d$..$u7b$$u7b$closure$u7d$$u7d$$GT$$GT$$GT$$GT$17h22f28248905efe63E', symObjAddr: 0x7E90, symBinAddr: 0x2489C, symSize: 0x24 }
  - { offset: 0xF7C73, size: 0x8, addend: 0x0, symName: '__ZN4core3ptr267drop_in_place$LT$tokio..runtime..task..core..Cell$LT$core..pin..Pin$LT$alloc..boxed..Box$LT$_sys..prefetch..engine..PrefetchEngine..prefetch..$u7b$$u7b$closure$u7d$$u7d$$GT$$GT$$C$alloc..sync..Arc$LT$tokio..runtime..scheduler..multi_thread..handle..Handle$GT$$GT$$GT$17h965c4654fa28626aE', symObjAddr: 0x7EB4, symBinAddr: 0x248C0, symSize: 0x64 }
  - { offset: 0xF7CA2, size: 0x8, addend: 0x0, symName: '__ZN4core3ptr267drop_in_place$LT$tokio..runtime..task..core..Core$LT$core..pin..Pin$LT$alloc..boxed..Box$LT$_sys..prefetch..engine..PrefetchEngine..prefetch..$u7b$$u7b$closure$u7d$$u7d$$GT$$GT$$C$alloc..sync..Arc$LT$tokio..runtime..scheduler..multi_thread..handle..Handle$GT$$GT$$GT$17h6bfbd5b3a23983c9E', symObjAddr: 0x7F18, symBinAddr: 0x24924, symSize: 0x60 }
  - { offset: 0xF7CD1, size: 0x8, addend: 0x0, symName: '__ZN4core3ptr268drop_in_place$LT$tokio..loom..std..unsafe_cell..UnsafeCell$LT$tokio..runtime..task..core..Stage$LT$tokio..runtime..blocking..task..BlockingTask$LT$tokio..fs..read..read$LT$std..path..PathBuf$GT$..$u7b$$u7b$closure$u7d$$u7d$..$u7b$$u7b$closure$u7d$$u7d$$GT$$GT$$GT$$GT$17h405aa9cec58ae59cE', symObjAddr: 0x7F78, symBinAddr: 0x24984, symSize: 0x24 }
  - { offset: 0xF7D00, size: 0x8, addend: 0x0, symName: '__ZN4core3ptr270drop_in_place$LT$tokio..loom..std..unsafe_cell..UnsafeCell$LT$tokio..runtime..task..core..Stage$LT$tokio..runtime..blocking..task..BlockingTask$LT$_sys..storage..snapshot..SnapshotStore..read_mmap..$u7b$$u7b$closure$u7d$$u7d$..$u7b$$u7b$closure$u7d$$u7d$$GT$$GT$$GT$$GT$17h0627054bc359c478E', symObjAddr: 0x7F9C, symBinAddr: 0x249A8, symSize: 0x24 }
  - { offset: 0xF7D2F, size: 0x8, addend: 0x0, symName: '__ZN4core3ptr272drop_in_place$LT$$u5b$crossbeam_utils..cache_padded..CachePadded$LT$lock_api..rwlock..RwLock$LT$dashmap..lock..RawRwLock$C$hashbrown..raw..inner..RawTable$LT$$LP$$LP$u32$C$u32$RP$$C$dashmap..util..SharedValue$LT$_sys..cache..eviction..H2OScore$GT$$RP$$GT$$GT$$GT$$u5d$$GT$17h0334f27a80a95d2fE', symObjAddr: 0x7FC0, symBinAddr: 0x249CC, symSize: 0xB4 }
  - { offset: 0xF7D5E, size: 0x8, addend: 0x0, symName: '__ZN4core3ptr272drop_in_place$LT$tokio..loom..std..unsafe_cell..UnsafeCell$LT$tokio..runtime..task..core..Stage$LT$tokio..runtime..blocking..task..BlockingTask$LT$tokio..fs..read..read$LT$$RF$std..path..PathBuf$GT$..$u7b$$u7b$closure$u7d$$u7d$..$u7b$$u7b$closure$u7d$$u7d$$GT$$GT$$GT$$GT$17h42c463dd889faa9eE', symObjAddr: 0x8074, symBinAddr: 0x24A80, symSize: 0x24 }
  - { offset: 0xF7D8D, size: 0x8, addend: 0x0, symName: '__ZN4core3ptr273drop_in_place$LT$alloc..sync..Weak$LT$lock_api..rwlock..RwLockReadGuard$LT$dashmap..lock..RawRwLock$C$hashbrown..raw..inner..RawTable$LT$$LP$$LP$u32$C$u32$RP$$C$dashmap..util..SharedValue$LT$_sys..cache..eviction..H2OScore$GT$$RP$$GT$$GT$$C$$RF$alloc..alloc..Global$GT$$GT$17h7c565b3255d54a88E', symObjAddr: 0x8098, symBinAddr: 0x24AA4, symSize: 0x24 }
  - { offset: 0xF7DBC, size: 0x8, addend: 0x0, symName: '__ZN4core3ptr273drop_in_place$LT$tokio..runtime..task..core..Cell$LT$tokio..runtime..blocking..task..BlockingTask$LT$tokio..fs..read..read$LT$std..path..PathBuf$GT$..$u7b$$u7b$closure$u7d$$u7d$..$u7b$$u7b$closure$u7d$$u7d$$GT$$C$tokio..runtime..blocking..schedule..BlockingSchedule$GT$$GT$17ha86f4f078b54068fE', symObjAddr: 0x80BC, symBinAddr: 0x24AC8, symSize: 0x64 }
  - { offset: 0xF7DEB, size: 0x8, addend: 0x0, symName: '__ZN4core3ptr273drop_in_place$LT$tokio..runtime..task..core..Core$LT$tokio..runtime..blocking..task..BlockingTask$LT$tokio..fs..read..read$LT$std..path..PathBuf$GT$..$u7b$$u7b$closure$u7d$$u7d$..$u7b$$u7b$closure$u7d$$u7d$$GT$$C$tokio..runtime..blocking..schedule..BlockingSchedule$GT$$GT$17h05eeff580286b11bE', symObjAddr: 0x8120, symBinAddr: 0x24B2C, symSize: 0x60 }
  - { offset: 0xF7E1A, size: 0x8, addend: 0x0, symName: '__ZN4core3ptr273drop_in_place$LT$tokio..runtime..task..core..Stage$LT$tokio..runtime..blocking..task..BlockingTask$LT$alloc..boxed..Box$LT$tokio..fs..open_options..OpenOptions..std_open$LT$$RF$std..path..PathBuf$GT$..$u7b$$u7b$closure$u7d$$u7d$..$u7b$$u7b$closure$u7d$$u7d$$GT$$GT$$GT$$GT$17hee6e5ad656ce9d12E', symObjAddr: 0x8180, symBinAddr: 0x24B8C, symSize: 0x64 }
  - { offset: 0xF7E49, size: 0x8, addend: 0x0, symName: '__ZN4core3ptr274drop_in_place$LT$core..cell..UnsafeCell$LT$tokio..runtime..task..core..Stage$LT$tokio..runtime..blocking..task..BlockingTask$LT$alloc..boxed..Box$LT$tokio..fs..read..read$LT$std..path..PathBuf$GT$..$u7b$$u7b$closure$u7d$$u7d$..$u7b$$u7b$closure$u7d$$u7d$$GT$$GT$$GT$$GT$$GT$17h56dc217f4d126e2aE', symObjAddr: 0x81E4, symBinAddr: 0x24BF0, symSize: 0x24 }
  - { offset: 0xF7E78, size: 0x8, addend: 0x0, symName: '__ZN4core3ptr275drop_in_place$LT$crossbeam_utils..cache_padded..CachePadded$LT$lock_api..rwlock..RwLock$LT$dashmap..lock..RawRwLock$C$hashbrown..raw..inner..RawTable$LT$$LP$_sys..storage..snapshot..SnapshotId$C$dashmap..util..SharedValue$LT$alloc..vec..Vec$LT$f32$GT$$GT$$RP$$GT$$GT$$GT$$GT$17h8bbc3e5a5521cfd9E', symObjAddr: 0x8208, symBinAddr: 0x24C14, symSize: 0x24 }
  - { offset: 0xF7EA7, size: 0x8, addend: 0x0, symName: '__ZN4core3ptr275drop_in_place$LT$crossbeam_utils..cache_padded..CachePadded$LT$lock_api..rwlock..RwLock$LT$dashmap..lock..RawRwLock$C$hashbrown..raw..inner..RawTable$LT$$LP$u32$C$dashmap..util..SharedValue$LT$alloc..vec..Vec$LT$_sys..storage..snapshot..SnapshotId$GT$$GT$$RP$$GT$$GT$$GT$$GT$17had06794bae0b370aE', symObjAddr: 0x822C, symBinAddr: 0x24C38, symSize: 0x24 }
  - { offset: 0xF7ED6, size: 0x8, addend: 0x0, symName: '__ZN4core3ptr275drop_in_place$LT$hashbrown..scopeguard..ScopeGuard$LT$$RF$mut$u20$hashbrown..raw..RawTable$LT$$LP$u32$C$_sys..prefetch..sketch..SketchIndex$RP$$GT$$C$hashbrown..raw..RawTable$LT$$LP$u32$C$_sys..prefetch..sketch..SketchIndex$RP$$GT$..clear..$u7b$$u7b$closure$u7d$$u7d$$GT$$GT$17hf1f9dd1db2159cddE', symObjAddr: 0x8250, symBinAddr: 0x24C5C, symSize: 0x24 }
  - { offset: 0xF7F05, size: 0x8, addend: 0x0, symName: '__ZN4core3ptr275drop_in_place$LT$tokio..runtime..task..core..Cell$LT$tokio..runtime..blocking..task..BlockingTask$LT$_sys..storage..snapshot..SnapshotStore..read_mmap..$u7b$$u7b$closure$u7d$$u7d$..$u7b$$u7b$closure$u7d$$u7d$$GT$$C$tokio..runtime..blocking..schedule..BlockingSchedule$GT$$GT$17h68eddbaad48eb972E', symObjAddr: 0x8274, symBinAddr: 0x24C80, symSize: 0x64 }
  - { offset: 0xF7F34, size: 0x8, addend: 0x0, symName: '__ZN4core3ptr275drop_in_place$LT$tokio..runtime..task..core..Core$LT$tokio..runtime..blocking..task..BlockingTask$LT$_sys..storage..snapshot..SnapshotStore..read_mmap..$u7b$$u7b$closure$u7d$$u7d$..$u7b$$u7b$closure$u7d$$u7d$$GT$$C$tokio..runtime..blocking..schedule..BlockingSchedule$GT$$GT$17h113f6bdffb7cc3abE', symObjAddr: 0x82D8, symBinAddr: 0x24CE4, symSize: 0x60 }
  - { offset: 0xF7F63, size: 0x8, addend: 0x0, symName: '__ZN4core3ptr276drop_in_place$LT$core..cell..UnsafeCell$LT$tokio..runtime..task..core..Stage$LT$tokio..runtime..blocking..task..BlockingTask$LT$alloc..boxed..Box$LT$_sys..storage..snapshot..SnapshotStore..read_mmap..$u7b$$u7b$closure$u7d$$u7d$..$u7b$$u7b$closure$u7d$$u7d$$GT$$GT$$GT$$GT$$GT$17h83a49ff0395de012E', symObjAddr: 0x8338, symBinAddr: 0x24D44, symSize: 0x24 }
  - { offset: 0xF7F92, size: 0x8, addend: 0x0, symName: '__ZN4core3ptr277drop_in_place$LT$tokio..runtime..task..core..Cell$LT$tokio..runtime..blocking..task..BlockingTask$LT$tokio..fs..read..read$LT$$RF$std..path..PathBuf$GT$..$u7b$$u7b$closure$u7d$$u7d$..$u7b$$u7b$closure$u7d$$u7d$$GT$$C$tokio..runtime..blocking..schedule..BlockingSchedule$GT$$GT$17hd5211317167ef7e3E', symObjAddr: 0x835C, symBinAddr: 0x24D68, symSize: 0x64 }
  - { offset: 0xF7FC1, size: 0x8, addend: 0x0, symName: '__ZN4core3ptr277drop_in_place$LT$tokio..runtime..task..core..Core$LT$tokio..runtime..blocking..task..BlockingTask$LT$tokio..fs..read..read$LT$$RF$std..path..PathBuf$GT$..$u7b$$u7b$closure$u7d$$u7d$..$u7b$$u7b$closure$u7d$$u7d$$GT$$C$tokio..runtime..blocking..schedule..BlockingSchedule$GT$$GT$17hdec6c08863717684E', symObjAddr: 0x83C0, symBinAddr: 0x24DCC, symSize: 0x60 }
  - { offset: 0xF7FF0, size: 0x8, addend: 0x0, symName: '__ZN4core3ptr277drop_in_place$LT$tokio..runtime..task..core..CoreStage$LT$tokio..runtime..blocking..task..BlockingTask$LT$alloc..boxed..Box$LT$tokio..fs..open_options..OpenOptions..std_open$LT$$RF$std..path..PathBuf$GT$..$u7b$$u7b$closure$u7d$$u7d$..$u7b$$u7b$closure$u7d$$u7d$$GT$$GT$$GT$$GT$17ha9802129d3887439E', symObjAddr: 0x8420, symBinAddr: 0x24E2C, symSize: 0x24 }
  - { offset: 0xF801F, size: 0x8, addend: 0x0, symName: '__ZN4core3ptr277drop_in_place$LT$tokio..runtime..task..core..Stage$LT$tokio..runtime..blocking..task..BlockingTask$LT$alloc..boxed..Box$LT$tokio..fs..rename..rename$LT$$RF$std..path..PathBuf$C$$RF$std..path..PathBuf$GT$..$u7b$$u7b$closure$u7d$$u7d$..$u7b$$u7b$closure$u7d$$u7d$$GT$$GT$$GT$$GT$17hc3f77f93fcc60ff3E', symObjAddr: 0x8444, symBinAddr: 0x24E50, symSize: 0x64 }
  - { offset: 0xF804E, size: 0x8, addend: 0x0, symName: '__ZN4core3ptr278drop_in_place$LT$core..cell..UnsafeCell$LT$tokio..runtime..task..core..Stage$LT$tokio..runtime..blocking..task..BlockingTask$LT$alloc..boxed..Box$LT$tokio..fs..read..read$LT$$RF$std..path..PathBuf$GT$..$u7b$$u7b$closure$u7d$$u7d$..$u7b$$u7b$closure$u7d$$u7d$$GT$$GT$$GT$$GT$$GT$17h391d84d37effee28E', symObjAddr: 0x84A8, symBinAddr: 0x24EB4, symSize: 0x24 }
  - { offset: 0xF807D, size: 0x8, addend: 0x0, symName: '__ZN4core3ptr278drop_in_place$LT$core..cell..UnsafeCell$LT$tokio..runtime..task..core..Stage$LT$tokio..runtime..blocking..task..BlockingTask$LT$tokio..fs..open_options..OpenOptions..std_open$LT$$RF$std..path..PathBuf$GT$..$u7b$$u7b$closure$u7d$$u7d$..$u7b$$u7b$closure$u7d$$u7d$$GT$$GT$$GT$$GT$17h20a319e135d0f589E', symObjAddr: 0x84CC, symBinAddr: 0x24ED8, symSize: 0x24 }
  - { offset: 0xF80AC, size: 0x8, addend: 0x0, symName: '__ZN4core3ptr280drop_in_place$LT$tokio..loom..std..unsafe_cell..UnsafeCell$LT$tokio..runtime..task..core..Stage$LT$tokio..runtime..blocking..task..BlockingTask$LT$tokio..fs..read_dir..read_dir$LT$$RF$std..path..PathBuf$GT$..$u7b$$u7b$closure$u7d$$u7d$..$u7b$$u7b$closure$u7d$$u7d$$GT$$GT$$GT$$GT$17h28985ef3851a67edE', symObjAddr: 0x84F0, symBinAddr: 0x24EFC, symSize: 0x24 }
  - { offset: 0xF80DB, size: 0x8, addend: 0x0, symName: '__ZN4core3ptr281drop_in_place$LT$tokio..runtime..task..core..CoreStage$LT$tokio..runtime..blocking..task..BlockingTask$LT$alloc..boxed..Box$LT$tokio..fs..rename..rename$LT$$RF$std..path..PathBuf$C$$RF$std..path..PathBuf$GT$..$u7b$$u7b$closure$u7d$$u7d$..$u7b$$u7b$closure$u7d$$u7d$$GT$$GT$$GT$$GT$17h6f1dd9ced9ad0015E', symObjAddr: 0x8514, symBinAddr: 0x24F20, symSize: 0x24 }
  - { offset: 0xF810A, size: 0x8, addend: 0x0, symName: '__ZN4core3ptr282drop_in_place$LT$core..cell..UnsafeCell$LT$tokio..runtime..task..core..Stage$LT$tokio..runtime..blocking..task..BlockingTask$LT$tokio..fs..rename..rename$LT$$RF$std..path..PathBuf$C$$RF$std..path..PathBuf$GT$..$u7b$$u7b$closure$u7d$$u7d$..$u7b$$u7b$closure$u7d$$u7d$$GT$$GT$$GT$$GT$17h0e1816c009171831E', symObjAddr: 0x8538, symBinAddr: 0x24F44, symSize: 0x24 }
  - { offset: 0xF8139, size: 0x8, addend: 0x0, symName: '__ZN4core3ptr282drop_in_place$LT$core..iter..adapters..map..Map$LT$dashmap..iter..Iter$LT$$LP$u32$C$u32$RP$$C$_sys..cache..eviction..H2OScore$GT$$C$$LT$_sys..cache..eviction..H2OEvictionPolicy$u20$as$u20$_sys..cache..eviction..EvictionPolicy$GT$..top_candidates..$u7b$$u7b$closure$u7d$$u7d$$GT$$GT$17hdc60196104dba090E', symObjAddr: 0x855C, symBinAddr: 0x24F68, symSize: 0x24 }
  - { offset: 0xF8168, size: 0x8, addend: 0x0, symName: '__ZN4core3ptr284drop_in_place$LT$tokio..loom..std..unsafe_cell..UnsafeCell$LT$tokio..runtime..task..core..Stage$LT$tokio..runtime..blocking..task..BlockingTask$LT$alloc..boxed..Box$LT$tokio..fs..write..write_spawn_blocking..$u7b$$u7b$closure$u7d$$u7d$..$u7b$$u7b$closure$u7d$$u7d$$GT$$GT$$GT$$GT$$GT$17h97ad983e899781cbE', symObjAddr: 0x8580, symBinAddr: 0x24F8C, symSize: 0x24 }
  - { offset: 0xF8197, size: 0x8, addend: 0x0, symName: '__ZN4core3ptr285drop_in_place$LT$$u5b$crossbeam_utils..cache_padded..CachePadded$LT$lock_api..rwlock..RwLock$LT$dashmap..lock..RawRwLock$C$hashbrown..raw..inner..RawTable$LT$$LP$_sys..storage..snapshot..SnapshotId$C$dashmap..util..SharedValue$LT$alloc..vec..Vec$LT$f32$GT$$GT$$RP$$GT$$GT$$GT$$u5d$$GT$17h1ff2489fe35cdd46E', symObjAddr: 0x85A4, symBinAddr: 0x24FB0, symSize: 0xB4 }
  - { offset: 0xF81C6, size: 0x8, addend: 0x0, symName: '__ZN4core3ptr285drop_in_place$LT$$u5b$crossbeam_utils..cache_padded..CachePadded$LT$lock_api..rwlock..RwLock$LT$dashmap..lock..RawRwLock$C$hashbrown..raw..inner..RawTable$LT$$LP$u32$C$dashmap..util..SharedValue$LT$alloc..vec..Vec$LT$_sys..storage..snapshot..SnapshotId$GT$$GT$$RP$$GT$$GT$$GT$$u5d$$GT$17h4db74c5f1744160cE', symObjAddr: 0x8658, symBinAddr: 0x25064, symSize: 0xB4 }
  - { offset: 0xF81F5, size: 0x8, addend: 0x0, symName: '__ZN4core3ptr285drop_in_place$LT$alloc..vec..Vec$LT$crossbeam_utils..cache_padded..CachePadded$LT$lock_api..rwlock..RwLock$LT$dashmap..lock..RawRwLock$C$hashbrown..raw..inner..RawTable$LT$$LP$$LP$u32$C$u32$RP$$C$dashmap..util..SharedValue$LT$_sys..cache..eviction..H2OScore$GT$$RP$$GT$$GT$$GT$$GT$$GT$17h5fa6f156339fd759E', symObjAddr: 0x870C, symBinAddr: 0x25118, symSize: 0x5C }
  - { offset: 0xF8224, size: 0x8, addend: 0x0, symName: '__ZN4core3ptr285drop_in_place$LT$tokio..runtime..task..core..Cell$LT$tokio..runtime..blocking..task..BlockingTask$LT$tokio..fs..read_dir..read_dir$LT$$RF$std..path..PathBuf$GT$..$u7b$$u7b$closure$u7d$$u7d$..$u7b$$u7b$closure$u7d$$u7d$$GT$$C$tokio..runtime..blocking..schedule..BlockingSchedule$GT$$GT$17h910d30be08aa270cE', symObjAddr: 0x8768, symBinAddr: 0x25174, symSize: 0x64 }
  - { offset: 0xF8253, size: 0x8, addend: 0x0, symName: '__ZN4core3ptr285drop_in_place$LT$tokio..runtime..task..core..Core$LT$tokio..runtime..blocking..task..BlockingTask$LT$tokio..fs..read_dir..read_dir$LT$$RF$std..path..PathBuf$GT$..$u7b$$u7b$closure$u7d$$u7d$..$u7b$$u7b$closure$u7d$$u7d$$GT$$C$tokio..runtime..blocking..schedule..BlockingSchedule$GT$$GT$17h0b8d21a734dfe463E', symObjAddr: 0x87CC, symBinAddr: 0x251D8, symSize: 0x60 }
  - { offset: 0xF8282, size: 0x8, addend: 0x0, symName: '__ZN4core3ptr286drop_in_place$LT$alloc..boxed..Box$LT$tokio..runtime..task..core..Cell$LT$core..pin..Pin$LT$alloc..boxed..Box$LT$_sys..prefetch..engine..PrefetchEngine..prefetch..$u7b$$u7b$closure$u7d$$u7d$$GT$$GT$$C$alloc..sync..Arc$LT$tokio..runtime..scheduler..current_thread..Handle$GT$$GT$$GT$$GT$17hf146df47286d8058E', symObjAddr: 0x882C, symBinAddr: 0x25238, symSize: 0x60 }
  - { offset: 0xF82B1, size: 0x8, addend: 0x0, symName: '__ZN4core3ptr286drop_in_place$LT$alloc..sync..Weak$LT$lock_api..rwlock..RwLockReadGuard$LT$dashmap..lock..RawRwLock$C$hashbrown..raw..inner..RawTable$LT$$LP$_sys..storage..snapshot..SnapshotId$C$dashmap..util..SharedValue$LT$alloc..vec..Vec$LT$f32$GT$$GT$$RP$$GT$$GT$$C$$RF$alloc..alloc..Global$GT$$GT$17h2df6fd446213887fE', symObjAddr: 0x888C, symBinAddr: 0x25298, symSize: 0x24 }
  - { offset: 0xF82E0, size: 0x8, addend: 0x0, symName: '__ZN4core3ptr286drop_in_place$LT$core..cell..UnsafeCell$LT$tokio..runtime..task..core..Stage$LT$tokio..runtime..blocking..task..BlockingTask$LT$alloc..boxed..Box$LT$tokio..fs..read_dir..read_dir$LT$$RF$std..path..PathBuf$GT$..$u7b$$u7b$closure$u7d$$u7d$..$u7b$$u7b$closure$u7d$$u7d$$GT$$GT$$GT$$GT$$GT$17h1e6a1de2d636ae78E', symObjAddr: 0x88B0, symBinAddr: 0x252BC, symSize: 0x24 }
  - { offset: 0xF830F, size: 0x8, addend: 0x0, symName: '__ZN4core3ptr286drop_in_place$LT$tokio..loom..std..unsafe_cell..UnsafeCell$LT$tokio..runtime..task..core..Stage$LT$tokio..runtime..blocking..task..BlockingTask$LT$tokio..fs..remove_file..remove_file$LT$$RF$std..path..PathBuf$GT$..$u7b$$u7b$closure$u7d$$u7d$..$u7b$$u7b$closure$u7d$$u7d$$GT$$GT$$GT$$GT$17h9f89ab50276248b4E', symObjAddr: 0x88D4, symBinAddr: 0x252E0, symSize: 0x24 }
  - { offset: 0xF833E, size: 0x8, addend: 0x0, symName: '__ZN4core3ptr289drop_in_place$LT$alloc..boxed..Box$LT$tokio..runtime..task..core..Cell$LT$tokio..runtime..blocking..task..BlockingTask$LT$tokio..fs..write..write_spawn_blocking..$u7b$$u7b$closure$u7d$$u7d$..$u7b$$u7b$closure$u7d$$u7d$$GT$$C$tokio..runtime..blocking..schedule..BlockingSchedule$GT$$GT$$GT$17h093f17877b45717dE', symObjAddr: 0x88F8, symBinAddr: 0x25304, symSize: 0x60 }
  - { offset: 0xF836D, size: 0x8, addend: 0x0, symName: '__ZN4core3ptr289drop_in_place$LT$tokio..runtime..task..core..Cell$LT$tokio..runtime..blocking..task..BlockingTask$LT$alloc..boxed..Box$LT$tokio..fs..write..write_spawn_blocking..$u7b$$u7b$closure$u7d$$u7d$..$u7b$$u7b$closure$u7d$$u7d$$GT$$GT$$C$tokio..runtime..blocking..schedule..BlockingSchedule$GT$$GT$17h13d58baebe94e703E', symObjAddr: 0x8958, symBinAddr: 0x25364, symSize: 0x64 }
  - { offset: 0xF839C, size: 0x8, addend: 0x0, symName: '__ZN4core3ptr289drop_in_place$LT$tokio..runtime..task..core..Core$LT$tokio..runtime..blocking..task..BlockingTask$LT$alloc..boxed..Box$LT$tokio..fs..write..write_spawn_blocking..$u7b$$u7b$closure$u7d$$u7d$..$u7b$$u7b$closure$u7d$$u7d$$GT$$GT$$C$tokio..runtime..blocking..schedule..BlockingSchedule$GT$$GT$17he1061f6bda8927a9E', symObjAddr: 0x89BC, symBinAddr: 0x253C8, symSize: 0x60 }
  - { offset: 0xF83CB, size: 0x8, addend: 0x0, symName: '__ZN4core3ptr290drop_in_place$LT$crossbeam_utils..cache_padded..CachePadded$LT$lock_api..rwlock..RwLock$LT$dashmap..lock..RawRwLock$C$hashbrown..raw..inner..RawTable$LT$$LP$_sys..storage..snapshot..SnapshotId$C$dashmap..util..SharedValue$LT$_sys..storage..snapshot..SnapshotMetadata$GT$$RP$$GT$$GT$$GT$$GT$17h0eaf9cc0e1e6b7beE', symObjAddr: 0x8A1C, symBinAddr: 0x25428, symSize: 0x24 }
  - { offset: 0xF83FA, size: 0x8, addend: 0x0, symName: '__ZN4core3ptr291drop_in_place$LT$tokio..runtime..task..core..Cell$LT$tokio..runtime..blocking..task..BlockingTask$LT$tokio..fs..remove_file..remove_file$LT$$RF$std..path..PathBuf$GT$..$u7b$$u7b$closure$u7d$$u7d$..$u7b$$u7b$closure$u7d$$u7d$$GT$$C$tokio..runtime..blocking..schedule..BlockingSchedule$GT$$GT$17h09a6cbf9d7dc570aE', symObjAddr: 0x8A40, symBinAddr: 0x2544C, symSize: 0x64 }
  - { offset: 0xF8429, size: 0x8, addend: 0x0, symName: '__ZN4core3ptr291drop_in_place$LT$tokio..runtime..task..core..Core$LT$tokio..runtime..blocking..task..BlockingTask$LT$tokio..fs..remove_file..remove_file$LT$$RF$std..path..PathBuf$GT$..$u7b$$u7b$closure$u7d$$u7d$..$u7b$$u7b$closure$u7d$$u7d$$GT$$C$tokio..runtime..blocking..schedule..BlockingSchedule$GT$$GT$17h191f784cb78b9450E', symObjAddr: 0x8AA4, symBinAddr: 0x254B0, symSize: 0x60 }
  - { offset: 0xF8458, size: 0x8, addend: 0x0, symName: '__ZN4core3ptr292drop_in_place$LT$alloc..boxed..Box$LT$tokio..runtime..task..core..Cell$LT$core..pin..Pin$LT$alloc..boxed..Box$LT$_sys..prefetch..engine..PrefetchEngine..prefetch..$u7b$$u7b$closure$u7d$$u7d$$GT$$GT$$C$alloc..sync..Arc$LT$tokio..runtime..scheduler..multi_thread..handle..Handle$GT$$GT$$GT$$GT$17h4474692fecf78ab5E', symObjAddr: 0x8B04, symBinAddr: 0x25510, symSize: 0x60 }
  - { offset: 0xF8487, size: 0x8, addend: 0x0, symName: '__ZN4core3ptr292drop_in_place$LT$alloc..raw_vec..RawVec$LT$crossbeam_utils..cache_padded..CachePadded$LT$lock_api..rwlock..RwLock$LT$dashmap..lock..RawRwLock$C$hashbrown..raw..inner..RawTable$LT$$LP$$LP$u32$C$u32$RP$$C$dashmap..util..SharedValue$LT$_sys..cache..eviction..H2OScore$GT$$RP$$GT$$GT$$GT$$GT$$GT$17h82fb29d609869277E', symObjAddr: 0x8B64, symBinAddr: 0x25570, symSize: 0x24 }
  - { offset: 0xF84B6, size: 0x8, addend: 0x0, symName: '__ZN4core3ptr292drop_in_place$LT$core..cell..UnsafeCell$LT$tokio..runtime..task..core..Stage$LT$tokio..runtime..blocking..task..BlockingTask$LT$alloc..boxed..Box$LT$tokio..fs..remove_file..remove_file$LT$$RF$std..path..PathBuf$GT$..$u7b$$u7b$closure$u7d$$u7d$..$u7b$$u7b$closure$u7d$$u7d$$GT$$GT$$GT$$GT$$GT$17hf31bdc58f981ada7E', symObjAddr: 0x8B88, symBinAddr: 0x25594, symSize: 0x24 }
  - { offset: 0xF84E5, size: 0x8, addend: 0x0, symName: '__ZN4core3ptr293drop_in_place$LT$tokio..loom..std..unsafe_cell..UnsafeCell$LT$tokio..runtime..task..core..Stage$LT$tokio..runtime..blocking..task..BlockingTask$LT$alloc..boxed..Box$LT$tokio..fs..read..read$LT$std..path..PathBuf$GT$..$u7b$$u7b$closure$u7d$$u7d$..$u7b$$u7b$closure$u7d$$u7d$$GT$$GT$$GT$$GT$$GT$17h3c40beb86ec2fed6E', symObjAddr: 0x8BAC, symBinAddr: 0x255B8, symSize: 0x24 }
  - { offset: 0xF8514, size: 0x8, addend: 0x0, symName: '__ZN4core3ptr295drop_in_place$LT$tokio..loom..std..unsafe_cell..UnsafeCell$LT$tokio..runtime..task..core..Stage$LT$tokio..runtime..blocking..task..BlockingTask$LT$alloc..boxed..Box$LT$_sys..storage..snapshot..SnapshotStore..read_mmap..$u7b$$u7b$closure$u7d$$u7d$..$u7b$$u7b$closure$u7d$$u7d$$GT$$GT$$GT$$GT$$GT$17h0087fd2f65e17b79E', symObjAddr: 0x8BD0, symBinAddr: 0x255DC, symSize: 0x24 }
  - { offset: 0xF8543, size: 0x8, addend: 0x0, symName: '__ZN4core3ptr297drop_in_place$LT$alloc..boxed..Box$LT$$u5b$crossbeam_utils..cache_padded..CachePadded$LT$lock_api..rwlock..RwLock$LT$dashmap..lock..RawRwLock$C$hashbrown..raw..inner..RawTable$LT$$LP$$LP$u32$C$u32$RP$$C$dashmap..util..SharedValue$LT$_sys..cache..eviction..H2OScore$GT$$RP$$GT$$GT$$GT$$u5d$$GT$$GT$17h6f4a097afc87a06cE', symObjAddr: 0x8BF4, symBinAddr: 0x25600, symSize: 0x68 }
  - { offset: 0xF8572, size: 0x8, addend: 0x0, symName: '__ZN4core3ptr297drop_in_place$LT$tokio..loom..std..unsafe_cell..UnsafeCell$LT$tokio..runtime..task..core..Stage$LT$tokio..runtime..blocking..task..BlockingTask$LT$alloc..boxed..Box$LT$tokio..fs..read..read$LT$$RF$std..path..PathBuf$GT$..$u7b$$u7b$closure$u7d$$u7d$..$u7b$$u7b$closure$u7d$$u7d$$GT$$GT$$GT$$GT$$GT$17h33bbe03dba603a8aE', symObjAddr: 0x8C5C, symBinAddr: 0x25668, symSize: 0x24 }
  - { offset: 0xF85A1, size: 0x8, addend: 0x0, symName: '__ZN4core3ptr297drop_in_place$LT$tokio..loom..std..unsafe_cell..UnsafeCell$LT$tokio..runtime..task..core..Stage$LT$tokio..runtime..blocking..task..BlockingTask$LT$tokio..fs..open_options..OpenOptions..std_open$LT$$RF$std..path..PathBuf$GT$..$u7b$$u7b$closure$u7d$$u7d$..$u7b$$u7b$closure$u7d$$u7d$$GT$$GT$$GT$$GT$17h50e91519f518af16E', symObjAddr: 0x8C80, symBinAddr: 0x2568C, symSize: 0x24 }
  - { offset: 0xF85D0, size: 0x8, addend: 0x0, symName: '__ZN4core3ptr298drop_in_place$LT$alloc..boxed..Box$LT$tokio..runtime..task..core..Cell$LT$tokio..runtime..blocking..task..BlockingTask$LT$tokio..fs..read..read$LT$std..path..PathBuf$GT$..$u7b$$u7b$closure$u7d$$u7d$..$u7b$$u7b$closure$u7d$$u7d$$GT$$C$tokio..runtime..blocking..schedule..BlockingSchedule$GT$$GT$$GT$17hda5bc2103ce56eacE', symObjAddr: 0x8CA4, symBinAddr: 0x256B0, symSize: 0x60 }
  - { offset: 0xF85FF, size: 0x8, addend: 0x0, symName: '__ZN4core3ptr298drop_in_place$LT$alloc..vec..Vec$LT$crossbeam_utils..cache_padded..CachePadded$LT$lock_api..rwlock..RwLock$LT$dashmap..lock..RawRwLock$C$hashbrown..raw..inner..RawTable$LT$$LP$_sys..storage..snapshot..SnapshotId$C$dashmap..util..SharedValue$LT$alloc..vec..Vec$LT$f32$GT$$GT$$RP$$GT$$GT$$GT$$GT$$GT$17h5b39a3f42389b0a6E', symObjAddr: 0x8D04, symBinAddr: 0x25710, symSize: 0x5C }
  - { offset: 0xF862E, size: 0x8, addend: 0x0, symName: '__ZN4core3ptr298drop_in_place$LT$alloc..vec..Vec$LT$crossbeam_utils..cache_padded..CachePadded$LT$lock_api..rwlock..RwLock$LT$dashmap..lock..RawRwLock$C$hashbrown..raw..inner..RawTable$LT$$LP$u32$C$dashmap..util..SharedValue$LT$alloc..vec..Vec$LT$_sys..storage..snapshot..SnapshotId$GT$$GT$$RP$$GT$$GT$$GT$$GT$$GT$17hc33809a1f5cf7d5bE', symObjAddr: 0x8D60, symBinAddr: 0x2576C, symSize: 0x5C }
  - { offset: 0xF865D, size: 0x8, addend: 0x0, symName: '__ZN4core3ptr298drop_in_place$LT$tokio..runtime..task..core..Cell$LT$tokio..runtime..blocking..task..BlockingTask$LT$alloc..boxed..Box$LT$tokio..fs..read..read$LT$std..path..PathBuf$GT$..$u7b$$u7b$closure$u7d$$u7d$..$u7b$$u7b$closure$u7d$$u7d$$GT$$GT$$C$tokio..runtime..blocking..schedule..BlockingSchedule$GT$$GT$17h52be72c0efa0fb75E', symObjAddr: 0x8DBC, symBinAddr: 0x257C8, symSize: 0x64 }
  - { offset: 0xF868C, size: 0x8, addend: 0x0, symName: '__ZN4core3ptr298drop_in_place$LT$tokio..runtime..task..core..Core$LT$tokio..runtime..blocking..task..BlockingTask$LT$alloc..boxed..Box$LT$tokio..fs..read..read$LT$std..path..PathBuf$GT$..$u7b$$u7b$closure$u7d$$u7d$..$u7b$$u7b$closure$u7d$$u7d$$GT$$GT$$C$tokio..runtime..blocking..schedule..BlockingSchedule$GT$$GT$17he91290b5ed805f56E', symObjAddr: 0x8E20, symBinAddr: 0x2582C, symSize: 0x60 }
  - { offset: 0xF86BB, size: 0x8, addend: 0x0, symName: '__ZN4core3ptr300drop_in_place$LT$$u5b$crossbeam_utils..cache_padded..CachePadded$LT$lock_api..rwlock..RwLock$LT$dashmap..lock..RawRwLock$C$hashbrown..raw..inner..RawTable$LT$$LP$_sys..storage..snapshot..SnapshotId$C$dashmap..util..SharedValue$LT$_sys..storage..snapshot..SnapshotMetadata$GT$$RP$$GT$$GT$$GT$$u5d$$GT$17h464631390194f7e0E', symObjAddr: 0x8E80, symBinAddr: 0x2588C, symSize: 0xB4 }
  - { offset: 0xF86EA, size: 0x8, addend: 0x0, symName: '__ZN4core3ptr300drop_in_place$LT$alloc..boxed..Box$LT$tokio..runtime..task..core..Cell$LT$tokio..runtime..blocking..task..BlockingTask$LT$_sys..storage..snapshot..SnapshotStore..read_mmap..$u7b$$u7b$closure$u7d$$u7d$..$u7b$$u7b$closure$u7d$$u7d$$GT$$C$tokio..runtime..blocking..schedule..BlockingSchedule$GT$$GT$$GT$17h620d6dd43103d7e4E', symObjAddr: 0x8F34, symBinAddr: 0x25940, symSize: 0x60 }
  - { offset: 0xF8719, size: 0x8, addend: 0x0, symName: '__ZN4core3ptr300drop_in_place$LT$tokio..runtime..task..core..Cell$LT$tokio..runtime..blocking..task..BlockingTask$LT$alloc..boxed..Box$LT$_sys..storage..snapshot..SnapshotStore..read_mmap..$u7b$$u7b$closure$u7d$$u7d$..$u7b$$u7b$closure$u7d$$u7d$$GT$$GT$$C$tokio..runtime..blocking..schedule..BlockingSchedule$GT$$GT$17hf18de0fc373294bcE', symObjAddr: 0x8F94, symBinAddr: 0x259A0, symSize: 0x64 }
  - { offset: 0xF8748, size: 0x8, addend: 0x0, symName: '__ZN4core3ptr300drop_in_place$LT$tokio..runtime..task..core..Core$LT$tokio..runtime..blocking..task..BlockingTask$LT$alloc..boxed..Box$LT$_sys..storage..snapshot..SnapshotStore..read_mmap..$u7b$$u7b$closure$u7d$$u7d$..$u7b$$u7b$closure$u7d$$u7d$$GT$$GT$$C$tokio..runtime..blocking..schedule..BlockingSchedule$GT$$GT$17h67585d286294cc1eE', symObjAddr: 0x8FF8, symBinAddr: 0x25A04, symSize: 0x60 }
  - { offset: 0xF8777, size: 0x8, addend: 0x0, symName: '__ZN4core3ptr301drop_in_place$LT$tokio..loom..std..unsafe_cell..UnsafeCell$LT$tokio..runtime..task..core..Stage$LT$tokio..runtime..blocking..task..BlockingTask$LT$tokio..fs..rename..rename$LT$$RF$std..path..PathBuf$C$$RF$std..path..PathBuf$GT$..$u7b$$u7b$closure$u7d$$u7d$..$u7b$$u7b$closure$u7d$$u7d$$GT$$GT$$GT$$GT$17h16828f91885f472aE', symObjAddr: 0x9058, symBinAddr: 0x25A64, symSize: 0x24 }
  - { offset: 0xF87A6, size: 0x8, addend: 0x0, symName: '__ZN4core3ptr301drop_in_place$LT$tokio..runtime..task..core..Core$LT$core..pin..Pin$LT$alloc..boxed..Box$LT$_sys..prefetch..engine..PrefetchEngine..prefetch..$u7b$$u7b$closure$u7d$$u7d$$GT$$GT$$C$alloc..sync..Arc$LT$tokio..runtime..scheduler..current_thread..Handle$GT$$GT$..set_stage..$u7b$$u7b$closure$u7d$$u7d$$GT$17he47befabecd6bc76E', symObjAddr: 0x907C, symBinAddr: 0x25A88, symSize: 0x24 }
  - { offset: 0xF87D5, size: 0x8, addend: 0x0, symName: '__ZN4core3ptr302drop_in_place$LT$alloc..boxed..Box$LT$tokio..runtime..task..core..Cell$LT$tokio..runtime..blocking..task..BlockingTask$LT$tokio..fs..read..read$LT$$RF$std..path..PathBuf$GT$..$u7b$$u7b$closure$u7d$$u7d$..$u7b$$u7b$closure$u7d$$u7d$$GT$$C$tokio..runtime..blocking..schedule..BlockingSchedule$GT$$GT$$GT$17h002cb5ecc40a9c09E', symObjAddr: 0x90A0, symBinAddr: 0x25AAC, symSize: 0x60 }
  - { offset: 0xF8804, size: 0x8, addend: 0x0, symName: '__ZN4core3ptr302drop_in_place$LT$tokio..runtime..task..core..Cell$LT$tokio..runtime..blocking..task..BlockingTask$LT$alloc..boxed..Box$LT$tokio..fs..read..read$LT$$RF$std..path..PathBuf$GT$..$u7b$$u7b$closure$u7d$$u7d$..$u7b$$u7b$closure$u7d$$u7d$$GT$$GT$$C$tokio..runtime..blocking..schedule..BlockingSchedule$GT$$GT$17h0f0a9fc334aa7ec1E', symObjAddr: 0x9100, symBinAddr: 0x25B0C, symSize: 0x64 }
  - { offset: 0xF8833, size: 0x8, addend: 0x0, symName: '__ZN4core3ptr302drop_in_place$LT$tokio..runtime..task..core..Cell$LT$tokio..runtime..blocking..task..BlockingTask$LT$tokio..fs..open_options..OpenOptions..std_open$LT$$RF$std..path..PathBuf$GT$..$u7b$$u7b$closure$u7d$$u7d$..$u7b$$u7b$closure$u7d$$u7d$$GT$$C$tokio..runtime..blocking..schedule..BlockingSchedule$GT$$GT$17h8b630529d9d1af14E', symObjAddr: 0x9164, symBinAddr: 0x25B70, symSize: 0x64 }
  - { offset: 0xF8862, size: 0x8, addend: 0x0, symName: '__ZN4core3ptr302drop_in_place$LT$tokio..runtime..task..core..Core$LT$tokio..runtime..blocking..task..BlockingTask$LT$alloc..boxed..Box$LT$tokio..fs..read..read$LT$$RF$std..path..PathBuf$GT$..$u7b$$u7b$closure$u7d$$u7d$..$u7b$$u7b$closure$u7d$$u7d$$GT$$GT$$C$tokio..runtime..blocking..schedule..BlockingSchedule$GT$$GT$17h6bef75b1f3dee950E', symObjAddr: 0x91C8, symBinAddr: 0x25BD4, symSize: 0x60 }
  - { offset: 0xF8891, size: 0x8, addend: 0x0, symName: '__ZN4core3ptr302drop_in_place$LT$tokio..runtime..task..core..Core$LT$tokio..runtime..blocking..task..BlockingTask$LT$tokio..fs..open_options..OpenOptions..std_open$LT$$RF$std..path..PathBuf$GT$..$u7b$$u7b$closure$u7d$$u7d$..$u7b$$u7b$closure$u7d$$u7d$$GT$$C$tokio..runtime..blocking..schedule..BlockingSchedule$GT$$GT$17h4a363b466b7cb47fE', symObjAddr: 0x9228, symBinAddr: 0x25C34, symSize: 0x60 }
  - { offset: 0xF88C0, size: 0x8, addend: 0x0, symName: '__ZN4core3ptr303drop_in_place$LT$core..cell..UnsafeCell$LT$tokio..runtime..task..core..Stage$LT$tokio..runtime..blocking..task..BlockingTask$LT$alloc..boxed..Box$LT$tokio..fs..open_options..OpenOptions..std_open$LT$$RF$std..path..PathBuf$GT$..$u7b$$u7b$closure$u7d$$u7d$..$u7b$$u7b$closure$u7d$$u7d$$GT$$GT$$GT$$GT$$GT$17h423fc99dfdbff9b8E', symObjAddr: 0x9288, symBinAddr: 0x25C94, symSize: 0x24 }
  - { offset: 0xF88EF, size: 0x8, addend: 0x0, symName: '__ZN4core3ptr303drop_in_place$LT$tokio..runtime..scheduler..current_thread..CoreGuard..block_on$LT$core..pin..Pin$LT$$RF$mut$u20$core..pin..Pin$LT$alloc..boxed..Box$LT$_sys..storage..snapshot..SnapshotStore..read..$u7b$$u7b$closure$u7d$$u7d$$GT$$GT$$GT$$GT$..$u7b$$u7b$closure$u7d$$u7d$..$u7b$$u7b$closure$u7d$$u7d$$GT$17h5c2f55135916c79eE', symObjAddr: 0x92AC, symBinAddr: 0x25CB8, symSize: 0x24 }
  - { offset: 0xF891E, size: 0x8, addend: 0x0, symName: '__ZN4core3ptr304drop_in_place$LT$tokio..runtime..scheduler..current_thread..CoreGuard..block_on$LT$core..pin..Pin$LT$$RF$mut$u20$core..pin..Pin$LT$alloc..boxed..Box$LT$_sys..storage..snapshot..SnapshotStore..write..$u7b$$u7b$closure$u7d$$u7d$$GT$$GT$$GT$$GT$..$u7b$$u7b$closure$u7d$$u7d$..$u7b$$u7b$closure$u7d$$u7d$$GT$17h5d447423a193bffaE', symObjAddr: 0x92D0, symBinAddr: 0x25CDC, symSize: 0x24 }
  - { offset: 0xF894D, size: 0x8, addend: 0x0, symName: '__ZN4core3ptr304drop_in_place$LT$tokio..runtime..task..core..Core$LT$tokio..runtime..blocking..task..BlockingTask$LT$tokio..fs..write..write_spawn_blocking..$u7b$$u7b$closure$u7d$$u7d$..$u7b$$u7b$closure$u7d$$u7d$$GT$$C$tokio..runtime..blocking..schedule..BlockingSchedule$GT$..set_stage..$u7b$$u7b$closure$u7d$$u7d$$GT$17h76c6c2334eb9e5f3E', symObjAddr: 0x92F4, symBinAddr: 0x25D00, symSize: 0x24 }
  - { offset: 0xF897C, size: 0x8, addend: 0x0, symName: '__ZN4core3ptr305drop_in_place$LT$alloc..raw_vec..RawVec$LT$crossbeam_utils..cache_padded..CachePadded$LT$lock_api..rwlock..RwLock$LT$dashmap..lock..RawRwLock$C$hashbrown..raw..inner..RawTable$LT$$LP$_sys..storage..snapshot..SnapshotId$C$dashmap..util..SharedValue$LT$alloc..vec..Vec$LT$f32$GT$$GT$$RP$$GT$$GT$$GT$$GT$$GT$17h4a7af2d67eaba2c2E', symObjAddr: 0x9318, symBinAddr: 0x25D24, symSize: 0x24 }
  - { offset: 0xF89AB, size: 0x8, addend: 0x0, symName: '__ZN4core3ptr305drop_in_place$LT$alloc..raw_vec..RawVec$LT$crossbeam_utils..cache_padded..CachePadded$LT$lock_api..rwlock..RwLock$LT$dashmap..lock..RawRwLock$C$hashbrown..raw..inner..RawTable$LT$$LP$u32$C$dashmap..util..SharedValue$LT$alloc..vec..Vec$LT$_sys..storage..snapshot..SnapshotId$GT$$GT$$RP$$GT$$GT$$GT$$GT$$GT$17hbd10df05c97e2644E', symObjAddr: 0x933C, symBinAddr: 0x25D48, symSize: 0x24 }
  - { offset: 0xF89DA, size: 0x8, addend: 0x0, symName: '__ZN4core3ptr305drop_in_place$LT$tokio..loom..std..unsafe_cell..UnsafeCell$LT$tokio..runtime..task..core..Stage$LT$tokio..runtime..blocking..task..BlockingTask$LT$alloc..boxed..Box$LT$tokio..fs..read_dir..read_dir$LT$$RF$std..path..PathBuf$GT$..$u7b$$u7b$closure$u7d$$u7d$..$u7b$$u7b$closure$u7d$$u7d$$GT$$GT$$GT$$GT$$GT$17h8d6aaf82b13d38f5E', symObjAddr: 0x9360, symBinAddr: 0x25D6C, symSize: 0x24 }
  - { offset: 0xF8A09, size: 0x8, addend: 0x0, symName: '__ZN4core3ptr305drop_in_place$LT$tokio..runtime..scheduler..current_thread..CoreGuard..block_on$LT$core..pin..Pin$LT$$RF$mut$u20$core..pin..Pin$LT$alloc..boxed..Box$LT$_sys..storage..snapshot..SnapshotStore..delete..$u7b$$u7b$closure$u7d$$u7d$$GT$$GT$$GT$$GT$..$u7b$$u7b$closure$u7d$$u7d$..$u7b$$u7b$closure$u7d$$u7d$$GT$17hf38c916710485c76E', symObjAddr: 0x9384, symBinAddr: 0x25D90, symSize: 0x24 }
  - { offset: 0xF8A38, size: 0x8, addend: 0x0, symName: '__ZN4core3ptr305drop_in_place$LT$tokio..runtime..scheduler..current_thread..CoreGuard..block_on$LT$core..pin..Pin$LT$$RF$mut$u20$core..pin..Pin$LT$alloc..boxed..Box$LT$_sys..storage..snapshot..SnapshotStore..exists..$u7b$$u7b$closure$u7d$$u7d$$GT$$GT$$GT$$GT$..$u7b$$u7b$closure$u7d$$u7d$..$u7b$$u7b$closure$u7d$$u7d$$GT$17h1c1f79c9ece53d5eE', symObjAddr: 0x93A8, symBinAddr: 0x25DB4, symSize: 0x24 }
  - { offset: 0xF8A67, size: 0x8, addend: 0x0, symName: '__ZN4core3ptr306drop_in_place$LT$tokio..runtime..scheduler..current_thread..CoreGuard..block_on$LT$core..pin..Pin$LT$$RF$mut$u20$core..pin..Pin$LT$alloc..boxed..Box$LT$_sys..cache..manager..MemoryTierManager..demote..$u7b$$u7b$closure$u7d$$u7d$$GT$$GT$$GT$$GT$..$u7b$$u7b$closure$u7d$$u7d$..$u7b$$u7b$closure$u7d$$u7d$$GT$17hda520adba7e84407E', symObjAddr: 0x93CC, symBinAddr: 0x25DD8, symSize: 0x24 }
  - { offset: 0xF8A96, size: 0x8, addend: 0x0, symName: '__ZN4core3ptr306drop_in_place$LT$tokio..runtime..task..core..Cell$LT$tokio..runtime..blocking..task..BlockingTask$LT$tokio..fs..rename..rename$LT$$RF$std..path..PathBuf$C$$RF$std..path..PathBuf$GT$..$u7b$$u7b$closure$u7d$$u7d$..$u7b$$u7b$closure$u7d$$u7d$$GT$$C$tokio..runtime..blocking..schedule..BlockingSchedule$GT$$GT$17hbcf2e3a0124c0d4aE', symObjAddr: 0x93F0, symBinAddr: 0x25DFC, symSize: 0x64 }
  - { offset: 0xF8AC5, size: 0x8, addend: 0x0, symName: '__ZN4core3ptr306drop_in_place$LT$tokio..runtime..task..core..Core$LT$tokio..runtime..blocking..task..BlockingTask$LT$tokio..fs..rename..rename$LT$$RF$std..path..PathBuf$C$$RF$std..path..PathBuf$GT$..$u7b$$u7b$closure$u7d$$u7d$..$u7b$$u7b$closure$u7d$$u7d$$GT$$C$tokio..runtime..blocking..schedule..BlockingSchedule$GT$$GT$17h36bbee3e0092eac1E', symObjAddr: 0x9454, symBinAddr: 0x25E60, symSize: 0x60 }
  - { offset: 0xF8AF4, size: 0x8, addend: 0x0, symName: '__ZN4core3ptr307drop_in_place$LT$core..cell..UnsafeCell$LT$tokio..runtime..task..core..Stage$LT$tokio..runtime..blocking..task..BlockingTask$LT$alloc..boxed..Box$LT$tokio..fs..rename..rename$LT$$RF$std..path..PathBuf$C$$RF$std..path..PathBuf$GT$..$u7b$$u7b$closure$u7d$$u7d$..$u7b$$u7b$closure$u7d$$u7d$$GT$$GT$$GT$$GT$$GT$17hb6e71fc1a8d454a5E', symObjAddr: 0x94B4, symBinAddr: 0x25EC0, symSize: 0x24 }
  - { offset: 0xF8B23, size: 0x8, addend: 0x0, symName: '__ZN4core3ptr307drop_in_place$LT$tokio..runtime..scheduler..current_thread..CoreGuard..block_on$LT$core..pin..Pin$LT$$RF$mut$u20$core..pin..Pin$LT$alloc..boxed..Box$LT$_sys..cache..manager..MemoryTierManager..promote..$u7b$$u7b$closure$u7d$$u7d$$GT$$GT$$GT$$GT$..$u7b$$u7b$closure$u7d$$u7d$..$u7b$$u7b$closure$u7d$$u7d$$GT$17h7be54a434c657231E', symObjAddr: 0x94D8, symBinAddr: 0x25EE4, symSize: 0x24 }
  - { offset: 0xF8B52, size: 0x8, addend: 0x0, symName: '__ZN4core3ptr307drop_in_place$LT$tokio..runtime..scheduler..current_thread..CoreGuard..block_on$LT$core..pin..Pin$LT$$RF$mut$u20$core..pin..Pin$LT$alloc..boxed..Box$LT$_sys..storage..snapshot..SnapshotStore..list_all..$u7b$$u7b$closure$u7d$$u7d$$GT$$GT$$GT$$GT$..$u7b$$u7b$closure$u7d$$u7d$..$u7b$$u7b$closure$u7d$$u7d$$GT$17hdccc825f8013151bE', symObjAddr: 0x94FC, symBinAddr: 0x25F08, symSize: 0x24 }
  - { offset: 0xF8B81, size: 0x8, addend: 0x0, symName: '__ZN4core3ptr307drop_in_place$LT$tokio..runtime..task..core..Core$LT$core..pin..Pin$LT$alloc..boxed..Box$LT$_sys..prefetch..engine..PrefetchEngine..prefetch..$u7b$$u7b$closure$u7d$$u7d$$GT$$GT$$C$alloc..sync..Arc$LT$tokio..runtime..scheduler..multi_thread..handle..Handle$GT$$GT$..set_stage..$u7b$$u7b$closure$u7d$$u7d$$GT$17hd45b289a2ec98a33E', symObjAddr: 0x9520, symBinAddr: 0x25F2C, symSize: 0x24 }
  - { offset: 0xF8BB0, size: 0x8, addend: 0x0, symName: '__ZN4core3ptr307drop_in_place$LT$tokio..runtime..task..harness..poll_future..$u7b$$u7b$closure$u7d$$u7d$..Guard$LT$core..pin..Pin$LT$alloc..boxed..Box$LT$_sys..prefetch..engine..PrefetchEngine..prefetch..$u7b$$u7b$closure$u7d$$u7d$$GT$$GT$$C$alloc..sync..Arc$LT$tokio..runtime..scheduler..current_thread..Handle$GT$$GT$$GT$17h5177f83f57a666b8E', symObjAddr: 0x9544, symBinAddr: 0x25F50, symSize: 0x24 }
  - { offset: 0xF8BDF, size: 0x8, addend: 0x0, symName: '__ZN4core3ptr308drop_in_place$LT$core..iter..adapters..map..Map$LT$alloc..vec..into_iter..IntoIter$LT$f32$GT$$C$pyo3..conversions..std..vec..$LT$impl$u20$pyo3..conversion..IntoPy$LT$pyo3..instance..Py$LT$pyo3..types..any..PyAny$GT$$GT$$u20$for$u20$alloc..vec..Vec$LT$f32$GT$$GT$..into_py..$u7b$$u7b$closure$u7d$$u7d$$GT$$GT$17h12ad7cc3ad37f268E', symObjAddr: 0x9568, symBinAddr: 0x25F74, symSize: 0x24 }
  - { offset: 0xF8C0E, size: 0x8, addend: 0x0, symName: '__ZN4core3ptr308drop_in_place$LT$tokio..runtime..scheduler..current_thread..CoreGuard..block_on$LT$core..pin..Pin$LT$$RF$mut$u20$core..pin..Pin$LT$alloc..boxed..Box$LT$_sys..storage..snapshot..SnapshotStore..read_mmap..$u7b$$u7b$closure$u7d$$u7d$$GT$$GT$$GT$$GT$..$u7b$$u7b$closure$u7d$$u7d$..$u7b$$u7b$closure$u7d$$u7d$$GT$17h3841bb3dec876e8cE', symObjAddr: 0x958C, symBinAddr: 0x25F98, symSize: 0x24 }
  - { offset: 0xF8C3D, size: 0x8, addend: 0x0, symName: '__ZN4core3ptr310drop_in_place$LT$alloc..boxed..Box$LT$$u5b$crossbeam_utils..cache_padded..CachePadded$LT$lock_api..rwlock..RwLock$LT$dashmap..lock..RawRwLock$C$hashbrown..raw..inner..RawTable$LT$$LP$_sys..storage..snapshot..SnapshotId$C$dashmap..util..SharedValue$LT$alloc..vec..Vec$LT$f32$GT$$GT$$RP$$GT$$GT$$GT$$u5d$$GT$$GT$17hd28162babb5ef08bE', symObjAddr: 0x95B0, symBinAddr: 0x25FBC, symSize: 0x68 }
  - { offset: 0xF8C6C, size: 0x8, addend: 0x0, symName: '__ZN4core3ptr310drop_in_place$LT$alloc..boxed..Box$LT$$u5b$crossbeam_utils..cache_padded..CachePadded$LT$lock_api..rwlock..RwLock$LT$dashmap..lock..RawRwLock$C$hashbrown..raw..inner..RawTable$LT$$LP$u32$C$dashmap..util..SharedValue$LT$alloc..vec..Vec$LT$_sys..storage..snapshot..SnapshotId$GT$$GT$$RP$$GT$$GT$$GT$$u5d$$GT$$GT$17ha73a2926c01080e7E', symObjAddr: 0x9618, symBinAddr: 0x26024, symSize: 0x68 }
  - { offset: 0xF8C9B, size: 0x8, addend: 0x0, symName: '__ZN4core3ptr310drop_in_place$LT$alloc..boxed..Box$LT$tokio..runtime..task..core..Cell$LT$tokio..runtime..blocking..task..BlockingTask$LT$tokio..fs..read_dir..read_dir$LT$$RF$std..path..PathBuf$GT$..$u7b$$u7b$closure$u7d$$u7d$..$u7b$$u7b$closure$u7d$$u7d$$GT$$C$tokio..runtime..blocking..schedule..BlockingSchedule$GT$$GT$$GT$17h7c3e017818eca5a0E', symObjAddr: 0x9680, symBinAddr: 0x2608C, symSize: 0x60 }
  - { offset: 0xF8CCA, size: 0x8, addend: 0x0, symName: '__ZN4core3ptr310drop_in_place$LT$tokio..runtime..task..core..Cell$LT$tokio..runtime..blocking..task..BlockingTask$LT$alloc..boxed..Box$LT$tokio..fs..read_dir..read_dir$LT$$RF$std..path..PathBuf$GT$..$u7b$$u7b$closure$u7d$$u7d$..$u7b$$u7b$closure$u7d$$u7d$$GT$$GT$$C$tokio..runtime..blocking..schedule..BlockingSchedule$GT$$GT$17h4457aae449648d54E', symObjAddr: 0x96E0, symBinAddr: 0x260EC, symSize: 0x64 }
  - { offset: 0xF8CF9, size: 0x8, addend: 0x0, symName: '__ZN4core3ptr310drop_in_place$LT$tokio..runtime..task..core..Core$LT$tokio..runtime..blocking..task..BlockingTask$LT$alloc..boxed..Box$LT$tokio..fs..read_dir..read_dir$LT$$RF$std..path..PathBuf$GT$..$u7b$$u7b$closure$u7d$$u7d$..$u7b$$u7b$closure$u7d$$u7d$$GT$$GT$$C$tokio..runtime..blocking..schedule..BlockingSchedule$GT$$GT$17h677309d148166b46E', symObjAddr: 0x9744, symBinAddr: 0x26150, symSize: 0x60 }
  - { offset: 0xF8D28, size: 0x8, addend: 0x0, symName: '__ZN4core3ptr310drop_in_place$LT$tokio..runtime..task..harness..poll_future..$u7b$$u7b$closure$u7d$$u7d$..Guard$LT$tokio..runtime..blocking..task..BlockingTask$LT$tokio..fs..write..write_spawn_blocking..$u7b$$u7b$closure$u7d$$u7d$..$u7b$$u7b$closure$u7d$$u7d$$GT$$C$tokio..runtime..blocking..schedule..BlockingSchedule$GT$$GT$17hcd3541477c6eda3fE', symObjAddr: 0x97A4, symBinAddr: 0x261B0, symSize: 0x24 }
  - { offset: 0xF8D57, size: 0x8, addend: 0x0, symName: '__ZN4core3ptr311drop_in_place$LT$tokio..loom..std..unsafe_cell..UnsafeCell$LT$tokio..runtime..task..core..Stage$LT$tokio..runtime..blocking..task..BlockingTask$LT$alloc..boxed..Box$LT$tokio..fs..remove_file..remove_file$LT$$RF$std..path..PathBuf$GT$..$u7b$$u7b$closure$u7d$$u7d$..$u7b$$u7b$closure$u7d$$u7d$$GT$$GT$$GT$$GT$$GT$17hbbd0984d2ec27265E', symObjAddr: 0x97C8, symBinAddr: 0x261D4, symSize: 0x24 }
  - { offset: 0xF8D86, size: 0x8, addend: 0x0, symName: '__ZN4core3ptr311drop_in_place$LT$tokio..runtime..scheduler..current_thread..CoreGuard..block_on$LT$core..pin..Pin$LT$$RF$mut$u20$core..pin..Pin$LT$alloc..boxed..Box$LT$_sys..cache..manager..MemoryTierManager..maybe_evict..$u7b$$u7b$closure$u7d$$u7d$$GT$$GT$$GT$$GT$..$u7b$$u7b$closure$u7d$$u7d$..$u7b$$u7b$closure$u7d$$u7d$$GT$17hf5fb539f32a28bbdE', symObjAddr: 0x97EC, symBinAddr: 0x261F8, symSize: 0x24 }
  - { offset: 0xF8DB5, size: 0x8, addend: 0x0, symName: '__ZN4core3ptr312drop_in_place$LT$tokio..runtime..scheduler..current_thread..CoreGuard..block_on$LT$core..pin..Pin$LT$$RF$mut$u20$core..pin..Pin$LT$alloc..boxed..Box$LT$_sys..storage..snapshot..SnapshotStore..list_by_layer..$u7b$$u7b$closure$u7d$$u7d$$GT$$GT$$GT$$GT$..$u7b$$u7b$closure$u7d$$u7d$..$u7b$$u7b$closure$u7d$$u7d$$GT$17h9b5ffdb43d07a40fE', symObjAddr: 0x9810, symBinAddr: 0x2621C, symSize: 0x24 }
  - { offset: 0xF8DE4, size: 0x8, addend: 0x0, symName: '__ZN4core3ptr313drop_in_place$LT$alloc..vec..Vec$LT$crossbeam_utils..cache_padded..CachePadded$LT$lock_api..rwlock..RwLock$LT$dashmap..lock..RawRwLock$C$hashbrown..raw..inner..RawTable$LT$$LP$_sys..storage..snapshot..SnapshotId$C$dashmap..util..SharedValue$LT$_sys..storage..snapshot..SnapshotMetadata$GT$$RP$$GT$$GT$$GT$$GT$$GT$17h829e6dd3d694d802E', symObjAddr: 0x9834, symBinAddr: 0x26240, symSize: 0x5C }
  - { offset: 0xF8E13, size: 0x8, addend: 0x0, symName: '__ZN4core3ptr313drop_in_place$LT$tokio..runtime..task..core..Core$LT$tokio..runtime..blocking..task..BlockingTask$LT$tokio..fs..read..read$LT$std..path..PathBuf$GT$..$u7b$$u7b$closure$u7d$$u7d$..$u7b$$u7b$closure$u7d$$u7d$$GT$$C$tokio..runtime..blocking..schedule..BlockingSchedule$GT$..set_stage..$u7b$$u7b$closure$u7d$$u7d$$GT$17hc89e299b8178f475E', symObjAddr: 0x9890, symBinAddr: 0x2629C, symSize: 0x24 }
  - { offset: 0xF8E42, size: 0x8, addend: 0x0, symName: '__ZN4core3ptr313drop_in_place$LT$tokio..runtime..task..harness..poll_future..$u7b$$u7b$closure$u7d$$u7d$..Guard$LT$core..pin..Pin$LT$alloc..boxed..Box$LT$_sys..prefetch..engine..PrefetchEngine..prefetch..$u7b$$u7b$closure$u7d$$u7d$$GT$$GT$$C$alloc..sync..Arc$LT$tokio..runtime..scheduler..multi_thread..handle..Handle$GT$$GT$$GT$17hfb14f6197c381caeE', symObjAddr: 0x98B4, symBinAddr: 0x262C0, symSize: 0x24 }
  - { offset: 0xF8E71, size: 0x8, addend: 0x0, symName: '__ZN4core3ptr314drop_in_place$LT$alloc..boxed..Box$LT$tokio..runtime..task..core..Cell$LT$tokio..runtime..blocking..task..BlockingTask$LT$alloc..boxed..Box$LT$tokio..fs..write..write_spawn_blocking..$u7b$$u7b$closure$u7d$$u7d$..$u7b$$u7b$closure$u7d$$u7d$$GT$$GT$$C$tokio..runtime..blocking..schedule..BlockingSchedule$GT$$GT$$GT$17h5abb9aec42c35528E', symObjAddr: 0x98D8, symBinAddr: 0x262E4, symSize: 0x60 }
  - { offset: 0xF8EA0, size: 0x8, addend: 0x0, symName: '__ZN4core3ptr315drop_in_place$LT$tokio..runtime..task..core..Core$LT$tokio..runtime..blocking..task..BlockingTask$LT$_sys..storage..snapshot..SnapshotStore..read_mmap..$u7b$$u7b$closure$u7d$$u7d$..$u7b$$u7b$closure$u7d$$u7d$$GT$$C$tokio..runtime..blocking..schedule..BlockingSchedule$GT$..set_stage..$u7b$$u7b$closure$u7d$$u7d$$GT$17h9c7b842bb1dabf90E', symObjAddr: 0x9938, symBinAddr: 0x26344, symSize: 0x24 }
  - { offset: 0xF8ECF, size: 0x8, addend: 0x0, symName: '__ZN4core3ptr316drop_in_place$LT$alloc..boxed..Box$LT$tokio..runtime..task..core..Cell$LT$tokio..runtime..blocking..task..BlockingTask$LT$tokio..fs..remove_file..remove_file$LT$$RF$std..path..PathBuf$GT$..$u7b$$u7b$closure$u7d$$u7d$..$u7b$$u7b$closure$u7d$$u7d$$GT$$C$tokio..runtime..blocking..schedule..BlockingSchedule$GT$$GT$$GT$17hf29e32a0a3077b6fE', symObjAddr: 0x995C, symBinAddr: 0x26368, symSize: 0x60 }
  - { offset: 0xF8EFE, size: 0x8, addend: 0x0, symName: '__ZN4core3ptr316drop_in_place$LT$tokio..runtime..task..core..Cell$LT$tokio..runtime..blocking..task..BlockingTask$LT$alloc..boxed..Box$LT$tokio..fs..remove_file..remove_file$LT$$RF$std..path..PathBuf$GT$..$u7b$$u7b$closure$u7d$$u7d$..$u7b$$u7b$closure$u7d$$u7d$$GT$$GT$$C$tokio..runtime..blocking..schedule..BlockingSchedule$GT$$GT$17hc309df368735bbe0E', symObjAddr: 0x99BC, symBinAddr: 0x263C8, symSize: 0x64 }
  - { offset: 0xF8F2D, size: 0x8, addend: 0x0, symName: '__ZN4core3ptr316drop_in_place$LT$tokio..runtime..task..core..Core$LT$tokio..runtime..blocking..task..BlockingTask$LT$alloc..boxed..Box$LT$tokio..fs..remove_file..remove_file$LT$$RF$std..path..PathBuf$GT$..$u7b$$u7b$closure$u7d$$u7d$..$u7b$$u7b$closure$u7d$$u7d$$GT$$GT$$C$tokio..runtime..blocking..schedule..BlockingSchedule$GT$$GT$17h68a76e2e9ec93f2fE', symObjAddr: 0x9A20, symBinAddr: 0x2642C, symSize: 0x60 }
  - { offset: 0xF8F5C, size: 0x8, addend: 0x0, symName: '__ZN4core3ptr317drop_in_place$LT$alloc..vec..Vec$LT$f32$GT$..extend_trusted$LT$core..iter..adapters..map..Map$LT$core..slice..iter..ChunksExact$LT$u8$GT$$C$_sys..storage..snapshot..SnapshotStore..read_mmap..$u7b$$u7b$closure$u7d$$u7d$..$u7b$$u7b$closure$u7d$$u7d$..$u7b$$u7b$closure$u7d$$u7d$$GT$$GT$..$u7b$$u7b$closure$u7d$$u7d$$GT$17h12ca80b4b35b9a25E', symObjAddr: 0x9A80, symBinAddr: 0x2648C, symSize: 0x24 }
  - { offset: 0xF8F8B, size: 0x8, addend: 0x0, symName: '__ZN4core3ptr317drop_in_place$LT$tokio..runtime..task..core..Core$LT$tokio..runtime..blocking..task..BlockingTask$LT$tokio..fs..read..read$LT$$RF$std..path..PathBuf$GT$..$u7b$$u7b$closure$u7d$$u7d$..$u7b$$u7b$closure$u7d$$u7d$$GT$$C$tokio..runtime..blocking..schedule..BlockingSchedule$GT$..set_stage..$u7b$$u7b$closure$u7d$$u7d$$GT$17h0309f7e2ee72a50bE', symObjAddr: 0x9AA4, symBinAddr: 0x264B0, symSize: 0x24 }
  - { offset: 0xF8FBA, size: 0x8, addend: 0x0, symName: '__ZN4core3ptr319drop_in_place$LT$tokio..runtime..task..harness..poll_future..$u7b$$u7b$closure$u7d$$u7d$..Guard$LT$tokio..runtime..blocking..task..BlockingTask$LT$tokio..fs..read..read$LT$std..path..PathBuf$GT$..$u7b$$u7b$closure$u7d$$u7d$..$u7b$$u7b$closure$u7d$$u7d$$GT$$C$tokio..runtime..blocking..schedule..BlockingSchedule$GT$$GT$17h0d8bdda78cd321ebE', symObjAddr: 0x9AC8, symBinAddr: 0x264D4, symSize: 0x24 }
  - { offset: 0xF8FE9, size: 0x8, addend: 0x0, symName: '__ZN4core3ptr320drop_in_place$LT$alloc..raw_vec..RawVec$LT$crossbeam_utils..cache_padded..CachePadded$LT$lock_api..rwlock..RwLock$LT$dashmap..lock..RawRwLock$C$hashbrown..raw..inner..RawTable$LT$$LP$_sys..storage..snapshot..SnapshotId$C$dashmap..util..SharedValue$LT$_sys..storage..snapshot..SnapshotMetadata$GT$$RP$$GT$$GT$$GT$$GT$$GT$17h9bd2b929b7824c69E', symObjAddr: 0x9AEC, symBinAddr: 0x264F8, symSize: 0x24 }
  - { offset: 0xF9018, size: 0x8, addend: 0x0, symName: '__ZN4core3ptr321drop_in_place$LT$tokio..runtime..task..harness..poll_future..$u7b$$u7b$closure$u7d$$u7d$..Guard$LT$tokio..runtime..blocking..task..BlockingTask$LT$_sys..storage..snapshot..SnapshotStore..read_mmap..$u7b$$u7b$closure$u7d$$u7d$..$u7b$$u7b$closure$u7d$$u7d$$GT$$C$tokio..runtime..blocking..schedule..BlockingSchedule$GT$$GT$17h3778d7891d29d147E', symObjAddr: 0x9B10, symBinAddr: 0x2651C, symSize: 0x24 }
  - { offset: 0xF9047, size: 0x8, addend: 0x0, symName: '__ZN4core3ptr322drop_in_place$LT$tokio..loom..std..unsafe_cell..UnsafeCell$LT$tokio..runtime..task..core..Stage$LT$tokio..runtime..blocking..task..BlockingTask$LT$alloc..boxed..Box$LT$tokio..fs..open_options..OpenOptions..std_open$LT$$RF$std..path..PathBuf$GT$..$u7b$$u7b$closure$u7d$$u7d$..$u7b$$u7b$closure$u7d$$u7d$$GT$$GT$$GT$$GT$$GT$17h0533e58dde6e6754E', symObjAddr: 0x9B34, symBinAddr: 0x26540, symSize: 0x24 }
  - { offset: 0xF9076, size: 0x8, addend: 0x0, symName: '__ZN4core3ptr323drop_in_place$LT$alloc..boxed..Box$LT$tokio..runtime..task..core..Cell$LT$tokio..runtime..blocking..task..BlockingTask$LT$alloc..boxed..Box$LT$tokio..fs..read..read$LT$std..path..PathBuf$GT$..$u7b$$u7b$closure$u7d$$u7d$..$u7b$$u7b$closure$u7d$$u7d$$GT$$GT$$C$tokio..runtime..blocking..schedule..BlockingSchedule$GT$$GT$$GT$17h4b97599a62402cccE', symObjAddr: 0x9B58, symBinAddr: 0x26564, symSize: 0x60 }
  - { offset: 0xF90A5, size: 0x8, addend: 0x0, symName: '__ZN4core3ptr323drop_in_place$LT$tokio..runtime..task..harness..poll_future..$u7b$$u7b$closure$u7d$$u7d$..Guard$LT$tokio..runtime..blocking..task..BlockingTask$LT$tokio..fs..read..read$LT$$RF$std..path..PathBuf$GT$..$u7b$$u7b$closure$u7d$$u7d$..$u7b$$u7b$closure$u7d$$u7d$$GT$$C$tokio..runtime..blocking..schedule..BlockingSchedule$GT$$GT$17h972f01d2309aad63E', symObjAddr: 0x9BB8, symBinAddr: 0x265C4, symSize: 0x24 }
  - { offset: 0xF90D4, size: 0x8, addend: 0x0, symName: '__ZN4core3ptr325drop_in_place$LT$alloc..boxed..Box$LT$$u5b$crossbeam_utils..cache_padded..CachePadded$LT$lock_api..rwlock..RwLock$LT$dashmap..lock..RawRwLock$C$hashbrown..raw..inner..RawTable$LT$$LP$_sys..storage..snapshot..SnapshotId$C$dashmap..util..SharedValue$LT$_sys..storage..snapshot..SnapshotMetadata$GT$$RP$$GT$$GT$$GT$$u5d$$GT$$GT$17h10c7b6ddbd8596fbE', symObjAddr: 0x9BDC, symBinAddr: 0x265E8, symSize: 0x68 }
  - { offset: 0xF9103, size: 0x8, addend: 0x0, symName: '__ZN4core3ptr325drop_in_place$LT$alloc..boxed..Box$LT$tokio..runtime..task..core..Cell$LT$tokio..runtime..blocking..task..BlockingTask$LT$alloc..boxed..Box$LT$_sys..storage..snapshot..SnapshotStore..read_mmap..$u7b$$u7b$closure$u7d$$u7d$..$u7b$$u7b$closure$u7d$$u7d$$GT$$GT$$C$tokio..runtime..blocking..schedule..BlockingSchedule$GT$$GT$$GT$17h582c84c10f8695b6E', symObjAddr: 0x9C44, symBinAddr: 0x26650, symSize: 0x60 }
  - { offset: 0xF9132, size: 0x8, addend: 0x0, symName: '__ZN4core3ptr325drop_in_place$LT$tokio..runtime..task..core..Core$LT$tokio..runtime..blocking..task..BlockingTask$LT$tokio..fs..read_dir..read_dir$LT$$RF$std..path..PathBuf$GT$..$u7b$$u7b$closure$u7d$$u7d$..$u7b$$u7b$closure$u7d$$u7d$$GT$$C$tokio..runtime..blocking..schedule..BlockingSchedule$GT$..set_stage..$u7b$$u7b$closure$u7d$$u7d$$GT$17hba12857df8fcb06aE', symObjAddr: 0x9CA4, symBinAddr: 0x266B0, symSize: 0x24 }
  - { offset: 0xF9161, size: 0x8, addend: 0x0, symName: '__ZN4core3ptr326drop_in_place$LT$tokio..loom..std..unsafe_cell..UnsafeCell$LT$tokio..runtime..task..core..Stage$LT$tokio..runtime..blocking..task..BlockingTask$LT$alloc..boxed..Box$LT$tokio..fs..rename..rename$LT$$RF$std..path..PathBuf$C$$RF$std..path..PathBuf$GT$..$u7b$$u7b$closure$u7d$$u7d$..$u7b$$u7b$closure$u7d$$u7d$$GT$$GT$$GT$$GT$$GT$17hd37d32d07d9b8a52E', symObjAddr: 0x9CC8, symBinAddr: 0x266D4, symSize: 0x24 }
  - { offset: 0xF9190, size: 0x8, addend: 0x0, symName: '__ZN4core3ptr327drop_in_place$LT$alloc..boxed..Box$LT$tokio..runtime..task..core..Cell$LT$tokio..runtime..blocking..task..BlockingTask$LT$alloc..boxed..Box$LT$tokio..fs..read..read$LT$$RF$std..path..PathBuf$GT$..$u7b$$u7b$closure$u7d$$u7d$..$u7b$$u7b$closure$u7d$$u7d$$GT$$GT$$C$tokio..runtime..blocking..schedule..BlockingSchedule$GT$$GT$$GT$17h8e90b6d9746fb4c8E', symObjAddr: 0x9CEC, symBinAddr: 0x266F8, symSize: 0x60 }
  - { offset: 0xF91BF, size: 0x8, addend: 0x0, symName: '__ZN4core3ptr327drop_in_place$LT$alloc..boxed..Box$LT$tokio..runtime..task..core..Cell$LT$tokio..runtime..blocking..task..BlockingTask$LT$tokio..fs..open_options..OpenOptions..std_open$LT$$RF$std..path..PathBuf$GT$..$u7b$$u7b$closure$u7d$$u7d$..$u7b$$u7b$closure$u7d$$u7d$$GT$$C$tokio..runtime..blocking..schedule..BlockingSchedule$GT$$GT$$GT$17h1464109e4dc835c2E', symObjAddr: 0x9D4C, symBinAddr: 0x26758, symSize: 0x60 }
  - { offset: 0xF91EE, size: 0x8, addend: 0x0, symName: '__ZN4core3ptr327drop_in_place$LT$tokio..runtime..task..core..Cell$LT$tokio..runtime..blocking..task..BlockingTask$LT$alloc..boxed..Box$LT$tokio..fs..open_options..OpenOptions..std_open$LT$$RF$std..path..PathBuf$GT$..$u7b$$u7b$closure$u7d$$u7d$..$u7b$$u7b$closure$u7d$$u7d$$GT$$GT$$C$tokio..runtime..blocking..schedule..BlockingSchedule$GT$$GT$17h6ff7e8f69a25e67cE', symObjAddr: 0x9DAC, symBinAddr: 0x267B8, symSize: 0x64 }
  - { offset: 0xF921D, size: 0x8, addend: 0x0, symName: '__ZN4core3ptr327drop_in_place$LT$tokio..runtime..task..core..Core$LT$tokio..runtime..blocking..task..BlockingTask$LT$alloc..boxed..Box$LT$tokio..fs..open_options..OpenOptions..std_open$LT$$RF$std..path..PathBuf$GT$..$u7b$$u7b$closure$u7d$$u7d$..$u7b$$u7b$closure$u7d$$u7d$$GT$$GT$$C$tokio..runtime..blocking..schedule..BlockingSchedule$GT$$GT$17h08a5fc581520961fE', symObjAddr: 0x9E10, symBinAddr: 0x2681C, symSize: 0x60 }
  - { offset: 0xF924C, size: 0x8, addend: 0x0, symName: '__ZN4core3ptr329drop_in_place$LT$alloc..vec..Vec$LT$f32$GT$..extend_trusted$LT$core..iter..adapters..map..Map$LT$core..slice..iter..ChunksExact$LT$u8$GT$$C$$LT$_sys..storage..snapshot..FlatfileSerializer$u20$as$u20$_sys..storage..snapshot..SnapshotSerializer$GT$..deserialize..$u7b$$u7b$closure$u7d$$u7d$$GT$$GT$..$u7b$$u7b$closure$u7d$$u7d$$GT$17h6eb1bb3fc510a4acE', symObjAddr: 0x9E70, symBinAddr: 0x2687C, symSize: 0x24 }
  - { offset: 0xF927B, size: 0x8, addend: 0x0, symName: '__ZN4core3ptr329drop_in_place$LT$tokio..runtime..task..core..Core$LT$tokio..runtime..blocking..task..BlockingTask$LT$alloc..boxed..Box$LT$tokio..fs..write..write_spawn_blocking..$u7b$$u7b$closure$u7d$$u7d$..$u7b$$u7b$closure$u7d$$u7d$$GT$$GT$$C$tokio..runtime..blocking..schedule..BlockingSchedule$GT$..set_stage..$u7b$$u7b$closure$u7d$$u7d$$GT$17h9417585256c3f38fE', symObjAddr: 0x9E94, symBinAddr: 0x268A0, symSize: 0x24 }
  - { offset: 0xF92AA, size: 0x8, addend: 0x0, symName: '__ZN4core3ptr331drop_in_place$LT$alloc..boxed..Box$LT$tokio..runtime..task..core..Cell$LT$tokio..runtime..blocking..task..BlockingTask$LT$tokio..fs..rename..rename$LT$$RF$std..path..PathBuf$C$$RF$std..path..PathBuf$GT$..$u7b$$u7b$closure$u7d$$u7d$..$u7b$$u7b$closure$u7d$$u7d$$GT$$C$tokio..runtime..blocking..schedule..BlockingSchedule$GT$$GT$$GT$17hd7d38adaa8ce89b8E', symObjAddr: 0x9EB8, symBinAddr: 0x268C4, symSize: 0x60 }
  - { offset: 0xF92D9, size: 0x8, addend: 0x0, symName: '__ZN4core3ptr331drop_in_place$LT$tokio..runtime..task..core..Cell$LT$tokio..runtime..blocking..task..BlockingTask$LT$alloc..boxed..Box$LT$tokio..fs..rename..rename$LT$$RF$std..path..PathBuf$C$$RF$std..path..PathBuf$GT$..$u7b$$u7b$closure$u7d$$u7d$..$u7b$$u7b$closure$u7d$$u7d$$GT$$GT$$C$tokio..runtime..blocking..schedule..BlockingSchedule$GT$$GT$17hfe37b1d23b6cb45fE', symObjAddr: 0x9F18, symBinAddr: 0x26924, symSize: 0x64 }
  - { offset: 0xF9308, size: 0x8, addend: 0x0, symName: '__ZN4core3ptr331drop_in_place$LT$tokio..runtime..task..core..Core$LT$tokio..runtime..blocking..task..BlockingTask$LT$alloc..boxed..Box$LT$tokio..fs..rename..rename$LT$$RF$std..path..PathBuf$C$$RF$std..path..PathBuf$GT$..$u7b$$u7b$closure$u7d$$u7d$..$u7b$$u7b$closure$u7d$$u7d$$GT$$GT$$C$tokio..runtime..blocking..schedule..BlockingSchedule$GT$$GT$17h0a89e708a2f53878E', symObjAddr: 0x9F7C, symBinAddr: 0x26988, symSize: 0x60 }
  - { offset: 0xF9337, size: 0x8, addend: 0x0, symName: '__ZN4core3ptr331drop_in_place$LT$tokio..runtime..task..core..Core$LT$tokio..runtime..blocking..task..BlockingTask$LT$tokio..fs..remove_file..remove_file$LT$$RF$std..path..PathBuf$GT$..$u7b$$u7b$closure$u7d$$u7d$..$u7b$$u7b$closure$u7d$$u7d$$GT$$C$tokio..runtime..blocking..schedule..BlockingSchedule$GT$..set_stage..$u7b$$u7b$closure$u7d$$u7d$$GT$17hfd0a3b802bf0c926E', symObjAddr: 0x9FDC, symBinAddr: 0x269E8, symSize: 0x24 }
  - { offset: 0xF9366, size: 0x8, addend: 0x0, symName: '__ZN4core3ptr331drop_in_place$LT$tokio..runtime..task..harness..poll_future..$u7b$$u7b$closure$u7d$$u7d$..Guard$LT$tokio..runtime..blocking..task..BlockingTask$LT$tokio..fs..read_dir..read_dir$LT$$RF$std..path..PathBuf$GT$..$u7b$$u7b$closure$u7d$$u7d$..$u7b$$u7b$closure$u7d$$u7d$$GT$$C$tokio..runtime..blocking..schedule..BlockingSchedule$GT$$GT$17h6c195e0ef0d4164aE', symObjAddr: 0xA000, symBinAddr: 0x26A0C, symSize: 0x24 }
  - { offset: 0xF9395, size: 0x8, addend: 0x0, symName: '__ZN4core3ptr335drop_in_place$LT$alloc..boxed..Box$LT$tokio..runtime..task..core..Cell$LT$tokio..runtime..blocking..task..BlockingTask$LT$alloc..boxed..Box$LT$tokio..fs..read_dir..read_dir$LT$$RF$std..path..PathBuf$GT$..$u7b$$u7b$closure$u7d$$u7d$..$u7b$$u7b$closure$u7d$$u7d$$GT$$GT$$C$tokio..runtime..blocking..schedule..BlockingSchedule$GT$$GT$$GT$17hb5df30113762a6f6E', symObjAddr: 0xA024, symBinAddr: 0x26A30, symSize: 0x60 }
  - { offset: 0xF93C4, size: 0x8, addend: 0x0, symName: '__ZN4core3ptr335drop_in_place$LT$tokio..runtime..task..harness..poll_future..$u7b$$u7b$closure$u7d$$u7d$..Guard$LT$tokio..runtime..blocking..task..BlockingTask$LT$alloc..boxed..Box$LT$tokio..fs..write..write_spawn_blocking..$u7b$$u7b$closure$u7d$$u7d$..$u7b$$u7b$closure$u7d$$u7d$$GT$$GT$$C$tokio..runtime..blocking..schedule..BlockingSchedule$GT$$GT$17he86db8133f17039bE', symObjAddr: 0xA084, symBinAddr: 0x26A90, symSize: 0x24 }
  - { offset: 0xF93F3, size: 0x8, addend: 0x0, symName: '__ZN4core3ptr336drop_in_place$LT$core..iter..adapters..map..Map$LT$alloc..vec..into_iter..IntoIter$LT$$LP$u32$C$u32$RP$$GT$$C$pyo3..conversions..std..vec..$LT$impl$u20$pyo3..conversion..IntoPy$LT$pyo3..instance..Py$LT$pyo3..types..any..PyAny$GT$$GT$$u20$for$u20$alloc..vec..Vec$LT$$LP$u32$C$u32$RP$$GT$$GT$..into_py..$u7b$$u7b$closure$u7d$$u7d$$GT$$GT$17h8dfe899ef274f514E', symObjAddr: 0xA0A8, symBinAddr: 0x26AB4, symSize: 0x24 }
  - { offset: 0xF9422, size: 0x8, addend: 0x0, symName: '__ZN4core3ptr337drop_in_place$LT$tokio..runtime..task..harness..poll_future..$u7b$$u7b$closure$u7d$$u7d$..Guard$LT$tokio..runtime..blocking..task..BlockingTask$LT$tokio..fs..remove_file..remove_file$LT$$RF$std..path..PathBuf$GT$..$u7b$$u7b$closure$u7d$$u7d$..$u7b$$u7b$closure$u7d$$u7d$$GT$$C$tokio..runtime..blocking..schedule..BlockingSchedule$GT$$GT$17h8b67df539404bceeE', symObjAddr: 0xA0CC, symBinAddr: 0x26AD8, symSize: 0x24 }
  - { offset: 0xF9451, size: 0x8, addend: 0x0, symName: '__ZN4core3ptr338drop_in_place$LT$tokio..runtime..task..core..Core$LT$tokio..runtime..blocking..task..BlockingTask$LT$alloc..boxed..Box$LT$tokio..fs..read..read$LT$std..path..PathBuf$GT$..$u7b$$u7b$closure$u7d$$u7d$..$u7b$$u7b$closure$u7d$$u7d$$GT$$GT$$C$tokio..runtime..blocking..schedule..BlockingSchedule$GT$..set_stage..$u7b$$u7b$closure$u7d$$u7d$$GT$17hc6bdeeb5ace24aecE', symObjAddr: 0xA0F0, symBinAddr: 0x26AFC, symSize: 0x24 }
  - { offset: 0xF9480, size: 0x8, addend: 0x0, symName: '__ZN4core3ptr340drop_in_place$LT$tokio..runtime..task..core..Core$LT$tokio..runtime..blocking..task..BlockingTask$LT$alloc..boxed..Box$LT$_sys..storage..snapshot..SnapshotStore..read_mmap..$u7b$$u7b$closure$u7d$$u7d$..$u7b$$u7b$closure$u7d$$u7d$$GT$$GT$$C$tokio..runtime..blocking..schedule..BlockingSchedule$GT$..set_stage..$u7b$$u7b$closure$u7d$$u7d$$GT$17h5967d1b4a85d6db6E', symObjAddr: 0xA114, symBinAddr: 0x26B20, symSize: 0x24 }
  - { offset: 0xF94AF, size: 0x8, addend: 0x0, symName: '__ZN4core3ptr341drop_in_place$LT$alloc..boxed..Box$LT$tokio..runtime..task..core..Cell$LT$tokio..runtime..blocking..task..BlockingTask$LT$alloc..boxed..Box$LT$tokio..fs..remove_file..remove_file$LT$$RF$std..path..PathBuf$GT$..$u7b$$u7b$closure$u7d$$u7d$..$u7b$$u7b$closure$u7d$$u7d$$GT$$GT$$C$tokio..runtime..blocking..schedule..BlockingSchedule$GT$$GT$$GT$17h78014a12531ff8b9E', symObjAddr: 0xA138, symBinAddr: 0x26B44, symSize: 0x60 }
  - { offset: 0xF94DE, size: 0x8, addend: 0x0, symName: '__ZN4core3ptr342drop_in_place$LT$tokio..runtime..task..core..Core$LT$tokio..runtime..blocking..task..BlockingTask$LT$alloc..boxed..Box$LT$tokio..fs..read..read$LT$$RF$std..path..PathBuf$GT$..$u7b$$u7b$closure$u7d$$u7d$..$u7b$$u7b$closure$u7d$$u7d$$GT$$GT$$C$tokio..runtime..blocking..schedule..BlockingSchedule$GT$..set_stage..$u7b$$u7b$closure$u7d$$u7d$$GT$17hf8ead497ad3c4d36E', symObjAddr: 0xA198, symBinAddr: 0x26BA4, symSize: 0x24 }
  - { offset: 0xF950D, size: 0x8, addend: 0x0, symName: '__ZN4core3ptr342drop_in_place$LT$tokio..runtime..task..core..Core$LT$tokio..runtime..blocking..task..BlockingTask$LT$tokio..fs..open_options..OpenOptions..std_open$LT$$RF$std..path..PathBuf$GT$..$u7b$$u7b$closure$u7d$$u7d$..$u7b$$u7b$closure$u7d$$u7d$$GT$$C$tokio..runtime..blocking..schedule..BlockingSchedule$GT$..set_stage..$u7b$$u7b$closure$u7d$$u7d$$GT$17h7aafe908ca1df085E', symObjAddr: 0xA1BC, symBinAddr: 0x26BC8, symSize: 0x24 }
  - { offset: 0xF953C, size: 0x8, addend: 0x0, symName: '__ZN4core3ptr344drop_in_place$LT$tokio..runtime..task..harness..poll_future..$u7b$$u7b$closure$u7d$$u7d$..Guard$LT$tokio..runtime..blocking..task..BlockingTask$LT$alloc..boxed..Box$LT$tokio..fs..read..read$LT$std..path..PathBuf$GT$..$u7b$$u7b$closure$u7d$$u7d$..$u7b$$u7b$closure$u7d$$u7d$$GT$$GT$$C$tokio..runtime..blocking..schedule..BlockingSchedule$GT$$GT$17h898c58ac2f03a3a8E', symObjAddr: 0xA1E0, symBinAddr: 0x26BEC, symSize: 0x24 }
  - { offset: 0xF956B, size: 0x8, addend: 0x0, symName: '__ZN4core3ptr346drop_in_place$LT$tokio..runtime..task..core..Core$LT$tokio..runtime..blocking..task..BlockingTask$LT$tokio..fs..rename..rename$LT$$RF$std..path..PathBuf$C$$RF$std..path..PathBuf$GT$..$u7b$$u7b$closure$u7d$$u7d$..$u7b$$u7b$closure$u7d$$u7d$$GT$$C$tokio..runtime..blocking..schedule..BlockingSchedule$GT$..set_stage..$u7b$$u7b$closure$u7d$$u7d$$GT$17ha9ef0aa5788e3189E', symObjAddr: 0xA204, symBinAddr: 0x26C10, symSize: 0x24 }
  - { offset: 0xF959A, size: 0x8, addend: 0x0, symName: '__ZN4core3ptr346drop_in_place$LT$tokio..runtime..task..harness..poll_future..$u7b$$u7b$closure$u7d$$u7d$..Guard$LT$tokio..runtime..blocking..task..BlockingTask$LT$alloc..boxed..Box$LT$_sys..storage..snapshot..SnapshotStore..read_mmap..$u7b$$u7b$closure$u7d$$u7d$..$u7b$$u7b$closure$u7d$$u7d$$GT$$GT$$C$tokio..runtime..blocking..schedule..BlockingSchedule$GT$$GT$17hbf4844ee3d2e36e1E', symObjAddr: 0xA228, symBinAddr: 0x26C34, symSize: 0x24 }
  - { offset: 0xF95C9, size: 0x8, addend: 0x0, symName: '__ZN4core3ptr348drop_in_place$LT$tokio..runtime..task..harness..poll_future..$u7b$$u7b$closure$u7d$$u7d$..Guard$LT$tokio..runtime..blocking..task..BlockingTask$LT$alloc..boxed..Box$LT$tokio..fs..read..read$LT$$RF$std..path..PathBuf$GT$..$u7b$$u7b$closure$u7d$$u7d$..$u7b$$u7b$closure$u7d$$u7d$$GT$$GT$$C$tokio..runtime..blocking..schedule..BlockingSchedule$GT$$GT$17h909ae4b235949b18E', symObjAddr: 0xA24C, symBinAddr: 0x26C58, symSize: 0x24 }
  - { offset: 0xF95F8, size: 0x8, addend: 0x0, symName: '__ZN4core3ptr348drop_in_place$LT$tokio..runtime..task..harness..poll_future..$u7b$$u7b$closure$u7d$$u7d$..Guard$LT$tokio..runtime..blocking..task..BlockingTask$LT$tokio..fs..open_options..OpenOptions..std_open$LT$$RF$std..path..PathBuf$GT$..$u7b$$u7b$closure$u7d$$u7d$..$u7b$$u7b$closure$u7d$$u7d$$GT$$C$tokio..runtime..blocking..schedule..BlockingSchedule$GT$$GT$17h1eacc5bfee7955d3E', symObjAddr: 0xA270, symBinAddr: 0x26C7C, symSize: 0x24 }
  - { offset: 0xF9627, size: 0x8, addend: 0x0, symName: '__ZN4core3ptr350drop_in_place$LT$tokio..runtime..task..core..Core$LT$tokio..runtime..blocking..task..BlockingTask$LT$alloc..boxed..Box$LT$tokio..fs..read_dir..read_dir$LT$$RF$std..path..PathBuf$GT$..$u7b$$u7b$closure$u7d$$u7d$..$u7b$$u7b$closure$u7d$$u7d$$GT$$GT$$C$tokio..runtime..blocking..schedule..BlockingSchedule$GT$..set_stage..$u7b$$u7b$closure$u7d$$u7d$$GT$17h392c5492e6cc2d22E', symObjAddr: 0xA294, symBinAddr: 0x26CA0, symSize: 0x24 }
  - { offset: 0xF9656, size: 0x8, addend: 0x0, symName: '__ZN4core3ptr352drop_in_place$LT$alloc..boxed..Box$LT$tokio..runtime..task..core..Cell$LT$tokio..runtime..blocking..task..BlockingTask$LT$alloc..boxed..Box$LT$tokio..fs..open_options..OpenOptions..std_open$LT$$RF$std..path..PathBuf$GT$..$u7b$$u7b$closure$u7d$$u7d$..$u7b$$u7b$closure$u7d$$u7d$$GT$$GT$$C$tokio..runtime..blocking..schedule..BlockingSchedule$GT$$GT$$GT$17h10ac9005e961f060E', symObjAddr: 0xA2B8, symBinAddr: 0x26CC4, symSize: 0x60 }
  - { offset: 0xF9685, size: 0x8, addend: 0x0, symName: '__ZN4core3ptr352drop_in_place$LT$tokio..runtime..task..harness..poll_future..$u7b$$u7b$closure$u7d$$u7d$..Guard$LT$tokio..runtime..blocking..task..BlockingTask$LT$tokio..fs..rename..rename$LT$$RF$std..path..PathBuf$C$$RF$std..path..PathBuf$GT$..$u7b$$u7b$closure$u7d$$u7d$..$u7b$$u7b$closure$u7d$$u7d$$GT$$C$tokio..runtime..blocking..schedule..BlockingSchedule$GT$$GT$17h45eeb32d4bca1835E', symObjAddr: 0xA318, symBinAddr: 0x26D24, symSize: 0x24 }
  - { offset: 0xF96B4, size: 0x8, addend: 0x0, symName: '__ZN4core3ptr356drop_in_place$LT$alloc..boxed..Box$LT$tokio..runtime..task..core..Cell$LT$tokio..runtime..blocking..task..BlockingTask$LT$alloc..boxed..Box$LT$tokio..fs..rename..rename$LT$$RF$std..path..PathBuf$C$$RF$std..path..PathBuf$GT$..$u7b$$u7b$closure$u7d$$u7d$..$u7b$$u7b$closure$u7d$$u7d$$GT$$GT$$C$tokio..runtime..blocking..schedule..BlockingSchedule$GT$$GT$$GT$17h3fa0c46aad081c34E', symObjAddr: 0xA33C, symBinAddr: 0x26D48, symSize: 0x60 }
  - { offset: 0xF96E3, size: 0x8, addend: 0x0, symName: '__ZN4core3ptr356drop_in_place$LT$tokio..runtime..task..core..Core$LT$tokio..runtime..blocking..task..BlockingTask$LT$alloc..boxed..Box$LT$tokio..fs..remove_file..remove_file$LT$$RF$std..path..PathBuf$GT$..$u7b$$u7b$closure$u7d$$u7d$..$u7b$$u7b$closure$u7d$$u7d$$GT$$GT$$C$tokio..runtime..blocking..schedule..BlockingSchedule$GT$..set_stage..$u7b$$u7b$closure$u7d$$u7d$$GT$17h27b1eb5c7699c161E', symObjAddr: 0xA39C, symBinAddr: 0x26DA8, symSize: 0x24 }
  - { offset: 0xF9712, size: 0x8, addend: 0x0, symName: '__ZN4core3ptr356drop_in_place$LT$tokio..runtime..task..harness..poll_future..$u7b$$u7b$closure$u7d$$u7d$..Guard$LT$tokio..runtime..blocking..task..BlockingTask$LT$alloc..boxed..Box$LT$tokio..fs..read_dir..read_dir$LT$$RF$std..path..PathBuf$GT$..$u7b$$u7b$closure$u7d$$u7d$..$u7b$$u7b$closure$u7d$$u7d$$GT$$GT$$C$tokio..runtime..blocking..schedule..BlockingSchedule$GT$$GT$17h2ce23c99697ecc76E', symObjAddr: 0xA3C0, symBinAddr: 0x26DCC, symSize: 0x24 }
  - { offset: 0xF9741, size: 0x8, addend: 0x0, symName: '__ZN4core3ptr360drop_in_place$LT$tokio..runtime..scheduler..current_thread..CoreGuard..enter$LT$tokio..runtime..scheduler..current_thread..CoreGuard..block_on$LT$core..pin..Pin$LT$$RF$mut$u20$_sys..storage..snapshot..SnapshotStore..exists..$u7b$$u7b$closure$u7d$$u7d$$GT$$GT$..$u7b$$u7b$closure$u7d$$u7d$$C$core..option..Option$LT$bool$GT$$GT$..$u7b$$u7b$closure$u7d$$u7d$$GT$17h6925f3802eee2eb8E', symObjAddr: 0xA3E4, symBinAddr: 0x26DF0, symSize: 0x24 }
  - { offset: 0xF9770, size: 0x8, addend: 0x0, symName: '__ZN4core3ptr362drop_in_place$LT$tokio..runtime..task..harness..poll_future..$u7b$$u7b$closure$u7d$$u7d$..Guard$LT$tokio..runtime..blocking..task..BlockingTask$LT$alloc..boxed..Box$LT$tokio..fs..remove_file..remove_file$LT$$RF$std..path..PathBuf$GT$..$u7b$$u7b$closure$u7d$$u7d$..$u7b$$u7b$closure$u7d$$u7d$$GT$$GT$$C$tokio..runtime..blocking..schedule..BlockingSchedule$GT$$GT$17hfa92f89a275ee4c0E', symObjAddr: 0xA408, symBinAddr: 0x26E14, symSize: 0x24 }
  - { offset: 0xF979F, size: 0x8, addend: 0x0, symName: '__ZN4core3ptr364drop_in_place$LT$tokio..runtime..scheduler..current_thread..Context..run_task$LT$$LP$$RP$$C$tokio..runtime..scheduler..current_thread..CoreGuard..block_on$LT$core..pin..Pin$LT$$RF$mut$u20$_sys..storage..snapshot..SnapshotStore..read..$u7b$$u7b$closure$u7d$$u7d$$GT$$GT$..$u7b$$u7b$closure$u7d$$u7d$..$u7b$$u7b$closure$u7d$$u7d$$GT$..$u7b$$u7b$closure$u7d$$u7d$$GT$17h9ea6f6c2a62e73cbE', symObjAddr: 0xA42C, symBinAddr: 0x26E38, symSize: 0x24 }
  - { offset: 0xF97CE, size: 0x8, addend: 0x0, symName: '__ZN4core3ptr365drop_in_place$LT$tokio..runtime..scheduler..current_thread..Context..run_task$LT$$LP$$RP$$C$tokio..runtime..scheduler..current_thread..CoreGuard..block_on$LT$core..pin..Pin$LT$$RF$mut$u20$_sys..storage..snapshot..SnapshotStore..write..$u7b$$u7b$closure$u7d$$u7d$$GT$$GT$..$u7b$$u7b$closure$u7d$$u7d$..$u7b$$u7b$closure$u7d$$u7d$$GT$..$u7b$$u7b$closure$u7d$$u7d$$GT$17hffdd874c5c9c3d81E', symObjAddr: 0xA450, symBinAddr: 0x26E5C, symSize: 0x24 }
  - { offset: 0xF97FD, size: 0x8, addend: 0x0, symName: '__ZN4core3ptr366drop_in_place$LT$tokio..runtime..scheduler..current_thread..Context..run_task$LT$$LP$$RP$$C$tokio..runtime..scheduler..current_thread..CoreGuard..block_on$LT$core..pin..Pin$LT$$RF$mut$u20$_sys..storage..snapshot..SnapshotStore..delete..$u7b$$u7b$closure$u7d$$u7d$$GT$$GT$..$u7b$$u7b$closure$u7d$$u7d$..$u7b$$u7b$closure$u7d$$u7d$$GT$..$u7b$$u7b$closure$u7d$$u7d$$GT$17h6b3aed7173f102e2E', symObjAddr: 0xA474, symBinAddr: 0x26E80, symSize: 0x24 }
  - { offset: 0xF982C, size: 0x8, addend: 0x0, symName: '__ZN4core3ptr366drop_in_place$LT$tokio..runtime..scheduler..current_thread..Context..run_task$LT$$LP$$RP$$C$tokio..runtime..scheduler..current_thread..CoreGuard..block_on$LT$core..pin..Pin$LT$$RF$mut$u20$_sys..storage..snapshot..SnapshotStore..exists..$u7b$$u7b$closure$u7d$$u7d$$GT$$GT$..$u7b$$u7b$closure$u7d$$u7d$..$u7b$$u7b$closure$u7d$$u7d$$GT$..$u7b$$u7b$closure$u7d$$u7d$$GT$17h42b9ead88dfb78aaE', symObjAddr: 0xA498, symBinAddr: 0x26EA4, symSize: 0x24 }
  - { offset: 0xF985B, size: 0x8, addend: 0x0, symName: '__ZN4core3ptr367drop_in_place$LT$tokio..runtime..scheduler..current_thread..Context..run_task$LT$$LP$$RP$$C$tokio..runtime..scheduler..current_thread..CoreGuard..block_on$LT$core..pin..Pin$LT$$RF$mut$u20$_sys..cache..manager..MemoryTierManager..demote..$u7b$$u7b$closure$u7d$$u7d$$GT$$GT$..$u7b$$u7b$closure$u7d$$u7d$..$u7b$$u7b$closure$u7d$$u7d$$GT$..$u7b$$u7b$closure$u7d$$u7d$$GT$17hf2c5ca76755607b4E', symObjAddr: 0xA4BC, symBinAddr: 0x26EC8, symSize: 0x24 }
  - { offset: 0xF988A, size: 0x8, addend: 0x0, symName: '__ZN4core3ptr367drop_in_place$LT$tokio..runtime..task..core..Core$LT$tokio..runtime..blocking..task..BlockingTask$LT$alloc..boxed..Box$LT$tokio..fs..open_options..OpenOptions..std_open$LT$$RF$std..path..PathBuf$GT$..$u7b$$u7b$closure$u7d$$u7d$..$u7b$$u7b$closure$u7d$$u7d$$GT$$GT$$C$tokio..runtime..blocking..schedule..BlockingSchedule$GT$..set_stage..$u7b$$u7b$closure$u7d$$u7d$$GT$17hfeb4163a898feb5bE', symObjAddr: 0xA4E0, symBinAddr: 0x26EEC, symSize: 0x24 }
  - { offset: 0xF98B9, size: 0x8, addend: 0x0, symName: '__ZN4core3ptr368drop_in_place$LT$tokio..runtime..scheduler..current_thread..Context..run_task$LT$$LP$$RP$$C$tokio..runtime..scheduler..current_thread..CoreGuard..block_on$LT$core..pin..Pin$LT$$RF$mut$u20$_sys..cache..manager..MemoryTierManager..promote..$u7b$$u7b$closure$u7d$$u7d$$GT$$GT$..$u7b$$u7b$closure$u7d$$u7d$..$u7b$$u7b$closure$u7d$$u7d$$GT$..$u7b$$u7b$closure$u7d$$u7d$$GT$17h8ef8367d0ec308f2E', symObjAddr: 0xA504, symBinAddr: 0x26F10, symSize: 0x24 }
  - { offset: 0xF98E8, size: 0x8, addend: 0x0, symName: '__ZN4core3ptr368drop_in_place$LT$tokio..runtime..scheduler..current_thread..Context..run_task$LT$$LP$$RP$$C$tokio..runtime..scheduler..current_thread..CoreGuard..block_on$LT$core..pin..Pin$LT$$RF$mut$u20$_sys..storage..snapshot..SnapshotStore..list_all..$u7b$$u7b$closure$u7d$$u7d$$GT$$GT$..$u7b$$u7b$closure$u7d$$u7d$..$u7b$$u7b$closure$u7d$$u7d$$GT$..$u7b$$u7b$closure$u7d$$u7d$$GT$17h6a29e6ee6b6a99f1E', symObjAddr: 0xA528, symBinAddr: 0x26F34, symSize: 0x24 }
  - { offset: 0xF9917, size: 0x8, addend: 0x0, symName: '__ZN4core3ptr369drop_in_place$LT$tokio..runtime..scheduler..current_thread..Context..run_task$LT$$LP$$RP$$C$tokio..runtime..scheduler..current_thread..CoreGuard..block_on$LT$core..pin..Pin$LT$$RF$mut$u20$_sys..storage..snapshot..SnapshotStore..read_mmap..$u7b$$u7b$closure$u7d$$u7d$$GT$$GT$..$u7b$$u7b$closure$u7d$$u7d$..$u7b$$u7b$closure$u7d$$u7d$$GT$..$u7b$$u7b$closure$u7d$$u7d$$GT$17h99f1e870eb6da217E', symObjAddr: 0xA54C, symBinAddr: 0x26F58, symSize: 0x24 }
  - { offset: 0xF9946, size: 0x8, addend: 0x0, symName: '__ZN4core3ptr371drop_in_place$LT$tokio..runtime..task..core..Core$LT$tokio..runtime..blocking..task..BlockingTask$LT$alloc..boxed..Box$LT$tokio..fs..rename..rename$LT$$RF$std..path..PathBuf$C$$RF$std..path..PathBuf$GT$..$u7b$$u7b$closure$u7d$$u7d$..$u7b$$u7b$closure$u7d$$u7d$$GT$$GT$$C$tokio..runtime..blocking..schedule..BlockingSchedule$GT$..set_stage..$u7b$$u7b$closure$u7d$$u7d$$GT$17hdfdf01a8b952a1ddE', symObjAddr: 0xA570, symBinAddr: 0x26F7C, symSize: 0x24 }
  - { offset: 0xF9975, size: 0x8, addend: 0x0, symName: '__ZN4core3ptr372drop_in_place$LT$tokio..runtime..scheduler..current_thread..Context..run_task$LT$$LP$$RP$$C$tokio..runtime..scheduler..current_thread..CoreGuard..block_on$LT$core..pin..Pin$LT$$RF$mut$u20$_sys..cache..manager..MemoryTierManager..maybe_evict..$u7b$$u7b$closure$u7d$$u7d$$GT$$GT$..$u7b$$u7b$closure$u7d$$u7d$..$u7b$$u7b$closure$u7d$$u7d$$GT$..$u7b$$u7b$closure$u7d$$u7d$$GT$17ha9ee354ca8c87668E', symObjAddr: 0xA594, symBinAddr: 0x26FA0, symSize: 0x24 }
  - { offset: 0xF99A4, size: 0x8, addend: 0x0, symName: '__ZN4core3ptr373drop_in_place$LT$tokio..runtime..scheduler..current_thread..Context..run_task$LT$$LP$$RP$$C$tokio..runtime..scheduler..current_thread..CoreGuard..block_on$LT$core..pin..Pin$LT$$RF$mut$u20$_sys..storage..snapshot..SnapshotStore..list_by_layer..$u7b$$u7b$closure$u7d$$u7d$$GT$$GT$..$u7b$$u7b$closure$u7d$$u7d$..$u7b$$u7b$closure$u7d$$u7d$$GT$..$u7b$$u7b$closure$u7d$$u7d$$GT$17hcaeeb710e8799d40E', symObjAddr: 0xA5B8, symBinAddr: 0x26FC4, symSize: 0x24 }
  - { offset: 0xF99D3, size: 0x8, addend: 0x0, symName: '__ZN4core3ptr373drop_in_place$LT$tokio..runtime..task..harness..poll_future..$u7b$$u7b$closure$u7d$$u7d$..Guard$LT$tokio..runtime..blocking..task..BlockingTask$LT$alloc..boxed..Box$LT$tokio..fs..open_options..OpenOptions..std_open$LT$$RF$std..path..PathBuf$GT$..$u7b$$u7b$closure$u7d$$u7d$..$u7b$$u7b$closure$u7d$$u7d$$GT$$GT$$C$tokio..runtime..blocking..schedule..BlockingSchedule$GT$$GT$17hda39d3ed1bf97516E', symObjAddr: 0xA5DC, symBinAddr: 0x26FE8, symSize: 0x24 }
  - { offset: 0xF9A02, size: 0x8, addend: 0x0, symName: '__ZN4core3ptr377drop_in_place$LT$tokio..runtime..task..harness..poll_future..$u7b$$u7b$closure$u7d$$u7d$..Guard$LT$tokio..runtime..blocking..task..BlockingTask$LT$alloc..boxed..Box$LT$tokio..fs..rename..rename$LT$$RF$std..path..PathBuf$C$$RF$std..path..PathBuf$GT$..$u7b$$u7b$closure$u7d$$u7d$..$u7b$$u7b$closure$u7d$$u7d$$GT$$GT$$C$tokio..runtime..blocking..schedule..BlockingSchedule$GT$$GT$17h835d80ebbb7c269fE', symObjAddr: 0xA600, symBinAddr: 0x2700C, symSize: 0x24 }
  - { offset: 0xF9A31, size: 0x8, addend: 0x0, symName: '__ZN4core3ptr386drop_in_place$LT$core..iter..adapters..map..Map$LT$alloc..vec..into_iter..IntoIter$LT$_sys..bindings..storage_py..PySnapshotMeta$GT$$C$pyo3..conversions..std..vec..$LT$impl$u20$pyo3..conversion..IntoPy$LT$pyo3..instance..Py$LT$pyo3..types..any..PyAny$GT$$GT$$u20$for$u20$alloc..vec..Vec$LT$_sys..bindings..storage_py..PySnapshotMeta$GT$$GT$..into_py..$u7b$$u7b$closure$u7d$$u7d$$GT$$GT$17hf562ae531ccc8188E', symObjAddr: 0xA624, symBinAddr: 0x27030, symSize: 0x24 }
  - { offset: 0xF9A60, size: 0x8, addend: 0x0, symName: '__ZN4core3ptr387drop_in_place$LT$$LP$alloc..sync..Arc$LT$lock_api..rwlock..RwLockReadGuard$LT$dashmap..lock..RawRwLock$C$hashbrown..raw..inner..RawTable$LT$$LP$$LP$u32$C$u32$RP$$C$dashmap..util..SharedValue$LT$_sys..cache..eviction..H2OScore$GT$$RP$$GT$$GT$$GT$$C$hashbrown..raw..inner..RawIter$LT$$LP$$LP$u32$C$u32$RP$$C$dashmap..util..SharedValue$LT$_sys..cache..eviction..H2OScore$GT$$RP$$GT$$RP$$GT$17h733cb58f6d413002E', symObjAddr: 0xA648, symBinAddr: 0x27054, symSize: 0x24 }
  - { offset: 0xF9A8F, size: 0x8, addend: 0x0, symName: '__ZN4core3ptr39drop_in_place$LT$std..path..PathBuf$GT$17h9a21112e7feb8645E', symObjAddr: 0xA66C, symBinAddr: 0x27078, symSize: 0x24 }
  - { offset: 0xF9ABE, size: 0x8, addend: 0x0, symName: '__ZN4core3ptr407drop_in_place$LT$tokio..runtime..scheduler..current_thread..CoreGuard..enter$LT$tokio..runtime..scheduler..current_thread..CoreGuard..block_on$LT$core..pin..Pin$LT$$RF$mut$u20$core..pin..Pin$LT$alloc..boxed..Box$LT$_sys..storage..snapshot..SnapshotStore..exists..$u7b$$u7b$closure$u7d$$u7d$$GT$$GT$$GT$$GT$..$u7b$$u7b$closure$u7d$$u7d$$C$core..option..Option$LT$bool$GT$$GT$..$u7b$$u7b$closure$u7d$$u7d$$GT$17h55d9099a32322c17E', symObjAddr: 0xA690, symBinAddr: 0x2709C, symSize: 0x24 }
  - { offset: 0xF9AED, size: 0x8, addend: 0x0, symName: '__ZN4core3ptr411drop_in_place$LT$tokio..runtime..scheduler..current_thread..Context..run_task$LT$$LP$$RP$$C$tokio..runtime..scheduler..current_thread..CoreGuard..block_on$LT$core..pin..Pin$LT$$RF$mut$u20$core..pin..Pin$LT$alloc..boxed..Box$LT$_sys..storage..snapshot..SnapshotStore..read..$u7b$$u7b$closure$u7d$$u7d$$GT$$GT$$GT$$GT$..$u7b$$u7b$closure$u7d$$u7d$..$u7b$$u7b$closure$u7d$$u7d$$GT$..$u7b$$u7b$closure$u7d$$u7d$$GT$17h25480fc901a2bf2bE', symObjAddr: 0xA6B4, symBinAddr: 0x270C0, symSize: 0x24 }
  - { offset: 0xF9B1C, size: 0x8, addend: 0x0, symName: '__ZN4core3ptr412drop_in_place$LT$tokio..runtime..scheduler..current_thread..Context..run_task$LT$$LP$$RP$$C$tokio..runtime..scheduler..current_thread..CoreGuard..block_on$LT$core..pin..Pin$LT$$RF$mut$u20$core..pin..Pin$LT$alloc..boxed..Box$LT$_sys..storage..snapshot..SnapshotStore..write..$u7b$$u7b$closure$u7d$$u7d$$GT$$GT$$GT$$GT$..$u7b$$u7b$closure$u7d$$u7d$..$u7b$$u7b$closure$u7d$$u7d$$GT$..$u7b$$u7b$closure$u7d$$u7d$$GT$17hd9a93721fbf79f27E', symObjAddr: 0xA6D8, symBinAddr: 0x270E4, symSize: 0x24 }
  - { offset: 0xF9B4B, size: 0x8, addend: 0x0, symName: '__ZN4core3ptr413drop_in_place$LT$$LP$alloc..sync..Arc$LT$lock_api..rwlock..RwLockReadGuard$LT$dashmap..lock..RawRwLock$C$hashbrown..raw..inner..RawTable$LT$$LP$_sys..storage..snapshot..SnapshotId$C$dashmap..util..SharedValue$LT$alloc..vec..Vec$LT$f32$GT$$GT$$RP$$GT$$GT$$GT$$C$hashbrown..raw..inner..RawIter$LT$$LP$_sys..storage..snapshot..SnapshotId$C$dashmap..util..SharedValue$LT$alloc..vec..Vec$LT$f32$GT$$GT$$RP$$GT$$RP$$GT$17he9dfcf83ccd13125E', symObjAddr: 0xA6FC, symBinAddr: 0x27108, symSize: 0x24 }
  - { offset: 0xF9B7A, size: 0x8, addend: 0x0, symName: '__ZN4core3ptr413drop_in_place$LT$tokio..runtime..scheduler..current_thread..Context..run_task$LT$$LP$$RP$$C$tokio..runtime..scheduler..current_thread..CoreGuard..block_on$LT$core..pin..Pin$LT$$RF$mut$u20$core..pin..Pin$LT$alloc..boxed..Box$LT$_sys..storage..snapshot..SnapshotStore..delete..$u7b$$u7b$closure$u7d$$u7d$$GT$$GT$$GT$$GT$..$u7b$$u7b$closure$u7d$$u7d$..$u7b$$u7b$closure$u7d$$u7d$$GT$..$u7b$$u7b$closure$u7d$$u7d$$GT$17h59dcbc0b44761b00E', symObjAddr: 0xA720, symBinAddr: 0x2712C, symSize: 0x24 }
  - { offset: 0xF9BA9, size: 0x8, addend: 0x0, symName: '__ZN4core3ptr413drop_in_place$LT$tokio..runtime..scheduler..current_thread..Context..run_task$LT$$LP$$RP$$C$tokio..runtime..scheduler..current_thread..CoreGuard..block_on$LT$core..pin..Pin$LT$$RF$mut$u20$core..pin..Pin$LT$alloc..boxed..Box$LT$_sys..storage..snapshot..SnapshotStore..exists..$u7b$$u7b$closure$u7d$$u7d$$GT$$GT$$GT$$GT$..$u7b$$u7b$closure$u7d$$u7d$..$u7b$$u7b$closure$u7d$$u7d$$GT$..$u7b$$u7b$closure$u7d$$u7d$$GT$17h2aecb13c41f47191E', symObjAddr: 0xA744, symBinAddr: 0x27150, symSize: 0x24 }
  - { offset: 0xF9BD8, size: 0x8, addend: 0x0, symName: '__ZN4core3ptr414drop_in_place$LT$core..iter..traits..iterator..Iterator..for_each..call$LT$f32$C$alloc..vec..Vec$LT$f32$GT$..extend_trusted$LT$core..iter..adapters..map..Map$LT$core..slice..iter..ChunksExact$LT$u8$GT$$C$_sys..storage..snapshot..SnapshotStore..read_mmap..$u7b$$u7b$closure$u7d$$u7d$..$u7b$$u7b$closure$u7d$$u7d$..$u7b$$u7b$closure$u7d$$u7d$$GT$$GT$..$u7b$$u7b$closure$u7d$$u7d$$GT$..$u7b$$u7b$closure$u7d$$u7d$$GT$17hbe9d63b951d98c31E', symObjAddr: 0xA768, symBinAddr: 0x27174, symSize: 0x24 }
  - { offset: 0xF9C07, size: 0x8, addend: 0x0, symName: '__ZN4core3ptr414drop_in_place$LT$tokio..runtime..scheduler..current_thread..Context..run_task$LT$$LP$$RP$$C$tokio..runtime..scheduler..current_thread..CoreGuard..block_on$LT$core..pin..Pin$LT$$RF$mut$u20$core..pin..Pin$LT$alloc..boxed..Box$LT$_sys..cache..manager..MemoryTierManager..demote..$u7b$$u7b$closure$u7d$$u7d$$GT$$GT$$GT$$GT$..$u7b$$u7b$closure$u7d$$u7d$..$u7b$$u7b$closure$u7d$$u7d$$GT$..$u7b$$u7b$closure$u7d$$u7d$$GT$17h22e64c3781ccee49E', symObjAddr: 0xA78C, symBinAddr: 0x27198, symSize: 0x24 }
  - { offset: 0xF9C36, size: 0x8, addend: 0x0, symName: '__ZN4core3ptr415drop_in_place$LT$core..option..Option$LT$$LP$alloc..sync..Arc$LT$lock_api..rwlock..RwLockReadGuard$LT$dashmap..lock..RawRwLock$C$hashbrown..raw..inner..RawTable$LT$$LP$$LP$u32$C$u32$RP$$C$dashmap..util..SharedValue$LT$_sys..cache..eviction..H2OScore$GT$$RP$$GT$$GT$$GT$$C$hashbrown..raw..inner..RawIter$LT$$LP$$LP$u32$C$u32$RP$$C$dashmap..util..SharedValue$LT$_sys..cache..eviction..H2OScore$GT$$RP$$GT$$RP$$GT$$GT$17hebbd40b87aee13d3E', symObjAddr: 0xA7B0, symBinAddr: 0x271BC, symSize: 0x44 }
  - { offset: 0xF9C65, size: 0x8, addend: 0x0, symName: '__ZN4core3ptr415drop_in_place$LT$tokio..runtime..scheduler..current_thread..Context..run_task$LT$$LP$$RP$$C$tokio..runtime..scheduler..current_thread..CoreGuard..block_on$LT$core..pin..Pin$LT$$RF$mut$u20$core..pin..Pin$LT$alloc..boxed..Box$LT$_sys..cache..manager..MemoryTierManager..promote..$u7b$$u7b$closure$u7d$$u7d$$GT$$GT$$GT$$GT$..$u7b$$u7b$closure$u7d$$u7d$..$u7b$$u7b$closure$u7d$$u7d$$GT$..$u7b$$u7b$closure$u7d$$u7d$$GT$17hace5504c9d6ba9fcE', symObjAddr: 0xA7F4, symBinAddr: 0x27200, symSize: 0x24 }
  - { offset: 0xF9C94, size: 0x8, addend: 0x0, symName: '__ZN4core3ptr415drop_in_place$LT$tokio..runtime..scheduler..current_thread..Context..run_task$LT$$LP$$RP$$C$tokio..runtime..scheduler..current_thread..CoreGuard..block_on$LT$core..pin..Pin$LT$$RF$mut$u20$core..pin..Pin$LT$alloc..boxed..Box$LT$_sys..storage..snapshot..SnapshotStore..list_all..$u7b$$u7b$closure$u7d$$u7d$$GT$$GT$$GT$$GT$..$u7b$$u7b$closure$u7d$$u7d$..$u7b$$u7b$closure$u7d$$u7d$$GT$..$u7b$$u7b$closure$u7d$$u7d$$GT$17h65d34b1509c1105eE', symObjAddr: 0xA818, symBinAddr: 0x27224, symSize: 0x24 }
  - { offset: 0xF9CC3, size: 0x8, addend: 0x0, symName: '__ZN4core3ptr416drop_in_place$LT$tokio..runtime..scheduler..current_thread..Context..run_task$LT$$LP$$RP$$C$tokio..runtime..scheduler..current_thread..CoreGuard..block_on$LT$core..pin..Pin$LT$$RF$mut$u20$core..pin..Pin$LT$alloc..boxed..Box$LT$_sys..storage..snapshot..SnapshotStore..read_mmap..$u7b$$u7b$closure$u7d$$u7d$$GT$$GT$$GT$$GT$..$u7b$$u7b$closure$u7d$$u7d$..$u7b$$u7b$closure$u7d$$u7d$$GT$..$u7b$$u7b$closure$u7d$$u7d$$GT$17h3a5cbc0f205b0b79E', symObjAddr: 0xA83C, symBinAddr: 0x27248, symSize: 0x24 }
  - { offset: 0xF9CF2, size: 0x8, addend: 0x0, symName: '__ZN4core3ptr418drop_in_place$LT$tokio..runtime..scheduler..current_thread..CoreGuard..enter$LT$tokio..runtime..scheduler..current_thread..CoreGuard..block_on$LT$core..pin..Pin$LT$$RF$mut$u20$_sys..cache..manager..MemoryTierManager..demote..$u7b$$u7b$closure$u7d$$u7d$$GT$$GT$..$u7b$$u7b$closure$u7d$$u7d$$C$core..option..Option$LT$core..result..Result$LT$$LP$$RP$$C$_sys..error..DrexError$GT$$GT$$GT$..$u7b$$u7b$closure$u7d$$u7d$$GT$17h4de7d55aac5037c6E', symObjAddr: 0xA860, symBinAddr: 0x2726C, symSize: 0x24 }
  - { offset: 0xF9D21, size: 0x8, addend: 0x0, symName: '__ZN4core3ptr419drop_in_place$LT$tokio..runtime..scheduler..current_thread..Context..run_task$LT$$LP$$RP$$C$tokio..runtime..scheduler..current_thread..CoreGuard..block_on$LT$core..pin..Pin$LT$$RF$mut$u20$core..pin..Pin$LT$alloc..boxed..Box$LT$_sys..cache..manager..MemoryTierManager..maybe_evict..$u7b$$u7b$closure$u7d$$u7d$$GT$$GT$$GT$$GT$..$u7b$$u7b$closure$u7d$$u7d$..$u7b$$u7b$closure$u7d$$u7d$$GT$..$u7b$$u7b$closure$u7d$$u7d$$GT$17h11d97bb90fe7d8c2E', symObjAddr: 0xA884, symBinAddr: 0x27290, symSize: 0x24 }
  - { offset: 0xF9D50, size: 0x8, addend: 0x0, symName: '__ZN4core3ptr420drop_in_place$LT$tokio..runtime..scheduler..current_thread..Context..run_task$LT$$LP$$RP$$C$tokio..runtime..scheduler..current_thread..CoreGuard..block_on$LT$core..pin..Pin$LT$$RF$mut$u20$core..pin..Pin$LT$alloc..boxed..Box$LT$_sys..storage..snapshot..SnapshotStore..list_by_layer..$u7b$$u7b$closure$u7d$$u7d$$GT$$GT$$GT$$GT$..$u7b$$u7b$closure$u7d$$u7d$..$u7b$$u7b$closure$u7d$$u7d$$GT$..$u7b$$u7b$closure$u7d$$u7d$$GT$17hfbc8f295eff5b14aE', symObjAddr: 0xA8A8, symBinAddr: 0x272B4, symSize: 0x24 }
  - { offset: 0xF9D7F, size: 0x8, addend: 0x0, symName: '__ZN4core3ptr420drop_in_place$LT$tokio..runtime..scheduler..current_thread..CoreGuard..enter$LT$tokio..runtime..scheduler..current_thread..CoreGuard..block_on$LT$core..pin..Pin$LT$$RF$mut$u20$_sys..storage..snapshot..SnapshotStore..delete..$u7b$$u7b$closure$u7d$$u7d$$GT$$GT$..$u7b$$u7b$closure$u7d$$u7d$$C$core..option..Option$LT$core..result..Result$LT$$LP$$RP$$C$_sys..error..StorageError$GT$$GT$$GT$..$u7b$$u7b$closure$u7d$$u7d$$GT$17h9d4502ae73625952E', symObjAddr: 0xA8CC, symBinAddr: 0x272D8, symSize: 0x24 }
  - { offset: 0xF9DAE, size: 0x8, addend: 0x0, symName: '__ZN4core3ptr426drop_in_place$LT$core..iter..traits..iterator..Iterator..for_each..call$LT$f32$C$alloc..vec..Vec$LT$f32$GT$..extend_trusted$LT$core..iter..adapters..map..Map$LT$core..slice..iter..ChunksExact$LT$u8$GT$$C$$LT$_sys..storage..snapshot..FlatfileSerializer$u20$as$u20$_sys..storage..snapshot..SnapshotSerializer$GT$..deserialize..$u7b$$u7b$closure$u7d$$u7d$$GT$$GT$..$u7b$$u7b$closure$u7d$$u7d$$GT$..$u7b$$u7b$closure$u7d$$u7d$$GT$17ha73c92094f3bf034E', symObjAddr: 0xA8F0, symBinAddr: 0x272FC, symSize: 0x24 }
  - { offset: 0xF9DDD, size: 0x8, addend: 0x0, symName: '__ZN4core3ptr42drop_in_place$LT$tokio..fs..file..File$GT$17hdb647f3f551ba28cE', symObjAddr: 0xA914, symBinAddr: 0x27320, symSize: 0x60 }
  - { offset: 0xF9E0C, size: 0x8, addend: 0x0, symName: '__ZN4core3ptr436drop_in_place$LT$tokio..runtime..scheduler..current_thread..CoreGuard..enter$LT$tokio..runtime..scheduler..current_thread..CoreGuard..block_on$LT$core..pin..Pin$LT$$RF$mut$u20$_sys..storage..snapshot..SnapshotStore..read..$u7b$$u7b$closure$u7d$$u7d$$GT$$GT$..$u7b$$u7b$closure$u7d$$u7d$$C$core..option..Option$LT$core..result..Result$LT$alloc..vec..Vec$LT$f32$GT$$C$_sys..error..StorageError$GT$$GT$$GT$..$u7b$$u7b$closure$u7d$$u7d$$GT$17h44271ad3d4e8c56cE', symObjAddr: 0xA974, symBinAddr: 0x27380, symSize: 0x24 }
  - { offset: 0xF9E3B, size: 0x8, addend: 0x0, symName: '__ZN4core3ptr437drop_in_place$LT$tokio..runtime..scheduler..current_thread..CoreGuard..enter$LT$tokio..runtime..scheduler..current_thread..CoreGuard..block_on$LT$core..pin..Pin$LT$$RF$mut$u20$_sys..cache..manager..MemoryTierManager..promote..$u7b$$u7b$closure$u7d$$u7d$$GT$$GT$..$u7b$$u7b$closure$u7d$$u7d$$C$core..option..Option$LT$core..result..Result$LT$alloc..vec..Vec$LT$f32$GT$$C$_sys..error..DrexError$GT$$GT$$GT$..$u7b$$u7b$closure$u7d$$u7d$$GT$17h57d86cc5f6fefbc2E', symObjAddr: 0xA998, symBinAddr: 0x273A4, symSize: 0x24 }
  - { offset: 0xF9E6A, size: 0x8, addend: 0x0, symName: '__ZN4core3ptr43drop_in_place$LT$_sys..error..DrexError$GT$17h4380e020db9be386E', symObjAddr: 0xA9BC, symBinAddr: 0x273C8, symSize: 0x88 }
  - { offset: 0xF9E99, size: 0x8, addend: 0x0, symName: '__ZN4core3ptr441drop_in_place$LT$core..option..Option$LT$$LP$alloc..sync..Arc$LT$lock_api..rwlock..RwLockReadGuard$LT$dashmap..lock..RawRwLock$C$hashbrown..raw..inner..RawTable$LT$$LP$_sys..storage..snapshot..SnapshotId$C$dashmap..util..SharedValue$LT$alloc..vec..Vec$LT$f32$GT$$GT$$RP$$GT$$GT$$GT$$C$hashbrown..raw..inner..RawIter$LT$$LP$_sys..storage..snapshot..SnapshotId$C$dashmap..util..SharedValue$LT$alloc..vec..Vec$LT$f32$GT$$GT$$RP$$GT$$RP$$GT$$GT$17h4ad45ca076cd6919E', symObjAddr: 0xAA44, symBinAddr: 0x27450, symSize: 0x44 }
  - { offset: 0xF9EC8, size: 0x8, addend: 0x0, symName: '__ZN4core3ptr441drop_in_place$LT$tokio..runtime..scheduler..current_thread..CoreGuard..enter$LT$tokio..runtime..scheduler..current_thread..CoreGuard..block_on$LT$core..pin..Pin$LT$$RF$mut$u20$_sys..storage..snapshot..SnapshotStore..read_mmap..$u7b$$u7b$closure$u7d$$u7d$$GT$$GT$..$u7b$$u7b$closure$u7d$$u7d$$C$core..option..Option$LT$core..result..Result$LT$alloc..vec..Vec$LT$f32$GT$$C$_sys..error..StorageError$GT$$GT$$GT$..$u7b$$u7b$closure$u7d$$u7d$$GT$17h53f2591bae05724cE', symObjAddr: 0xAA88, symBinAddr: 0x27494, symSize: 0x24 }
  - { offset: 0xF9EF7, size: 0x8, addend: 0x0, symName: '__ZN4core3ptr452drop_in_place$LT$tokio..runtime..scheduler..current_thread..CoreGuard..enter$LT$tokio..runtime..scheduler..current_thread..CoreGuard..block_on$LT$core..pin..Pin$LT$$RF$mut$u20$_sys..storage..snapshot..SnapshotStore..write..$u7b$$u7b$closure$u7d$$u7d$$GT$$GT$..$u7b$$u7b$closure$u7d$$u7d$$C$core..option..Option$LT$core..result..Result$LT$_sys..storage..snapshot..SnapshotMetadata$C$_sys..error..StorageError$GT$$GT$$GT$..$u7b$$u7b$closure$u7d$$u7d$$GT$17h37a2fb78dcdb3149E', symObjAddr: 0xAAAC, symBinAddr: 0x274B8, symSize: 0x24 }
  - { offset: 0xF9F26, size: 0x8, addend: 0x0, symName: '__ZN4core3ptr455drop_in_place$LT$tokio..runtime..scheduler..current_thread..CoreGuard..enter$LT$tokio..runtime..scheduler..current_thread..CoreGuard..block_on$LT$core..pin..Pin$LT$$RF$mut$u20$_sys..cache..manager..MemoryTierManager..maybe_evict..$u7b$$u7b$closure$u7d$$u7d$$GT$$GT$..$u7b$$u7b$closure$u7d$$u7d$$C$core..option..Option$LT$core..result..Result$LT$alloc..vec..Vec$LT$$LP$u32$C$u32$RP$$GT$$C$_sys..error..DrexError$GT$$GT$$GT$..$u7b$$u7b$closure$u7d$$u7d$$GT$17h42ff1d351b5f9038E', symObjAddr: 0xAAD0, symBinAddr: 0x274DC, symSize: 0x24 }
  - { offset: 0xF9F55, size: 0x8, addend: 0x0, symName: '__ZN4core3ptr465drop_in_place$LT$tokio..runtime..scheduler..current_thread..CoreGuard..enter$LT$tokio..runtime..scheduler..current_thread..CoreGuard..block_on$LT$core..pin..Pin$LT$$RF$mut$u20$core..pin..Pin$LT$alloc..boxed..Box$LT$_sys..cache..manager..MemoryTierManager..demote..$u7b$$u7b$closure$u7d$$u7d$$GT$$GT$$GT$$GT$..$u7b$$u7b$closure$u7d$$u7d$$C$core..option..Option$LT$core..result..Result$LT$$LP$$RP$$C$_sys..error..DrexError$GT$$GT$$GT$..$u7b$$u7b$closure$u7d$$u7d$$GT$17hea682d01ff9da988E', symObjAddr: 0xAAF4, symBinAddr: 0x27500, symSize: 0x24 }
  - { offset: 0xF9F84, size: 0x8, addend: 0x0, symName: '__ZN4core3ptr467drop_in_place$LT$tokio..runtime..scheduler..current_thread..CoreGuard..enter$LT$tokio..runtime..scheduler..current_thread..CoreGuard..block_on$LT$core..pin..Pin$LT$$RF$mut$u20$core..pin..Pin$LT$alloc..boxed..Box$LT$_sys..storage..snapshot..SnapshotStore..delete..$u7b$$u7b$closure$u7d$$u7d$$GT$$GT$$GT$$GT$..$u7b$$u7b$closure$u7d$$u7d$$C$core..option..Option$LT$core..result..Result$LT$$LP$$RP$$C$_sys..error..StorageError$GT$$GT$$GT$..$u7b$$u7b$closure$u7d$$u7d$$GT$17hdf345fc3b1ce240fE', symObjAddr: 0xAB18, symBinAddr: 0x27524, symSize: 0x24 }
  - { offset: 0xF9FB3, size: 0x8, addend: 0x0, symName: '__ZN4core3ptr46drop_in_place$LT$_sys..error..StorageError$GT$17h5c9a0c8c5fcfe1f3E', symObjAddr: 0xAB3C, symBinAddr: 0x27548, symSize: 0x88 }
  - { offset: 0xF9FE2, size: 0x8, addend: 0x0, symName: '__ZN4core3ptr478drop_in_place$LT$tokio..runtime..scheduler..current_thread..CoreGuard..enter$LT$tokio..runtime..scheduler..current_thread..CoreGuard..block_on$LT$core..pin..Pin$LT$$RF$mut$u20$_sys..storage..snapshot..SnapshotStore..list_all..$u7b$$u7b$closure$u7d$$u7d$$GT$$GT$..$u7b$$u7b$closure$u7d$$u7d$$C$core..option..Option$LT$core..result..Result$LT$alloc..vec..Vec$LT$_sys..storage..snapshot..SnapshotMetadata$GT$$C$_sys..error..StorageError$GT$$GT$$GT$..$u7b$$u7b$closure$u7d$$u7d$$GT$17ha424e94ea9c9a2e9E', symObjAddr: 0xABC4, symBinAddr: 0x275D0, symSize: 0x24 }
  - { offset: 0xFA011, size: 0x8, addend: 0x0, symName: '__ZN4core3ptr47drop_in_place$LT$alloc..vec..Vec$LT$f32$GT$$GT$17hfb3bbb932a8d6468E', symObjAddr: 0xABE8, symBinAddr: 0x275F4, symSize: 0x5C }
  - { offset: 0xFA040, size: 0x8, addend: 0x0, symName: '__ZN4core3ptr47drop_in_place$LT$zstd..stream..raw..Decoder$GT$17he00fe77cd4bd09fcE', symObjAddr: 0xAC44, symBinAddr: 0x27650, symSize: 0x24 }
  - { offset: 0xFA06F, size: 0x8, addend: 0x0, symName: '__ZN4core3ptr47drop_in_place$LT$zstd..stream..raw..Encoder$GT$17h831a56a7aa6725a5E', symObjAddr: 0xAC68, symBinAddr: 0x27674, symSize: 0x24 }
  - { offset: 0xFA09E, size: 0x8, addend: 0x0, symName: '__ZN4core3ptr47drop_in_place$LT$zstd_safe..InBufferWrapper$GT$17h9881fd7d3d66d1abE', symObjAddr: 0xAC8C, symBinAddr: 0x27698, symSize: 0x24 }
  - { offset: 0xFA0CD, size: 0x8, addend: 0x0, symName: '__ZN4core3ptr483drop_in_place$LT$tokio..runtime..scheduler..current_thread..CoreGuard..enter$LT$tokio..runtime..scheduler..current_thread..CoreGuard..block_on$LT$core..pin..Pin$LT$$RF$mut$u20$_sys..storage..snapshot..SnapshotStore..list_by_layer..$u7b$$u7b$closure$u7d$$u7d$$GT$$GT$..$u7b$$u7b$closure$u7d$$u7d$$C$core..option..Option$LT$core..result..Result$LT$alloc..vec..Vec$LT$_sys..storage..snapshot..SnapshotMetadata$GT$$C$_sys..error..StorageError$GT$$GT$$GT$..$u7b$$u7b$closure$u7d$$u7d$$GT$17h9657bbeab539d3f8E', symObjAddr: 0xACB0, symBinAddr: 0x276BC, symSize: 0x24 }
  - { offset: 0xFA0FC, size: 0x8, addend: 0x0, symName: '__ZN4core3ptr483drop_in_place$LT$tokio..runtime..scheduler..current_thread..CoreGuard..enter$LT$tokio..runtime..scheduler..current_thread..CoreGuard..block_on$LT$core..pin..Pin$LT$$RF$mut$u20$core..pin..Pin$LT$alloc..boxed..Box$LT$_sys..storage..snapshot..SnapshotStore..read..$u7b$$u7b$closure$u7d$$u7d$$GT$$GT$$GT$$GT$..$u7b$$u7b$closure$u7d$$u7d$$C$core..option..Option$LT$core..result..Result$LT$alloc..vec..Vec$LT$f32$GT$$C$_sys..error..StorageError$GT$$GT$$GT$..$u7b$$u7b$closure$u7d$$u7d$$GT$17hd47423f28ac3e2baE', symObjAddr: 0xACD4, symBinAddr: 0x276E0, symSize: 0x24 }
  - { offset: 0xFA12B, size: 0x8, addend: 0x0, symName: '__ZN4core3ptr484drop_in_place$LT$tokio..runtime..scheduler..current_thread..CoreGuard..enter$LT$tokio..runtime..scheduler..current_thread..CoreGuard..block_on$LT$core..pin..Pin$LT$$RF$mut$u20$core..pin..Pin$LT$alloc..boxed..Box$LT$_sys..cache..manager..MemoryTierManager..promote..$u7b$$u7b$closure$u7d$$u7d$$GT$$GT$$GT$$GT$..$u7b$$u7b$closure$u7d$$u7d$$C$core..option..Option$LT$core..result..Result$LT$alloc..vec..Vec$LT$f32$GT$$C$_sys..error..DrexError$GT$$GT$$GT$..$u7b$$u7b$closure$u7d$$u7d$$GT$17hde9628c764e084c1E', symObjAddr: 0xACF8, symBinAddr: 0x27704, symSize: 0x24 }
  - { offset: 0xFA15A, size: 0x8, addend: 0x0, symName: '__ZN4core3ptr488drop_in_place$LT$tokio..runtime..scheduler..current_thread..CoreGuard..enter$LT$tokio..runtime..scheduler..current_thread..CoreGuard..block_on$LT$core..pin..Pin$LT$$RF$mut$u20$core..pin..Pin$LT$alloc..boxed..Box$LT$_sys..storage..snapshot..SnapshotStore..read_mmap..$u7b$$u7b$closure$u7d$$u7d$$GT$$GT$$GT$$GT$..$u7b$$u7b$closure$u7d$$u7d$$C$core..option..Option$LT$core..result..Result$LT$alloc..vec..Vec$LT$f32$GT$$C$_sys..error..StorageError$GT$$GT$$GT$..$u7b$$u7b$closure$u7d$$u7d$$GT$17h5a15bee4d59bd8b9E', symObjAddr: 0xAD1C, symBinAddr: 0x27728, symSize: 0x24 }
  - { offset: 0xFA189, size: 0x8, addend: 0x0, symName: '__ZN4core3ptr499drop_in_place$LT$tokio..runtime..scheduler..current_thread..CoreGuard..enter$LT$tokio..runtime..scheduler..current_thread..CoreGuard..block_on$LT$core..pin..Pin$LT$$RF$mut$u20$core..pin..Pin$LT$alloc..boxed..Box$LT$_sys..storage..snapshot..SnapshotStore..write..$u7b$$u7b$closure$u7d$$u7d$$GT$$GT$$GT$$GT$..$u7b$$u7b$closure$u7d$$u7d$$C$core..option..Option$LT$core..result..Result$LT$_sys..storage..snapshot..SnapshotMetadata$C$_sys..error..StorageError$GT$$GT$$GT$..$u7b$$u7b$closure$u7d$$u7d$$GT$17hc243eab6fc5d518dE', symObjAddr: 0xAD40, symBinAddr: 0x2774C, symSize: 0x24 }
  - { offset: 0xFA1B8, size: 0x8, addend: 0x0, symName: '__ZN4core3ptr49drop_in_place$LT$tokio..fs..read_dir..ReadDir$GT$17h43a64bfbbee87a4fE', symObjAddr: 0xAD64, symBinAddr: 0x27770, symSize: 0x24 }
  - { offset: 0xFA1E7, size: 0x8, addend: 0x0, symName: '__ZN4core3ptr502drop_in_place$LT$tokio..runtime..scheduler..current_thread..CoreGuard..enter$LT$tokio..runtime..scheduler..current_thread..CoreGuard..block_on$LT$core..pin..Pin$LT$$RF$mut$u20$core..pin..Pin$LT$alloc..boxed..Box$LT$_sys..cache..manager..MemoryTierManager..maybe_evict..$u7b$$u7b$closure$u7d$$u7d$$GT$$GT$$GT$$GT$..$u7b$$u7b$closure$u7d$$u7d$$C$core..option..Option$LT$core..result..Result$LT$alloc..vec..Vec$LT$$LP$u32$C$u32$RP$$GT$$C$_sys..error..DrexError$GT$$GT$$GT$..$u7b$$u7b$closure$u7d$$u7d$$GT$17h59db2d896fa1bd1fE', symObjAddr: 0xAD88, symBinAddr: 0x27794, symSize: 0x24 }
  - { offset: 0xFA216, size: 0x8, addend: 0x0, symName: '__ZN4core3ptr50drop_in_place$LT$tokio..util..as_ref..OwnedBuf$GT$17he273fb2370b5310fE', symObjAddr: 0xADAC, symBinAddr: 0x277B8, symSize: 0x54 }
  - { offset: 0xFA245, size: 0x8, addend: 0x0, symName: '__ZN4core3ptr525drop_in_place$LT$tokio..runtime..scheduler..current_thread..CoreGuard..enter$LT$tokio..runtime..scheduler..current_thread..CoreGuard..block_on$LT$core..pin..Pin$LT$$RF$mut$u20$core..pin..Pin$LT$alloc..boxed..Box$LT$_sys..storage..snapshot..SnapshotStore..list_all..$u7b$$u7b$closure$u7d$$u7d$$GT$$GT$$GT$$GT$..$u7b$$u7b$closure$u7d$$u7d$$C$core..option..Option$LT$core..result..Result$LT$alloc..vec..Vec$LT$_sys..storage..snapshot..SnapshotMetadata$GT$$C$_sys..error..StorageError$GT$$GT$$GT$..$u7b$$u7b$closure$u7d$$u7d$$GT$17hca7b139d2cba4e81E', symObjAddr: 0xAE00, symBinAddr: 0x2780C, symSize: 0x24 }
  - { offset: 0xFA274, size: 0x8, addend: 0x0, symName: '__ZN4core3ptr530drop_in_place$LT$tokio..runtime..scheduler..current_thread..CoreGuard..enter$LT$tokio..runtime..scheduler..current_thread..CoreGuard..block_on$LT$core..pin..Pin$LT$$RF$mut$u20$core..pin..Pin$LT$alloc..boxed..Box$LT$_sys..storage..snapshot..SnapshotStore..list_by_layer..$u7b$$u7b$closure$u7d$$u7d$$GT$$GT$$GT$$GT$..$u7b$$u7b$closure$u7d$$u7d$$C$core..option..Option$LT$core..result..Result$LT$alloc..vec..Vec$LT$_sys..storage..snapshot..SnapshotMetadata$GT$$C$_sys..error..StorageError$GT$$GT$$GT$..$u7b$$u7b$closure$u7d$$u7d$$GT$17he401db1406b30cc5E', symObjAddr: 0xAE24, symBinAddr: 0x27830, symSize: 0x24 }
  - { offset: 0xFA2A3, size: 0x8, addend: 0x0, symName: '__ZN4core3ptr53drop_in_place$LT$_sys..cache..manager..TierConfig$GT$17h527b77f94e3c7d2eE', symObjAddr: 0xAE48, symBinAddr: 0x27854, symSize: 0x24 }
  - { offset: 0xFA2D2, size: 0x8, addend: 0x0, symName: '__ZN4core3ptr54drop_in_place$LT$alloc..raw_vec..RawVec$LT$f32$GT$$GT$17hb3944c70358cd36cE', symObjAddr: 0xAE90, symBinAddr: 0x27878, symSize: 0x24 }
  - { offset: 0xFA301, size: 0x8, addend: 0x0, symName: '__ZN4core3ptr54drop_in_place$LT$zstd..stream..raw..MaybeOwnedCCtx$GT$17h401da8907db0caa1E', symObjAddr: 0xAEB4, symBinAddr: 0x2789C, symSize: 0x40 }
  - { offset: 0xFA330, size: 0x8, addend: 0x0, symName: '__ZN4core3ptr54drop_in_place$LT$zstd..stream..raw..MaybeOwnedDCtx$GT$17hf91fc5dd41f0fc69E', symObjAddr: 0xAEF4, symBinAddr: 0x278DC, symSize: 0x40 }
  - { offset: 0xFA35F, size: 0x8, addend: 0x0, symName: '__ZN4core3ptr553drop_in_place$LT$tokio..runtime..context..set_scheduler$LT$$LP$alloc..boxed..Box$LT$tokio..runtime..scheduler..current_thread..Core$GT$$C$core..option..Option$LT$bool$GT$$RP$$C$tokio..runtime..scheduler..current_thread..CoreGuard..enter$LT$tokio..runtime..scheduler..current_thread..CoreGuard..block_on$LT$core..pin..Pin$LT$$RF$mut$u20$_sys..storage..snapshot..SnapshotStore..exists..$u7b$$u7b$closure$u7d$$u7d$$GT$$GT$..$u7b$$u7b$closure$u7d$$u7d$$C$core..option..Option$LT$bool$GT$$GT$..$u7b$$u7b$closure$u7d$$u7d$$GT$..$u7b$$u7b$closure$u7d$$u7d$$GT$17ha9c03d2e8f3e3dd5E', symObjAddr: 0xAF34, symBinAddr: 0x2791C, symSize: 0x24 }
  - { offset: 0xFA38E, size: 0x8, addend: 0x0, symName: '__ZN4core3ptr562drop_in_place$LT$alloc..vec..Vec$LT$crossbeam_utils..cache_padded..CachePadded$LT$lock_api..rwlock..RwLock$LT$dashmap..lock..RawRwLock$C$hashbrown..raw..inner..RawTable$LT$$LP$$LP$u32$C$u32$RP$$C$dashmap..util..SharedValue$LT$_sys..cache..eviction..H2OScore$GT$$RP$$GT$$GT$$GT$$GT$..extend_trusted$LT$core..iter..adapters..map..Map$LT$core..ops..range..Range$LT$usize$GT$$C$dashmap..DashMap$LT$$LP$u32$C$u32$RP$$C$_sys..cache..eviction..H2OScore$GT$..with_capacity_and_hasher_and_shard_amount..$u7b$$u7b$closure$u7d$$u7d$$GT$$GT$..$u7b$$u7b$closure$u7d$$u7d$$GT$17hcc866fac784ea13dE', symObjAddr: 0xAF58, symBinAddr: 0x27940, symSize: 0x24 }
  - { offset: 0xFA3BD, size: 0x8, addend: 0x0, symName: '__ZN4core3ptr56drop_in_place$LT$_sys..prefetch..sketch..SketchEntry$GT$17he350c775944028d7E', symObjAddr: 0xAF7C, symBinAddr: 0x27964, symSize: 0x24 }
  - { offset: 0xFA3EC, size: 0x8, addend: 0x0, symName: '__ZN4core3ptr56drop_in_place$LT$_sys..prefetch..sketch..SketchIndex$GT$17h804b5a193bebdbc2E', symObjAddr: 0xAFA0, symBinAddr: 0x27988, symSize: 0x60 }
  - { offset: 0xFA41B, size: 0x8, addend: 0x0, symName: '__ZN4core3ptr588drop_in_place$LT$alloc..vec..Vec$LT$crossbeam_utils..cache_padded..CachePadded$LT$lock_api..rwlock..RwLock$LT$dashmap..lock..RawRwLock$C$hashbrown..raw..inner..RawTable$LT$$LP$_sys..storage..snapshot..SnapshotId$C$dashmap..util..SharedValue$LT$alloc..vec..Vec$LT$f32$GT$$GT$$RP$$GT$$GT$$GT$$GT$..extend_trusted$LT$core..iter..adapters..map..Map$LT$core..ops..range..Range$LT$usize$GT$$C$dashmap..DashMap$LT$_sys..storage..snapshot..SnapshotId$C$alloc..vec..Vec$LT$f32$GT$$GT$..with_capacity_and_hasher_and_shard_amount..$u7b$$u7b$closure$u7d$$u7d$$GT$$GT$..$u7b$$u7b$closure$u7d$$u7d$$GT$17h1d5d838387801d57E', symObjAddr: 0xB000, symBinAddr: 0x279E8, symSize: 0x24 }
  - { offset: 0xFA44A, size: 0x8, addend: 0x0, symName: '__ZN4core3ptr588drop_in_place$LT$alloc..vec..Vec$LT$crossbeam_utils..cache_padded..CachePadded$LT$lock_api..rwlock..RwLock$LT$dashmap..lock..RawRwLock$C$hashbrown..raw..inner..RawTable$LT$$LP$u32$C$dashmap..util..SharedValue$LT$alloc..vec..Vec$LT$_sys..storage..snapshot..SnapshotId$GT$$GT$$RP$$GT$$GT$$GT$$GT$..extend_trusted$LT$core..iter..adapters..map..Map$LT$core..ops..range..Range$LT$usize$GT$$C$dashmap..DashMap$LT$u32$C$alloc..vec..Vec$LT$_sys..storage..snapshot..SnapshotId$GT$$GT$..with_capacity_and_hasher_and_shard_amount..$u7b$$u7b$closure$u7d$$u7d$$GT$$GT$..$u7b$$u7b$closure$u7d$$u7d$$GT$17hfa389964d8f89aecE', symObjAddr: 0xB024, symBinAddr: 0x27A0C, symSize: 0x24 }
  - { offset: 0xFA479, size: 0x8, addend: 0x0, symName: '__ZN4core3ptr59drop_in_place$LT$_sys..prefetch..engine..PrefetchEngine$GT$17h1646c57e6d988884E', symObjAddr: 0xB048, symBinAddr: 0x27A30, symSize: 0xBC }
  - { offset: 0xFA4A8, size: 0x8, addend: 0x0, symName: '__ZN4core3ptr59drop_in_place$LT$_sys..storage..snapshot..SnapshotStore$GT$17h6968d929d5c702b0E', symObjAddr: 0xB104, symBinAddr: 0x27AEC, symSize: 0x60 }
  - { offset: 0xFA4D7, size: 0x8, addend: 0x0, symName: '__ZN4core3ptr600drop_in_place$LT$tokio..runtime..context..set_scheduler$LT$$LP$alloc..boxed..Box$LT$tokio..runtime..scheduler..current_thread..Core$GT$$C$core..option..Option$LT$bool$GT$$RP$$C$tokio..runtime..scheduler..current_thread..CoreGuard..enter$LT$tokio..runtime..scheduler..current_thread..CoreGuard..block_on$LT$core..pin..Pin$LT$$RF$mut$u20$core..pin..Pin$LT$alloc..boxed..Box$LT$_sys..storage..snapshot..SnapshotStore..exists..$u7b$$u7b$closure$u7d$$u7d$$GT$$GT$$GT$$GT$..$u7b$$u7b$closure$u7d$$u7d$$C$core..option..Option$LT$bool$GT$$GT$..$u7b$$u7b$closure$u7d$$u7d$$GT$..$u7b$$u7b$closure$u7d$$u7d$$GT$17h7d85dd839d6c07fdE', symObjAddr: 0xB164, symBinAddr: 0x27B4C, symSize: 0x24 }
  - { offset: 0xFA506, size: 0x8, addend: 0x0, symName: '__ZN4core3ptr60drop_in_place$LT$_sys..cache..manager..MemoryTierManager$GT$17h5b091d7cc7755421E', symObjAddr: 0xB188, symBinAddr: 0x27B70, symSize: 0xF0 }
  - { offset: 0xFA535, size: 0x8, addend: 0x0, symName: '__ZN4core3ptr60drop_in_place$LT$_sys..cache..registry..SnapshotRegistry$GT$17h638635180c6b530eE', symObjAddr: 0xB278, symBinAddr: 0x27C60, symSize: 0x60 }
  - { offset: 0xFA564, size: 0x8, addend: 0x0, symName: '__ZN4core3ptr618drop_in_place$LT$alloc..vec..Vec$LT$crossbeam_utils..cache_padded..CachePadded$LT$lock_api..rwlock..RwLock$LT$dashmap..lock..RawRwLock$C$hashbrown..raw..inner..RawTable$LT$$LP$_sys..storage..snapshot..SnapshotId$C$dashmap..util..SharedValue$LT$_sys..storage..snapshot..SnapshotMetadata$GT$$RP$$GT$$GT$$GT$$GT$..extend_trusted$LT$core..iter..adapters..map..Map$LT$core..ops..range..Range$LT$usize$GT$$C$dashmap..DashMap$LT$_sys..storage..snapshot..SnapshotId$C$_sys..storage..snapshot..SnapshotMetadata$GT$..with_capacity_and_hasher_and_shard_amount..$u7b$$u7b$closure$u7d$$u7d$$GT$$GT$..$u7b$$u7b$closure$u7d$$u7d$$GT$17h71a45cee034ee8a2E', symObjAddr: 0xB2D8, symBinAddr: 0x27CC0, symSize: 0x24 }
  - { offset: 0xFA593, size: 0x8, addend: 0x0, symName: '__ZN4core3ptr61drop_in_place$LT$_sys..cache..eviction..H2OEvictionPolicy$GT$17h8118f9a7cd3c8b2cE', symObjAddr: 0xB2FC, symBinAddr: 0x27CE4, symSize: 0x24 }
  - { offset: 0xFA5C2, size: 0x8, addend: 0x0, symName: '__ZN4core3ptr61drop_in_place$LT$alloc..vec..Vec$LT$$LP$u32$C$u32$RP$$GT$$GT$17hf012a7a623b50f5dE', symObjAddr: 0xB320, symBinAddr: 0x27D08, symSize: 0x5C }
  - { offset: 0xFA5F1, size: 0x8, addend: 0x0, symName: '__ZN4core3ptr62drop_in_place$LT$_sys..storage..journal..WriteAheadJournal$GT$17h8ce65364bb23d146E', symObjAddr: 0xB37C, symBinAddr: 0x27D64, symSize: 0x24 }
  - { offset: 0xFA620, size: 0x8, addend: 0x0, symName: '__ZN4core3ptr63drop_in_place$LT$alloc..vec..into_iter..IntoIter$LT$f32$GT$$GT$17h74c895f2633e4cd0E', symObjAddr: 0xB3A0, symBinAddr: 0x27D88, symSize: 0x24 }
  - { offset: 0xFA64F, size: 0x8, addend: 0x0, symName: '__ZN4core3ptr64drop_in_place$LT$_sys..bindings..storage_py..PySnapshotStore$GT$17hd208dbf03f4f12c1E', symObjAddr: 0xB3C4, symBinAddr: 0x27DAC, symSize: 0x5C }
  - { offset: 0xFA67E, size: 0x8, addend: 0x0, symName: '__ZN4core3ptr65drop_in_place$LT$std..io..buffered..bufreader..buffer..Buffer$GT$17ha7b85a6eae7f09a4E', symObjAddr: 0xB420, symBinAddr: 0x27E08, symSize: 0x24 }
  - { offset: 0xFA6AD, size: 0x8, addend: 0x0, symName: '__ZN4core3ptr661drop_in_place$LT$core..iter..adapters..map..map_fold$LT$$RF$$u5b$u8$u5d$$C$f32$C$$LP$$RP$$C$_sys..storage..snapshot..SnapshotStore..read_mmap..$u7b$$u7b$closure$u7d$$u7d$..$u7b$$u7b$closure$u7d$$u7d$..$u7b$$u7b$closure$u7d$$u7d$$C$core..iter..traits..iterator..Iterator..for_each..call$LT$f32$C$alloc..vec..Vec$LT$f32$GT$..extend_trusted$LT$core..iter..adapters..map..Map$LT$core..slice..iter..ChunksExact$LT$u8$GT$$C$_sys..storage..snapshot..SnapshotStore..read_mmap..$u7b$$u7b$closure$u7d$$u7d$..$u7b$$u7b$closure$u7d$$u7d$..$u7b$$u7b$closure$u7d$$u7d$$GT$$GT$..$u7b$$u7b$closure$u7d$$u7d$$GT$..$u7b$$u7b$closure$u7d$$u7d$$GT$..$u7b$$u7b$closure$u7d$$u7d$$GT$17h6daf843885060c83E', symObjAddr: 0xB444, symBinAddr: 0x27E2C, symSize: 0x24 }
  - { offset: 0xFA6DC, size: 0x8, addend: 0x0, symName: '__ZN4core3ptr668drop_in_place$LT$tokio..runtime..context..set_scheduler$LT$$LP$alloc..boxed..Box$LT$tokio..runtime..scheduler..current_thread..Core$GT$$C$core..option..Option$LT$core..result..Result$LT$$LP$$RP$$C$_sys..error..DrexError$GT$$GT$$RP$$C$tokio..runtime..scheduler..current_thread..CoreGuard..enter$LT$tokio..runtime..scheduler..current_thread..CoreGuard..block_on$LT$core..pin..Pin$LT$$RF$mut$u20$_sys..cache..manager..MemoryTierManager..demote..$u7b$$u7b$closure$u7d$$u7d$$GT$$GT$..$u7b$$u7b$closure$u7d$$u7d$$C$core..option..Option$LT$core..result..Result$LT$$LP$$RP$$C$_sys..error..DrexError$GT$$GT$$GT$..$u7b$$u7b$closure$u7d$$u7d$$GT$..$u7b$$u7b$closure$u7d$$u7d$$GT$17h0cb5fac1dea6b642E', symObjAddr: 0xB468, symBinAddr: 0x27E50, symSize: 0x24 }
  - { offset: 0xFA70B, size: 0x8, addend: 0x0, symName: '__ZN4core3ptr66drop_in_place$LT$$u5b$_sys..prefetch..sketch..SketchEntry$u5d$$GT$17h01c536309b6b179bE', symObjAddr: 0xB48C, symBinAddr: 0x27E74, symSize: 0xC4 }
  - { offset: 0xFA73A, size: 0x8, addend: 0x0, symName: '__ZN4core3ptr66drop_in_place$LT$_sys..bindings..cache_py..PyMemoryTierManager$GT$17h113c0492c4121e38E', symObjAddr: 0xB550, symBinAddr: 0x27F38, symSize: 0x5C }
  - { offset: 0xFA769, size: 0x8, addend: 0x0, symName: '__ZN4core3ptr66drop_in_place$LT$_sys..bindings..prefetch_py..PyPrefetchEngine$GT$17h85d898c9eeaca9f3E', symObjAddr: 0xB5AC, symBinAddr: 0x27F94, symSize: 0x24 }
  - { offset: 0xFA798, size: 0x8, addend: 0x0, symName: '__ZN4core3ptr673drop_in_place$LT$tokio..runtime..context..set_scheduler$LT$$LP$alloc..boxed..Box$LT$tokio..runtime..scheduler..current_thread..Core$GT$$C$core..option..Option$LT$core..result..Result$LT$$LP$$RP$$C$_sys..error..StorageError$GT$$GT$$RP$$C$tokio..runtime..scheduler..current_thread..CoreGuard..enter$LT$tokio..runtime..scheduler..current_thread..CoreGuard..block_on$LT$core..pin..Pin$LT$$RF$mut$u20$_sys..storage..snapshot..SnapshotStore..delete..$u7b$$u7b$closure$u7d$$u7d$$GT$$GT$..$u7b$$u7b$closure$u7d$$u7d$$C$core..option..Option$LT$core..result..Result$LT$$LP$$RP$$C$_sys..error..StorageError$GT$$GT$$GT$..$u7b$$u7b$closure$u7d$$u7d$$GT$..$u7b$$u7b$closure$u7d$$u7d$$GT$17h19d540b09c1bf126E', symObjAddr: 0xB5D0, symBinAddr: 0x27FB8, symSize: 0x24 }
  - { offset: 0xFA7C7, size: 0x8, addend: 0x0, symName: '__ZN4core3ptr685drop_in_place$LT$core..iter..adapters..map..map_fold$LT$$RF$$u5b$u8$u5d$$C$f32$C$$LP$$RP$$C$$LT$_sys..storage..snapshot..FlatfileSerializer$u20$as$u20$_sys..storage..snapshot..SnapshotSerializer$GT$..deserialize..$u7b$$u7b$closure$u7d$$u7d$$C$core..iter..traits..iterator..Iterator..for_each..call$LT$f32$C$alloc..vec..Vec$LT$f32$GT$..extend_trusted$LT$core..iter..adapters..map..Map$LT$core..slice..iter..ChunksExact$LT$u8$GT$$C$$LT$_sys..storage..snapshot..FlatfileSerializer$u20$as$u20$_sys..storage..snapshot..SnapshotSerializer$GT$..deserialize..$u7b$$u7b$closure$u7d$$u7d$$GT$$GT$..$u7b$$u7b$closure$u7d$$u7d$$GT$..$u7b$$u7b$closure$u7d$$u7d$$GT$..$u7b$$u7b$closure$u7d$$u7d$$GT$17h5cc45e34769c00a6E', symObjAddr: 0xB5F4, symBinAddr: 0x27FDC, symSize: 0x24 }
  - { offset: 0xFA7F6, size: 0x8, addend: 0x0, symName: '__ZN4core3ptr68drop_in_place$LT$alloc..raw_vec..RawVec$LT$$LP$u32$C$u32$RP$$GT$$GT$17hf629b564bb92c33fE', symObjAddr: 0xB618, symBinAddr: 0x28000, symSize: 0x24 }
  - { offset: 0xFA825, size: 0x8, addend: 0x0, symName: '__ZN4core3ptr68drop_in_place$LT$zstd_safe..OutBufferWrapper$LT$$u5b$u8$u5d$$GT$$GT$17h9011f03527872e0eE', symObjAddr: 0xB63C, symBinAddr: 0x28024, symSize: 0x24 }
  - { offset: 0xFA854, size: 0x8, addend: 0x0, symName: '__ZN4core3ptr69drop_in_place$LT$alloc..borrow..Cow$LT$core..ffi..c_str..CStr$GT$$GT$17hf1e54627f13ef6a4E', symObjAddr: 0xB660, symBinAddr: 0x28048, symSize: 0x40 }
  - { offset: 0xFA883, size: 0x8, addend: 0x0, symName: '__ZN4core3ptr705drop_in_place$LT$tokio..runtime..context..set_scheduler$LT$$LP$alloc..boxed..Box$LT$tokio..runtime..scheduler..current_thread..Core$GT$$C$core..option..Option$LT$core..result..Result$LT$alloc..vec..Vec$LT$f32$GT$$C$_sys..error..DrexError$GT$$GT$$RP$$C$tokio..runtime..scheduler..current_thread..CoreGuard..enter$LT$tokio..runtime..scheduler..current_thread..CoreGuard..block_on$LT$core..pin..Pin$LT$$RF$mut$u20$_sys..cache..manager..MemoryTierManager..promote..$u7b$$u7b$closure$u7d$$u7d$$GT$$GT$..$u7b$$u7b$closure$u7d$$u7d$$C$core..option..Option$LT$core..result..Result$LT$alloc..vec..Vec$LT$f32$GT$$C$_sys..error..DrexError$GT$$GT$$GT$..$u7b$$u7b$closure$u7d$$u7d$$GT$..$u7b$$u7b$closure$u7d$$u7d$$GT$17hccb6613abb056789E', symObjAddr: 0xB6A0, symBinAddr: 0x28088, symSize: 0x24 }
  - { offset: 0xFA8B2, size: 0x8, addend: 0x0, symName: '__ZN4core3ptr707drop_in_place$LT$tokio..runtime..context..set_scheduler$LT$$LP$alloc..boxed..Box$LT$tokio..runtime..scheduler..current_thread..Core$GT$$C$core..option..Option$LT$core..result..Result$LT$alloc..vec..Vec$LT$f32$GT$$C$_sys..error..StorageError$GT$$GT$$RP$$C$tokio..runtime..scheduler..current_thread..CoreGuard..enter$LT$tokio..runtime..scheduler..current_thread..CoreGuard..block_on$LT$core..pin..Pin$LT$$RF$mut$u20$_sys..storage..snapshot..SnapshotStore..read..$u7b$$u7b$closure$u7d$$u7d$$GT$$GT$..$u7b$$u7b$closure$u7d$$u7d$$C$core..option..Option$LT$core..result..Result$LT$alloc..vec..Vec$LT$f32$GT$$C$_sys..error..StorageError$GT$$GT$$GT$..$u7b$$u7b$closure$u7d$$u7d$$GT$..$u7b$$u7b$closure$u7d$$u7d$$GT$17h467fb66ac26bf1aeE', symObjAddr: 0xB6C4, symBinAddr: 0x280AC, symSize: 0x24 }
  - { offset: 0xFA8E1, size: 0x8, addend: 0x0, symName: '__ZN4core3ptr70drop_in_place$LT$$LP$u32$C$_sys..prefetch..sketch..SketchIndex$RP$$GT$17h8b4e1f69848a7d4aE', symObjAddr: 0xB6E8, symBinAddr: 0x280D0, symSize: 0x24 }
  - { offset: 0xFA910, size: 0x8, addend: 0x0, symName: '__ZN4core3ptr712drop_in_place$LT$tokio..runtime..context..set_scheduler$LT$$LP$alloc..boxed..Box$LT$tokio..runtime..scheduler..current_thread..Core$GT$$C$core..option..Option$LT$core..result..Result$LT$alloc..vec..Vec$LT$f32$GT$$C$_sys..error..StorageError$GT$$GT$$RP$$C$tokio..runtime..scheduler..current_thread..CoreGuard..enter$LT$tokio..runtime..scheduler..current_thread..CoreGuard..block_on$LT$core..pin..Pin$LT$$RF$mut$u20$_sys..storage..snapshot..SnapshotStore..read_mmap..$u7b$$u7b$closure$u7d$$u7d$$GT$$GT$..$u7b$$u7b$closure$u7d$$u7d$$C$core..option..Option$LT$core..result..Result$LT$alloc..vec..Vec$LT$f32$GT$$C$_sys..error..StorageError$GT$$GT$$GT$..$u7b$$u7b$closure$u7d$$u7d$$GT$..$u7b$$u7b$closure$u7d$$u7d$$GT$17h4aa23bfe711cac84E', symObjAddr: 0xB70C, symBinAddr: 0x280F4, symSize: 0x24 }
  - { offset: 0xFA93F, size: 0x8, addend: 0x0, symName: '__ZN4core3ptr715drop_in_place$LT$tokio..runtime..context..set_scheduler$LT$$LP$alloc..boxed..Box$LT$tokio..runtime..scheduler..current_thread..Core$GT$$C$core..option..Option$LT$core..result..Result$LT$$LP$$RP$$C$_sys..error..DrexError$GT$$GT$$RP$$C$tokio..runtime..scheduler..current_thread..CoreGuard..enter$LT$tokio..runtime..scheduler..current_thread..CoreGuard..block_on$LT$core..pin..Pin$LT$$RF$mut$u20$core..pin..Pin$LT$alloc..boxed..Box$LT$_sys..cache..manager..MemoryTierManager..demote..$u7b$$u7b$closure$u7d$$u7d$$GT$$GT$$GT$$GT$..$u7b$$u7b$closure$u7d$$u7d$$C$core..option..Option$LT$core..result..Result$LT$$LP$$RP$$C$_sys..error..DrexError$GT$$GT$$GT$..$u7b$$u7b$closure$u7d$$u7d$$GT$..$u7b$$u7b$closure$u7d$$u7d$$GT$17h941e5da66a918995E', symObjAddr: 0xB730, symBinAddr: 0x28118, symSize: 0x24 }
  - { offset: 0xFA96E, size: 0x8, addend: 0x0, symName: '__ZN4core3ptr71drop_in_place$LT$core..array..iter..IntoIter$LT$usize$C$2_usize$GT$$GT$17hb530a32d3b372aa0E', symObjAddr: 0xB754, symBinAddr: 0x2813C, symSize: 0x5C }
  - { offset: 0xFA99D, size: 0x8, addend: 0x0, symName: '__ZN4core3ptr720drop_in_place$LT$tokio..runtime..context..set_scheduler$LT$$LP$alloc..boxed..Box$LT$tokio..runtime..scheduler..current_thread..Core$GT$$C$core..option..Option$LT$core..result..Result$LT$$LP$$RP$$C$_sys..error..StorageError$GT$$GT$$RP$$C$tokio..runtime..scheduler..current_thread..CoreGuard..enter$LT$tokio..runtime..scheduler..current_thread..CoreGuard..block_on$LT$core..pin..Pin$LT$$RF$mut$u20$core..pin..Pin$LT$alloc..boxed..Box$LT$_sys..storage..snapshot..SnapshotStore..delete..$u7b$$u7b$closure$u7d$$u7d$$GT$$GT$$GT$$GT$..$u7b$$u7b$closure$u7d$$u7d$$C$core..option..Option$LT$core..result..Result$LT$$LP$$RP$$C$_sys..error..StorageError$GT$$GT$$GT$..$u7b$$u7b$closure$u7d$$u7d$$GT$..$u7b$$u7b$closure$u7d$$u7d$$GT$17hbce7cc550d2a0795E', symObjAddr: 0xB7B0, symBinAddr: 0x28198, symSize: 0x24 }
  - { offset: 0xFA9CC, size: 0x8, addend: 0x0, symName: '__ZN4core3ptr737drop_in_place$LT$tokio..runtime..context..set_scheduler$LT$$LP$alloc..boxed..Box$LT$tokio..runtime..scheduler..current_thread..Core$GT$$C$core..option..Option$LT$core..result..Result$LT$alloc..vec..Vec$LT$$LP$u32$C$u32$RP$$GT$$C$_sys..error..DrexError$GT$$GT$$RP$$C$tokio..runtime..scheduler..current_thread..CoreGuard..enter$LT$tokio..runtime..scheduler..current_thread..CoreGuard..block_on$LT$core..pin..Pin$LT$$RF$mut$u20$_sys..cache..manager..MemoryTierManager..maybe_evict..$u7b$$u7b$closure$u7d$$u7d$$GT$$GT$..$u7b$$u7b$closure$u7d$$u7d$$C$core..option..Option$LT$core..result..Result$LT$alloc..vec..Vec$LT$$LP$u32$C$u32$RP$$GT$$C$_sys..error..DrexError$GT$$GT$$GT$..$u7b$$u7b$closure$u7d$$u7d$$GT$..$u7b$$u7b$closure$u7d$$u7d$$GT$17h776bae211dcc3e6bE', symObjAddr: 0xB81C, symBinAddr: 0x281BC, symSize: 0x24 }
  - { offset: 0xFA9FB, size: 0x8, addend: 0x0, symName: '__ZN4core3ptr738drop_in_place$LT$tokio..runtime..context..set_scheduler$LT$$LP$alloc..boxed..Box$LT$tokio..runtime..scheduler..current_thread..Core$GT$$C$core..option..Option$LT$core..result..Result$LT$_sys..storage..snapshot..SnapshotMetadata$C$_sys..error..StorageError$GT$$GT$$RP$$C$tokio..runtime..scheduler..current_thread..CoreGuard..enter$LT$tokio..runtime..scheduler..current_thread..CoreGuard..block_on$LT$core..pin..Pin$LT$$RF$mut$u20$_sys..storage..snapshot..SnapshotStore..write..$u7b$$u7b$closure$u7d$$u7d$$GT$$GT$..$u7b$$u7b$closure$u7d$$u7d$$C$core..option..Option$LT$core..result..Result$LT$_sys..storage..snapshot..SnapshotMetadata$C$_sys..error..StorageError$GT$$GT$$GT$..$u7b$$u7b$closure$u7d$$u7d$$GT$..$u7b$$u7b$closure$u7d$$u7d$$GT$17h3f2da8200ddd7eadE', symObjAddr: 0xB840, symBinAddr: 0x281E0, symSize: 0x24 }
  - { offset: 0xFAA2A, size: 0x8, addend: 0x0, symName: '__ZN4core3ptr73drop_in_place$LT$core..result..Result$LT$usize$C$pyo3..err..PyErr$GT$$GT$17hb4012c08692ddf2bE', symObjAddr: 0xB864, symBinAddr: 0x28204, symSize: 0x40 }
  - { offset: 0xFAA59, size: 0x8, addend: 0x0, symName: '__ZN4core3ptr752drop_in_place$LT$tokio..runtime..context..set_scheduler$LT$$LP$alloc..boxed..Box$LT$tokio..runtime..scheduler..current_thread..Core$GT$$C$core..option..Option$LT$core..result..Result$LT$alloc..vec..Vec$LT$f32$GT$$C$_sys..error..DrexError$GT$$GT$$RP$$C$tokio..runtime..scheduler..current_thread..CoreGuard..enter$LT$tokio..runtime..scheduler..current_thread..CoreGuard..block_on$LT$core..pin..Pin$LT$$RF$mut$u20$core..pin..Pin$LT$alloc..boxed..Box$LT$_sys..cache..manager..MemoryTierManager..promote..$u7b$$u7b$closure$u7d$$u7d$$GT$$GT$$GT$$GT$..$u7b$$u7b$closure$u7d$$u7d$$C$core..option..Option$LT$core..result..Result$LT$alloc..vec..Vec$LT$f32$GT$$C$_sys..error..DrexError$GT$$GT$$GT$..$u7b$$u7b$closure$u7d$$u7d$$GT$..$u7b$$u7b$closure$u7d$$u7d$$GT$17hfde39d1022d238faE', symObjAddr: 0xB8A4, symBinAddr: 0x28244, symSize: 0x24 }
  - { offset: 0xFAA88, size: 0x8, addend: 0x0, symName: '__ZN4core3ptr754drop_in_place$LT$tokio..runtime..context..set_scheduler$LT$$LP$alloc..boxed..Box$LT$tokio..runtime..scheduler..current_thread..Core$GT$$C$core..option..Option$LT$core..result..Result$LT$alloc..vec..Vec$LT$f32$GT$$C$_sys..error..StorageError$GT$$GT$$RP$$C$tokio..runtime..scheduler..current_thread..CoreGuard..enter$LT$tokio..runtime..scheduler..current_thread..CoreGuard..block_on$LT$core..pin..Pin$LT$$RF$mut$u20$core..pin..Pin$LT$alloc..boxed..Box$LT$_sys..storage..snapshot..SnapshotStore..read..$u7b$$u7b$closure$u7d$$u7d$$GT$$GT$$GT$$GT$..$u7b$$u7b$closure$u7d$$u7d$$C$core..option..Option$LT$core..result..Result$LT$alloc..vec..Vec$LT$f32$GT$$C$_sys..error..StorageError$GT$$GT$$GT$..$u7b$$u7b$closure$u7d$$u7d$$GT$..$u7b$$u7b$closure$u7d$$u7d$$GT$17hee0408b7a4a1a6e1E', symObjAddr: 0xB8C8, symBinAddr: 0x28268, symSize: 0x24 }
  - { offset: 0xFAAB7, size: 0x8, addend: 0x0, symName: '__ZN4core3ptr759drop_in_place$LT$tokio..runtime..context..set_scheduler$LT$$LP$alloc..boxed..Box$LT$tokio..runtime..scheduler..current_thread..Core$GT$$C$core..option..Option$LT$core..result..Result$LT$alloc..vec..Vec$LT$f32$GT$$C$_sys..error..StorageError$GT$$GT$$RP$$C$tokio..runtime..scheduler..current_thread..CoreGuard..enter$LT$tokio..runtime..scheduler..current_thread..CoreGuard..block_on$LT$core..pin..Pin$LT$$RF$mut$u20$core..pin..Pin$LT$alloc..boxed..Box$LT$_sys..storage..snapshot..SnapshotStore..read_mmap..$u7b$$u7b$closure$u7d$$u7d$$GT$$GT$$GT$$GT$..$u7b$$u7b$closure$u7d$$u7d$$C$core..option..Option$LT$core..result..Result$LT$alloc..vec..Vec$LT$f32$GT$$C$_sys..error..StorageError$GT$$GT$$GT$..$u7b$$u7b$closure$u7d$$u7d$$GT$..$u7b$$u7b$closure$u7d$$u7d$$GT$17h737a3375addc8a19E', symObjAddr: 0xB8EC, symBinAddr: 0x2828C, symSize: 0x24 }
  - { offset: 0xFAAE6, size: 0x8, addend: 0x0, symName: '__ZN4core3ptr75drop_in_place$LT$core..option..Option$LT$alloc..vec..Vec$LT$f32$GT$$GT$$GT$17hcaf51f0d6661d922E', symObjAddr: 0xB910, symBinAddr: 0x282B0, symSize: 0x48 }
  - { offset: 0xFAB15, size: 0x8, addend: 0x0, symName: '__ZN4core3ptr77drop_in_place$LT$alloc..vec..into_iter..IntoIter$LT$$LP$u32$C$u32$RP$$GT$$GT$17hd3bf186e9cc0c1fcE', symObjAddr: 0xB958, symBinAddr: 0x282F8, symSize: 0x24 }
  - { offset: 0xFAB44, size: 0x8, addend: 0x0, symName: '__ZN4core3ptr77drop_in_place$LT$core..cell..UnsafeCell$LT$alloc..vec..Vec$LT$f32$GT$$GT$$GT$17h4d34596779eeeaf5E', symObjAddr: 0xB97C, symBinAddr: 0x2831C, symSize: 0x24 }
  - { offset: 0xFAB73, size: 0x8, addend: 0x0, symName: '__ZN4core3ptr784drop_in_place$LT$tokio..runtime..context..set_scheduler$LT$$LP$alloc..boxed..Box$LT$tokio..runtime..scheduler..current_thread..Core$GT$$C$core..option..Option$LT$core..result..Result$LT$alloc..vec..Vec$LT$$LP$u32$C$u32$RP$$GT$$C$_sys..error..DrexError$GT$$GT$$RP$$C$tokio..runtime..scheduler..current_thread..CoreGuard..enter$LT$tokio..runtime..scheduler..current_thread..CoreGuard..block_on$LT$core..pin..Pin$LT$$RF$mut$u20$core..pin..Pin$LT$alloc..boxed..Box$LT$_sys..cache..manager..MemoryTierManager..maybe_evict..$u7b$$u7b$closure$u7d$$u7d$$GT$$GT$$GT$$GT$..$u7b$$u7b$closure$u7d$$u7d$$C$core..option..Option$LT$core..result..Result$LT$alloc..vec..Vec$LT$$LP$u32$C$u32$RP$$GT$$C$_sys..error..DrexError$GT$$GT$$GT$..$u7b$$u7b$closure$u7d$$u7d$$GT$..$u7b$$u7b$closure$u7d$$u7d$$GT$17h087a5712f6212c80E', symObjAddr: 0xB9A0, symBinAddr: 0x28340, symSize: 0x24 }
  - { offset: 0xFABA2, size: 0x8, addend: 0x0, symName: '__ZN4core3ptr785drop_in_place$LT$tokio..runtime..context..set_scheduler$LT$$LP$alloc..boxed..Box$LT$tokio..runtime..scheduler..current_thread..Core$GT$$C$core..option..Option$LT$core..result..Result$LT$_sys..storage..snapshot..SnapshotMetadata$C$_sys..error..StorageError$GT$$GT$$RP$$C$tokio..runtime..scheduler..current_thread..CoreGuard..enter$LT$tokio..runtime..scheduler..current_thread..CoreGuard..block_on$LT$core..pin..Pin$LT$$RF$mut$u20$core..pin..Pin$LT$alloc..boxed..Box$LT$_sys..storage..snapshot..SnapshotStore..write..$u7b$$u7b$closure$u7d$$u7d$$GT$$GT$$GT$$GT$..$u7b$$u7b$closure$u7d$$u7d$$C$core..option..Option$LT$core..result..Result$LT$_sys..storage..snapshot..SnapshotMetadata$C$_sys..error..StorageError$GT$$GT$$GT$..$u7b$$u7b$closure$u7d$$u7d$$GT$..$u7b$$u7b$closure$u7d$$u7d$$GT$17hd9eafa4ef6af4769E', symObjAddr: 0xB9C4, symBinAddr: 0x28364, symSize: 0x24 }
  - { offset: 0xFABD1, size: 0x8, addend: 0x0, symName: '__ZN4core3ptr787drop_in_place$LT$tokio..runtime..context..set_scheduler$LT$$LP$alloc..boxed..Box$LT$tokio..runtime..scheduler..current_thread..Core$GT$$C$core..option..Option$LT$core..result..Result$LT$alloc..vec..Vec$LT$_sys..storage..snapshot..SnapshotMetadata$GT$$C$_sys..error..StorageError$GT$$GT$$RP$$C$tokio..runtime..scheduler..current_thread..CoreGuard..enter$LT$tokio..runtime..scheduler..current_thread..CoreGuard..block_on$LT$core..pin..Pin$LT$$RF$mut$u20$_sys..storage..snapshot..SnapshotStore..list_all..$u7b$$u7b$closure$u7d$$u7d$$GT$$GT$..$u7b$$u7b$closure$u7d$$u7d$$C$core..option..Option$LT$core..result..Result$LT$alloc..vec..Vec$LT$_sys..storage..snapshot..SnapshotMetadata$GT$$C$_sys..error..StorageError$GT$$GT$$GT$..$u7b$$u7b$closure$u7d$$u7d$$GT$..$u7b$$u7b$closure$u7d$$u7d$$GT$17hd07db0310365085bE', symObjAddr: 0xB9E8, symBinAddr: 0x28388, symSize: 0x24 }
  - { offset: 0xFAC00, size: 0x8, addend: 0x0, symName: '__ZN4core3ptr78drop_in_place$LT$core..option..Option$LT$tokio..fs..read_dir..DirEntry$GT$$GT$17hab18daefb0e34a55E', symObjAddr: 0xBA0C, symBinAddr: 0x283AC, symSize: 0x44 }
  - { offset: 0xFAC2F, size: 0x8, addend: 0x0, symName: '__ZN4core3ptr792drop_in_place$LT$tokio..runtime..context..set_scheduler$LT$$LP$alloc..boxed..Box$LT$tokio..runtime..scheduler..current_thread..Core$GT$$C$core..option..Option$LT$core..result..Result$LT$alloc..vec..Vec$LT$_sys..storage..snapshot..SnapshotMetadata$GT$$C$_sys..error..StorageError$GT$$GT$$RP$$C$tokio..runtime..scheduler..current_thread..CoreGuard..enter$LT$tokio..runtime..scheduler..current_thread..CoreGuard..block_on$LT$core..pin..Pin$LT$$RF$mut$u20$_sys..storage..snapshot..SnapshotStore..list_by_layer..$u7b$$u7b$closure$u7d$$u7d$$GT$$GT$..$u7b$$u7b$closure$u7d$$u7d$$C$core..option..Option$LT$core..result..Result$LT$alloc..vec..Vec$LT$_sys..storage..snapshot..SnapshotMetadata$GT$$C$_sys..error..StorageError$GT$$GT$$GT$..$u7b$$u7b$closure$u7d$$u7d$$GT$..$u7b$$u7b$closure$u7d$$u7d$$GT$17h48e226285a42b73bE', symObjAddr: 0xBA50, symBinAddr: 0x283F0, symSize: 0x24 }
  - { offset: 0xFAC5E, size: 0x8, addend: 0x0, symName: '__ZN4core3ptr79drop_in_place$LT$alloc..vec..Vec$LT$_sys..prefetch..sketch..SketchEntry$GT$$GT$17h4bfe26ac8b84055aE', symObjAddr: 0xBA74, symBinAddr: 0x28414, symSize: 0x5C }
  - { offset: 0xFAC8D, size: 0x8, addend: 0x0, symName: '__ZN4core3ptr79drop_in_place$LT$alloc..vec..Vec$LT$_sys..storage..snapshot..SnapshotId$GT$$GT$17h49250cbc5f7518daE', symObjAddr: 0xBAD0, symBinAddr: 0x28470, symSize: 0x5C }
  - { offset: 0xFACBC, size: 0x8, addend: 0x0, symName: '__ZN4core3ptr81drop_in_place$LT$dashmap..util..SharedValue$LT$alloc..vec..Vec$LT$f32$GT$$GT$$GT$17h747ce43c46ff25acE', symObjAddr: 0xBB8C, symBinAddr: 0x284CC, symSize: 0x24 }
  - { offset: 0xFACEB, size: 0x8, addend: 0x0, symName: '__ZN4core3ptr81drop_in_place$LT$zstd_safe..OutBufferWrapper$LT$alloc..vec..Vec$LT$u8$GT$$GT$$GT$17h48ad3a2a71c2ab46E', symObjAddr: 0xBBB0, symBinAddr: 0x284F0, symSize: 0x24 }
  - { offset: 0xFAD1A, size: 0x8, addend: 0x0, symName: '__ZN4core3ptr82drop_in_place$LT$core..result..Result$LT$$LP$$RP$$C$_sys..error..DrexError$GT$$GT$17he5f3ec2b761b1041E', symObjAddr: 0xBBD4, symBinAddr: 0x28514, symSize: 0x44 }
  - { offset: 0xFAD49, size: 0x8, addend: 0x0, symName: '__ZN4core3ptr834drop_in_place$LT$tokio..runtime..context..set_scheduler$LT$$LP$alloc..boxed..Box$LT$tokio..runtime..scheduler..current_thread..Core$GT$$C$core..option..Option$LT$core..result..Result$LT$alloc..vec..Vec$LT$_sys..storage..snapshot..SnapshotMetadata$GT$$C$_sys..error..StorageError$GT$$GT$$RP$$C$tokio..runtime..scheduler..current_thread..CoreGuard..enter$LT$tokio..runtime..scheduler..current_thread..CoreGuard..block_on$LT$core..pin..Pin$LT$$RF$mut$u20$core..pin..Pin$LT$alloc..boxed..Box$LT$_sys..storage..snapshot..SnapshotStore..list_all..$u7b$$u7b$closure$u7d$$u7d$$GT$$GT$$GT$$GT$..$u7b$$u7b$closure$u7d$$u7d$$C$core..option..Option$LT$core..result..Result$LT$alloc..vec..Vec$LT$_sys..storage..snapshot..SnapshotMetadata$GT$$C$_sys..error..StorageError$GT$$GT$$GT$..$u7b$$u7b$closure$u7d$$u7d$$GT$..$u7b$$u7b$closure$u7d$$u7d$$GT$17h761bcaf97cd65883E', symObjAddr: 0xBC18, symBinAddr: 0x28558, symSize: 0x24 }
  - { offset: 0xFAD78, size: 0x8, addend: 0x0, symName: '__ZN4core3ptr839drop_in_place$LT$tokio..runtime..context..set_scheduler$LT$$LP$alloc..boxed..Box$LT$tokio..runtime..scheduler..current_thread..Core$GT$$C$core..option..Option$LT$core..result..Result$LT$alloc..vec..Vec$LT$_sys..storage..snapshot..SnapshotMetadata$GT$$C$_sys..error..StorageError$GT$$GT$$RP$$C$tokio..runtime..scheduler..current_thread..CoreGuard..enter$LT$tokio..runtime..scheduler..current_thread..CoreGuard..block_on$LT$core..pin..Pin$LT$$RF$mut$u20$core..pin..Pin$LT$alloc..boxed..Box$LT$_sys..storage..snapshot..SnapshotStore..list_by_layer..$u7b$$u7b$closure$u7d$$u7d$$GT$$GT$$GT$$GT$..$u7b$$u7b$closure$u7d$$u7d$$C$core..option..Option$LT$core..result..Result$LT$alloc..vec..Vec$LT$_sys..storage..snapshot..SnapshotMetadata$GT$$C$_sys..error..StorageError$GT$$GT$$GT$..$u7b$$u7b$closure$u7d$$u7d$$GT$..$u7b$$u7b$closure$u7d$$u7d$$GT$17hfd11554bd568fb9bE', symObjAddr: 0xBC3C, symBinAddr: 0x2857C, symSize: 0x24 }
  - { offset: 0xFADA7, size: 0x8, addend: 0x0, symName: '__ZN4core3ptr83drop_in_place$LT$alloc..sync..Arc$LT$_sys..storage..snapshot..SnapshotStore$GT$$GT$17ha8b05f4cab1712c8E', symObjAddr: 0xBC60, symBinAddr: 0x285A0, symSize: 0x24 }
  - { offset: 0xFADD6, size: 0x8, addend: 0x0, symName: '__ZN4core3ptr84drop_in_place$LT$alloc..sync..Arc$LT$_sys..cache..registry..SnapshotRegistry$GT$$GT$17h324df4d2af9a91b8E', symObjAddr: 0xBC84, symBinAddr: 0x285C4, symSize: 0x24 }
  - { offset: 0xFAE05, size: 0x8, addend: 0x0, symName: '__ZN4core3ptr84drop_in_place$LT$alloc..vec..Vec$LT$_sys..cache..eviction..EvictionCandidate$GT$$GT$17he1e38930250fb226E', symObjAddr: 0xBCA8, symBinAddr: 0x285E8, symSize: 0x5C }
  - { offset: 0xFAE34, size: 0x8, addend: 0x0, symName: '__ZN4core3ptr84drop_in_place$LT$serde_json..de..Deserializer$LT$serde_json..read..SliceRead$GT$$GT$17h4c085cb47d97c1d2E', symObjAddr: 0xBD04, symBinAddr: 0x28644, symSize: 0x24 }
  - { offset: 0xFAE63, size: 0x8, addend: 0x0, symName: '__ZN4core3ptr85drop_in_place$LT$alloc..sync..Arc$LT$_sys..cache..eviction..H2OEvictionPolicy$GT$$GT$17hfb8d53b016c915b0E', symObjAddr: 0xBD28, symBinAddr: 0x28668, symSize: 0x24 }
  - { offset: 0xFAE92, size: 0x8, addend: 0x0, symName: '__ZN4core3ptr85drop_in_place$LT$alloc..vec..Vec$LT$_sys..storage..snapshot..SnapshotMetadata$GT$$GT$17h01717b07b064e531E', symObjAddr: 0xBD4C, symBinAddr: 0x2868C, symSize: 0x5C }
  - { offset: 0xFAEC1, size: 0x8, addend: 0x0, symName: '__ZN4core3ptr85drop_in_place$LT$core..result..Result$LT$$LP$$RP$$C$_sys..error..StorageError$GT$$GT$17h8f59c07ac55b7d7cE', symObjAddr: 0xBDA8, symBinAddr: 0x286E8, symSize: 0x44 }
  - { offset: 0xFAEF0, size: 0x8, addend: 0x0, symName: '__ZN4core3ptr86drop_in_place$LT$alloc..raw_vec..RawVec$LT$_sys..prefetch..sketch..SketchEntry$GT$$GT$17h0763d9642869cbd1E', symObjAddr: 0xBDEC, symBinAddr: 0x2872C, symSize: 0x24 }
  - { offset: 0xFAF1F, size: 0x8, addend: 0x0, symName: '__ZN4core3ptr86drop_in_place$LT$alloc..raw_vec..RawVec$LT$_sys..storage..snapshot..SnapshotId$GT$$GT$17h1ed64fffe5b5660eE', symObjAddr: 0xBE10, symBinAddr: 0x28750, symSize: 0x24 }
  - { offset: 0xFAF4E, size: 0x8, addend: 0x0, symName: '__ZN4core3ptr86drop_in_place$LT$alloc..sync..Arc$LT$_sys..storage..journal..WriteAheadJournal$GT$$GT$17h8d0145af70d2a540E', symObjAddr: 0xBE34, symBinAddr: 0x28774, symSize: 0x24 }
  - { offset: 0xFAF7D, size: 0x8, addend: 0x0, symName: '__ZN4core3ptr86drop_in_place$LT$alloc..vec..Vec$LT$_sys..bindings..storage_py..PySnapshotMeta$GT$$GT$17hd7b7456eb387ae8dE', symObjAddr: 0xBE58, symBinAddr: 0x28798, symSize: 0x5C }
  - { offset: 0xFAFAC, size: 0x8, addend: 0x0, symName: '__ZN4core3ptr86drop_in_place$LT$core..result..Result$LT$std..fs..File$C$std..io..error..Error$GT$$GT$17hb12571fb33c5768cE', symObjAddr: 0xBEB4, symBinAddr: 0x287F4, symSize: 0x50 }
  - { offset: 0xFAFDB, size: 0x8, addend: 0x0, symName: '__ZN4core3ptr88drop_in_place$LT$alloc..sync..ArcInner$LT$_sys..storage..snapshot..SnapshotStore$GT$$GT$17h595990911e0d2c83E', symObjAddr: 0xBF04, symBinAddr: 0x28844, symSize: 0x24 }
  - { offset: 0xFB00A, size: 0x8, addend: 0x0, symName: '__ZN4core3ptr88drop_in_place$LT$tokio..fs..write..write_spawn_blocking..$u7b$$u7b$closure$u7d$$u7d$$GT$17h9e2a2072e4098709E', symObjAddr: 0xBF28, symBinAddr: 0x28868, symSize: 0xB4 }
  - { offset: 0xFB0A2, size: 0x8, addend: 0x0, symName: '__ZN4core3ptr897drop_in_place$LT$core..iter..traits..iterator..Iterator..for_each..call$LT$crossbeam_utils..cache_padded..CachePadded$LT$lock_api..rwlock..RwLock$LT$dashmap..lock..RawRwLock$C$hashbrown..raw..inner..RawTable$LT$$LP$$LP$u32$C$u32$RP$$C$dashmap..util..SharedValue$LT$_sys..cache..eviction..H2OScore$GT$$RP$$GT$$GT$$GT$$C$alloc..vec..Vec$LT$crossbeam_utils..cache_padded..CachePadded$LT$lock_api..rwlock..RwLock$LT$dashmap..lock..RawRwLock$C$hashbrown..raw..inner..RawTable$LT$$LP$$LP$u32$C$u32$RP$$C$dashmap..util..SharedValue$LT$_sys..cache..eviction..H2OScore$GT$$RP$$GT$$GT$$GT$$GT$..extend_trusted$LT$core..iter..adapters..map..Map$LT$core..ops..range..Range$LT$usize$GT$$C$dashmap..DashMap$LT$$LP$u32$C$u32$RP$$C$_sys..cache..eviction..H2OScore$GT$..with_capacity_and_hasher_and_shard_amount..$u7b$$u7b$closure$u7d$$u7d$$GT$$GT$..$u7b$$u7b$closure$u7d$$u7d$$GT$..$u7b$$u7b$closure$u7d$$u7d$$GT$17h77c8dfb3aabde930E', symObjAddr: 0xBFDC, symBinAddr: 0x2891C, symSize: 0x24 }
  - { offset: 0xFB0D1, size: 0x8, addend: 0x0, symName: '__ZN4core3ptr89drop_in_place$LT$alloc..sync..ArcInner$LT$_sys..cache..registry..SnapshotRegistry$GT$$GT$17h2f115403567f3bb8E', symObjAddr: 0xC000, symBinAddr: 0x28940, symSize: 0x24 }
  - { offset: 0xFB100, size: 0x8, addend: 0x0, symName: '__ZN4core3ptr89drop_in_place$LT$pyo3..instance..Py$LT$_sys..bindings..storage_py..PySnapshotMeta$GT$$GT$17h1424da41ce9fc63aE', symObjAddr: 0xC024, symBinAddr: 0x28964, symSize: 0x2C }
  - { offset: 0xFB12F, size: 0x8, addend: 0x0, symName: '__ZN4core3ptr90drop_in_place$LT$alloc..sync..ArcInner$LT$_sys..cache..eviction..H2OEvictionPolicy$GT$$GT$17h2030ed2ee1b09b08E', symObjAddr: 0xC050, symBinAddr: 0x28990, symSize: 0x24 }
  - { offset: 0xFB15E, size: 0x8, addend: 0x0, symName: '__ZN4core3ptr90drop_in_place$LT$core..result..Result$LT$std..fs..Metadata$C$std..io..error..Error$GT$$GT$17h3556ae993639b7c6E', symObjAddr: 0xC074, symBinAddr: 0x289B4, symSize: 0x40 }
  - { offset: 0xFB18D, size: 0x8, addend: 0x0, symName: '__ZN4core3ptr90drop_in_place$LT$pyo3..instance..Py$LT$_sys..bindings..storage_py..PySnapshotStore$GT$$GT$17h1747f8b17d4e6db9E', symObjAddr: 0xC0B4, symBinAddr: 0x289F4, symSize: 0x2C }
  - { offset: 0xFB1BC, size: 0x8, addend: 0x0, symName: '__ZN4core3ptr90drop_in_place$LT$pyo3..pycell..PyRef$LT$_sys..bindings..storage_py..PySnapshotMeta$GT$$GT$17h04a6750e5b33322bE', symObjAddr: 0xC0E0, symBinAddr: 0x28A20, symSize: 0x5C }
  - { offset: 0xFB1EB, size: 0x8, addend: 0x0, symName: '__ZN4core3ptr90drop_in_place$LT$tokio..fs..read_dir..ReadDir..next_entry..$u7b$$u7b$closure$u7d$$u7d$$GT$17h2ed233a888babdffE', symObjAddr: 0xC13C, symBinAddr: 0x28A7C, symSize: 0x44 }
  - { offset: 0xFB22B, size: 0x8, addend: 0x0, symName: '__ZN4core3ptr91drop_in_place$LT$alloc..raw_vec..RawVec$LT$_sys..cache..eviction..EvictionCandidate$GT$$GT$17h06f64a6de18330f1E', symObjAddr: 0xC180, symBinAddr: 0x28AC0, symSize: 0x24 }
  - { offset: 0xFB25A, size: 0x8, addend: 0x0, symName: '__ZN4core3ptr91drop_in_place$LT$alloc..sync..ArcInner$LT$_sys..storage..journal..WriteAheadJournal$GT$$GT$17h87e11db78d12e812E', symObjAddr: 0xC1A4, symBinAddr: 0x28AE4, symSize: 0x24 }
  - { offset: 0xFB289, size: 0x8, addend: 0x0, symName: '__ZN4core3ptr91drop_in_place$LT$pyo3..pycell..PyRef$LT$_sys..bindings..storage_py..PySnapshotStore$GT$$GT$17had4bf1a5d645a492E', symObjAddr: 0xC1C8, symBinAddr: 0x28B08, symSize: 0x5C }
  - { offset: 0xFB2B8, size: 0x8, addend: 0x0, symName: '__ZN4core3ptr92drop_in_place$LT$alloc..raw_vec..RawVec$LT$_sys..storage..snapshot..SnapshotMetadata$GT$$GT$17h5932461b2b0f070eE', symObjAddr: 0xC224, symBinAddr: 0x28B64, symSize: 0x24 }
  - { offset: 0xFB2E7, size: 0x8, addend: 0x0, symName: '__ZN4core3ptr92drop_in_place$LT$pyo3..instance..Bound$LT$_sys..bindings..storage_py..PySnapshotMeta$GT$$GT$17h245e6bb66f4660aeE', symObjAddr: 0xC26C, symBinAddr: 0x28B88, symSize: 0x24 }
  - { offset: 0xFB316, size: 0x8, addend: 0x0, symName: '__ZN4core3ptr92drop_in_place$LT$pyo3..instance..Py$LT$_sys..bindings..cache_py..PyMemoryTierManager$GT$$GT$17h3739e311968cc283E', symObjAddr: 0xC290, symBinAddr: 0x28BAC, symSize: 0x2C }
  - { offset: 0xFB345, size: 0x8, addend: 0x0, symName: '__ZN4core3ptr92drop_in_place$LT$pyo3..instance..Py$LT$_sys..bindings..prefetch_py..PyPrefetchEngine$GT$$GT$17h8579591a6340a35eE', symObjAddr: 0xC2BC, symBinAddr: 0x28BD8, symSize: 0x2C }
  - { offset: 0xFB374, size: 0x8, addend: 0x0, symName: '__ZN4core3ptr936drop_in_place$LT$core..iter..traits..iterator..Iterator..for_each..call$LT$crossbeam_utils..cache_padded..CachePadded$LT$lock_api..rwlock..RwLock$LT$dashmap..lock..RawRwLock$C$hashbrown..raw..inner..RawTable$LT$$LP$_sys..storage..snapshot..SnapshotId$C$dashmap..util..SharedValue$LT$alloc..vec..Vec$LT$f32$GT$$GT$$RP$$GT$$GT$$GT$$C$alloc..vec..Vec$LT$crossbeam_utils..cache_padded..CachePadded$LT$lock_api..rwlock..RwLock$LT$dashmap..lock..RawRwLock$C$hashbrown..raw..inner..RawTable$LT$$LP$_sys..storage..snapshot..SnapshotId$C$dashmap..util..SharedValue$LT$alloc..vec..Vec$LT$f32$GT$$GT$$RP$$GT$$GT$$GT$$GT$..extend_trusted$LT$core..iter..adapters..map..Map$LT$core..ops..range..Range$LT$usize$GT$$C$dashmap..DashMap$LT$_sys..storage..snapshot..SnapshotId$C$alloc..vec..Vec$LT$f32$GT$$GT$..with_capacity_and_hasher_and_shard_amount..$u7b$$u7b$closure$u7d$$u7d$$GT$$GT$..$u7b$$u7b$closure$u7d$$u7d$$GT$..$u7b$$u7b$closure$u7d$$u7d$$GT$17hfb951bb8dcb923abE', symObjAddr: 0xC2E8, symBinAddr: 0x28C04, symSize: 0x24 }
  - { offset: 0xFB3A3, size: 0x8, addend: 0x0, symName: '__ZN4core3ptr936drop_in_place$LT$core..iter..traits..iterator..Iterator..for_each..call$LT$crossbeam_utils..cache_padded..CachePadded$LT$lock_api..rwlock..RwLock$LT$dashmap..lock..RawRwLock$C$hashbrown..raw..inner..RawTable$LT$$LP$u32$C$dashmap..util..SharedValue$LT$alloc..vec..Vec$LT$_sys..storage..snapshot..SnapshotId$GT$$GT$$RP$$GT$$GT$$GT$$C$alloc..vec..Vec$LT$crossbeam_utils..cache_padded..CachePadded$LT$lock_api..rwlock..RwLock$LT$dashmap..lock..RawRwLock$C$hashbrown..raw..inner..RawTable$LT$$LP$u32$C$dashmap..util..SharedValue$LT$alloc..vec..Vec$LT$_sys..storage..snapshot..SnapshotId$GT$$GT$$RP$$GT$$GT$$GT$$GT$..extend_trusted$LT$core..iter..adapters..map..Map$LT$core..ops..range..Range$LT$usize$GT$$C$dashmap..DashMap$LT$u32$C$alloc..vec..Vec$LT$_sys..storage..snapshot..SnapshotId$GT$$GT$..with_capacity_and_hasher_and_shard_amount..$u7b$$u7b$closure$u7d$$u7d$$GT$$GT$..$u7b$$u7b$closure$u7d$$u7d$$GT$..$u7b$$u7b$closure$u7d$$u7d$$GT$17hab3f96abf3deb85cE', symObjAddr: 0xC30C, symBinAddr: 0x28C28, symSize: 0x24 }
  - { offset: 0xFB3D2, size: 0x8, addend: 0x0, symName: '__ZN4core3ptr93drop_in_place$LT$$LP$_sys..storage..snapshot..SnapshotId$C$alloc..vec..Vec$LT$f32$GT$$RP$$GT$17h025d3316b058bdb3E', symObjAddr: 0xC330, symBinAddr: 0x28C4C, symSize: 0x24 }
  - { offset: 0xFB401, size: 0x8, addend: 0x0, symName: '__ZN4core3ptr93drop_in_place$LT$alloc..raw_vec..RawVec$LT$_sys..bindings..storage_py..PySnapshotMeta$GT$$GT$17h75b0e67251a7d8eaE', symObjAddr: 0xC354, symBinAddr: 0x28C70, symSize: 0x24 }
  - { offset: 0xFB430, size: 0x8, addend: 0x0, symName: '__ZN4core3ptr93drop_in_place$LT$alloc..vec..Vec$LT$$LP$_sys..storage..snapshot..SnapshotId$C$f32$RP$$GT$$GT$17hc4f976fb5ca07e68E', symObjAddr: 0xC378, symBinAddr: 0x28C94, symSize: 0x5C }
  - { offset: 0xFB45F, size: 0x8, addend: 0x0, symName: '__ZN4core3ptr93drop_in_place$LT$pyo3..instance..Bound$LT$_sys..bindings..storage_py..PySnapshotStore$GT$$GT$17hf2606f2294bf0dfdE', symObjAddr: 0xC3D4, symBinAddr: 0x28CF0, symSize: 0x24 }
  - { offset: 0xFB48E, size: 0x8, addend: 0x0, symName: '__ZN4core3ptr93drop_in_place$LT$pyo3..pycell..PyRef$LT$_sys..bindings..cache_py..PyMemoryTierManager$GT$$GT$17h26d079d9e691008bE', symObjAddr: 0xC3F8, symBinAddr: 0x28D14, symSize: 0x5C }
  - { offset: 0xFB4BD, size: 0x8, addend: 0x0, symName: '__ZN4core3ptr93drop_in_place$LT$pyo3..pycell..PyRef$LT$_sys..bindings..prefetch_py..PyPrefetchEngine$GT$$GT$17h9a2c83f62521f09fE', symObjAddr: 0xC454, symBinAddr: 0x28D70, symSize: 0x5C }
  - { offset: 0xFB4EC, size: 0x8, addend: 0x0, symName: '__ZN4core3ptr94drop_in_place$LT$_sys..storage..snapshot..SnapshotStore..read..$u7b$$u7b$closure$u7d$$u7d$$GT$17h40ca8f626894ebe6E', symObjAddr: 0xC4B0, symBinAddr: 0x28DCC, symSize: 0x150 }
  - { offset: 0xFB5E6, size: 0x8, addend: 0x0, symName: '__ZN4core3ptr94drop_in_place$LT$core..cell..UnsafeCell$LT$_sys..bindings..storage_py..PySnapshotStore$GT$$GT$17h8d13d51c80819d36E', symObjAddr: 0xC600, symBinAddr: 0x28F1C, symSize: 0x24 }
  - { offset: 0xFB615, size: 0x8, addend: 0x0, symName: '__ZN4core3ptr94drop_in_place$LT$zstd..stream..write..Encoder$LT$$RF$mut$u20$alloc..vec..Vec$LT$u8$GT$$GT$$GT$17h695bb5e3c7e5b994E', symObjAddr: 0xC624, symBinAddr: 0x28F40, symSize: 0x24 }
  - { offset: 0xFB644, size: 0x8, addend: 0x0, symName: '__ZN4core3ptr95drop_in_place$LT$_sys..storage..snapshot..SnapshotStore..write..$u7b$$u7b$closure$u7d$$u7d$$GT$17h14adfbc658e8b0bfE', symObjAddr: 0xC648, symBinAddr: 0x28F64, symSize: 0x1A0 }
  - { offset: 0xFB7D6, size: 0x8, addend: 0x0, symName: '__ZN4core3ptr95drop_in_place$LT$alloc..vec..into_iter..IntoIter$LT$_sys..storage..snapshot..SnapshotId$GT$$GT$17h7012f8d028320b0cE', symObjAddr: 0xC7E8, symBinAddr: 0x29104, symSize: 0x24 }
  - { offset: 0xFB805, size: 0x8, addend: 0x0, symName: '__ZN4core3ptr95drop_in_place$LT$pyo3..instance..Bound$LT$_sys..bindings..cache_py..PyMemoryTierManager$GT$$GT$17h042ab6a790660403E', symObjAddr: 0xC830, symBinAddr: 0x29128, symSize: 0x24 }
  - { offset: 0xFB834, size: 0x8, addend: 0x0, symName: '__ZN4core3ptr95drop_in_place$LT$pyo3..instance..Bound$LT$_sys..bindings..prefetch_py..PyPrefetchEngine$GT$$GT$17ha9e69fb2033624cbE', symObjAddr: 0xC854, symBinAddr: 0x2914C, symSize: 0x24 }
  - { offset: 0xFB863, size: 0x8, addend: 0x0, symName: '__ZN4core3ptr96drop_in_place$LT$_sys..storage..snapshot..SnapshotStore..delete..$u7b$$u7b$closure$u7d$$u7d$$GT$17hb057cd126f5d14fbE', symObjAddr: 0xC878, symBinAddr: 0x29170, symSize: 0x128 }
  - { offset: 0xFB934, size: 0x8, addend: 0x0, symName: '__ZN4core3ptr96drop_in_place$LT$_sys..storage..snapshot..SnapshotStore..exists..$u7b$$u7b$closure$u7d$$u7d$$GT$17h179ad7178dfc4e4aE', symObjAddr: 0xC9A0, symBinAddr: 0x29298, symSize: 0x28 }
  - { offset: 0xFB989, size: 0x8, addend: 0x0, symName: '__ZN4core3ptr96drop_in_place$LT$core..cell..UnsafeCell$LT$_sys..bindings..cache_py..PyMemoryTierManager$GT$$GT$17he96fb5799af0f018E', symObjAddr: 0xC9C8, symBinAddr: 0x292C0, symSize: 0x24 }
  - { offset: 0xFB9B8, size: 0x8, addend: 0x0, symName: '__ZN4core3ptr96drop_in_place$LT$core..cell..UnsafeCell$LT$_sys..bindings..prefetch_py..PyPrefetchEngine$GT$$GT$17ha1c3c35dddbbd533E', symObjAddr: 0xC9EC, symBinAddr: 0x292E4, symSize: 0x24 }
  - { offset: 0xFB9E7, size: 0x8, addend: 0x0, symName: '__ZN4core3ptr96drop_in_place$LT$dashmap..DashMap$LT$$LP$u32$C$u32$RP$$C$_sys..cache..eviction..H2OScore$GT$$GT$17h96a417bc5c4b8be6E', symObjAddr: 0xCA10, symBinAddr: 0x29308, symSize: 0x24 }
  - { offset: 0xFBA16, size: 0x8, addend: 0x0, symName: '__ZN4core3ptr96drop_in_place$LT$pyo3..pycell..PyRefMut$LT$_sys..bindings..prefetch_py..PyPrefetchEngine$GT$$GT$17h371f4719829be2b0E', symObjAddr: 0xCA34, symBinAddr: 0x2932C, symSize: 0x5C }
  - { offset: 0xFBA45, size: 0x8, addend: 0x0, symName: '__ZN4core3ptr97drop_in_place$LT$_sys..cache..manager..MemoryTierManager..demote..$u7b$$u7b$closure$u7d$$u7d$$GT$17h1e74cc23860a68dfE', symObjAddr: 0xCA90, symBinAddr: 0x29388, symSize: 0xC4 }
  - { offset: 0xFBB57, size: 0x8, addend: 0x0, symName: '__ZN4core3ptr97drop_in_place$LT$alloc..boxed..Box$LT$dyn$u20$_sys..storage..snapshot..SnapshotSerializer$GT$$GT$17h09129c8fade4861fE', symObjAddr: 0xCB54, symBinAddr: 0x2944C, symSize: 0x80 }
  - { offset: 0xFBB86, size: 0x8, addend: 0x0, symName: '__ZN4core3ptr97drop_in_place$LT$core..option..Option$LT$alloc..borrow..Cow$LT$core..ffi..c_str..CStr$GT$$GT$$GT$17h714611aae18b7eafE', symObjAddr: 0xCBD4, symBinAddr: 0x294CC, symSize: 0x44 }
  - { offset: 0xFBBB5, size: 0x8, addend: 0x0, symName: '__ZN4core3ptr97drop_in_place$LT$tokio..fs..read..read$LT$std..path..PathBuf$GT$..$u7b$$u7b$closure$u7d$$u7d$$GT$17h2a6979e6780e06a3E', symObjAddr: 0xCC18, symBinAddr: 0x29510, symSize: 0xD8 }
  - { offset: 0xFBC2F, size: 0x8, addend: 0x0, symName: '__ZN4core3ptr981drop_in_place$LT$core..iter..traits..iterator..Iterator..for_each..call$LT$crossbeam_utils..cache_padded..CachePadded$LT$lock_api..rwlock..RwLock$LT$dashmap..lock..RawRwLock$C$hashbrown..raw..inner..RawTable$LT$$LP$_sys..storage..snapshot..SnapshotId$C$dashmap..util..SharedValue$LT$_sys..storage..snapshot..SnapshotMetadata$GT$$RP$$GT$$GT$$GT$$C$alloc..vec..Vec$LT$crossbeam_utils..cache_padded..CachePadded$LT$lock_api..rwlock..RwLock$LT$dashmap..lock..RawRwLock$C$hashbrown..raw..inner..RawTable$LT$$LP$_sys..storage..snapshot..SnapshotId$C$dashmap..util..SharedValue$LT$_sys..storage..snapshot..SnapshotMetadata$GT$$RP$$GT$$GT$$GT$$GT$..extend_trusted$LT$core..iter..adapters..map..Map$LT$core..ops..range..Range$LT$usize$GT$$C$dashmap..DashMap$LT$_sys..storage..snapshot..SnapshotId$C$_sys..storage..snapshot..SnapshotMetadata$GT$..with_capacity_and_hasher_and_shard_amount..$u7b$$u7b$closure$u7d$$u7d$$GT$$GT$..$u7b$$u7b$closure$u7d$$u7d$$GT$..$u7b$$u7b$closure$u7d$$u7d$$GT$17hd5fce4e5f3c475d9E', symObjAddr: 0xCCF0, symBinAddr: 0x295E8, symSize: 0x24 }
  - { offset: 0xFBC5E, size: 0x8, addend: 0x0, symName: '__ZN4core3ptr98drop_in_place$LT$_sys..cache..manager..MemoryTierManager..promote..$u7b$$u7b$closure$u7d$$u7d$$GT$17h64b2f2b06293b7f5E', symObjAddr: 0xCD14, symBinAddr: 0x2960C, symSize: 0x84 }
  - { offset: 0xFBD5E, size: 0x8, addend: 0x0, symName: '__ZN4core3ptr98drop_in_place$LT$_sys..prefetch..engine..PrefetchEngine..prefetch..$u7b$$u7b$closure$u7d$$u7d$$GT$17hca0a71ac87a77fd8E', symObjAddr: 0xCD98, symBinAddr: 0x29690, symSize: 0x134 }
  - { offset: 0xFBDDC, size: 0x8, addend: 0x0, symName: '__ZN4core3ptr98drop_in_place$LT$_sys..storage..snapshot..SnapshotStore..list_all..$u7b$$u7b$closure$u7d$$u7d$$GT$17h4633dd5bdd7a7dc0E', symObjAddr: 0xCECC, symBinAddr: 0x297C4, symSize: 0x294 }
  - { offset: 0xFBEB7, size: 0x8, addend: 0x0, symName: '__ZN4core3ptr98drop_in_place$LT$core..result..Result$LT$alloc..vec..Vec$LT$u8$GT$$C$std..io..error..Error$GT$$GT$17h58c881c06c75e1a2E', symObjAddr: 0xD160, symBinAddr: 0x29A58, symSize: 0x5C }
  - { offset: 0xFBEE6, size: 0x8, addend: 0x0, symName: '__ZN4core3ptr99drop_in_place$LT$_sys..storage..journal..WriteAheadJournal..append..$u7b$$u7b$closure$u7d$$u7d$$GT$17h22e3998ac1906fddE', symObjAddr: 0xD1BC, symBinAddr: 0x29AB4, symSize: 0xF0 }
  - { offset: 0xFBF8C, size: 0x8, addend: 0x0, symName: '__ZN4core3ptr99drop_in_place$LT$_sys..storage..snapshot..SnapshotStore..read_mmap..$u7b$$u7b$closure$u7d$$u7d$$GT$17h4d2244296d572656E', symObjAddr: 0xD2AC, symBinAddr: 0x29BA4, symSize: 0x1A0 }
  - { offset: 0xFC08C, size: 0x8, addend: 0x0, symName: '__ZN4core3ptr99drop_in_place$LT$dashmap..iter..Iter$LT$$LP$u32$C$u32$RP$$C$_sys..cache..eviction..H2OScore$GT$$GT$17h4f34f4d2710a2f50E', symObjAddr: 0xD44C, symBinAddr: 0x29D44, symSize: 0x24 }
  - { offset: 0xFC200, size: 0x8, addend: 0x0, symName: '__ZN4core3ops8function6FnOnce40call_once$u7b$$u7b$vtable.shim$u7d$$u7d$17h08526aafd1618b5aE', symObjAddr: 0x98C, symBinAddr: 0x1D548, symSize: 0x38 }
  - { offset: 0xFC244, size: 0x8, addend: 0x0, symName: '__ZN4core3ops8function6FnOnce40call_once$u7b$$u7b$vtable.shim$u7d$$u7d$17h2062b7c0c896f011E', symObjAddr: 0x9C4, symBinAddr: 0x1D580, symSize: 0x38 }
  - { offset: 0xFC288, size: 0x8, addend: 0x0, symName: '__ZN4core3ops8function6FnOnce40call_once$u7b$$u7b$vtable.shim$u7d$$u7d$17h27c2650a293cef33E', symObjAddr: 0x9FC, symBinAddr: 0x1D5B8, symSize: 0x38 }
  - { offset: 0xFC2CC, size: 0x8, addend: 0x0, symName: '__ZN4core3ops8function6FnOnce40call_once$u7b$$u7b$vtable.shim$u7d$$u7d$17h2f90b04e195848d4E', symObjAddr: 0xA34, symBinAddr: 0x1D5F0, symSize: 0x38 }
  - { offset: 0xFC310, size: 0x8, addend: 0x0, symName: '__ZN4core3ops8function6FnOnce40call_once$u7b$$u7b$vtable.shim$u7d$$u7d$17h33b675e02fb66c05E', symObjAddr: 0xA6C, symBinAddr: 0x1D628, symSize: 0x38 }
  - { offset: 0xFC354, size: 0x8, addend: 0x0, symName: '__ZN4core3ops8function6FnOnce40call_once$u7b$$u7b$vtable.shim$u7d$$u7d$17h46bc2a9b17d728aeE', symObjAddr: 0xAA4, symBinAddr: 0x1D660, symSize: 0x38 }
  - { offset: 0xFC398, size: 0x8, addend: 0x0, symName: '__ZN4core3ops8function6FnOnce40call_once$u7b$$u7b$vtable.shim$u7d$$u7d$17h4f8bcd35d09a6537E', symObjAddr: 0xADC, symBinAddr: 0x1D698, symSize: 0x38 }
  - { offset: 0xFC3DC, size: 0x8, addend: 0x0, symName: '__ZN4core3ops8function6FnOnce40call_once$u7b$$u7b$vtable.shim$u7d$$u7d$17h511a4e01a0397b44E', symObjAddr: 0xB14, symBinAddr: 0x1D6D0, symSize: 0x38 }
  - { offset: 0xFC420, size: 0x8, addend: 0x0, symName: '__ZN4core3ops8function6FnOnce40call_once$u7b$$u7b$vtable.shim$u7d$$u7d$17h5b55f5bf896d5e06E', symObjAddr: 0xB4C, symBinAddr: 0x1D708, symSize: 0x38 }
  - { offset: 0xFC464, size: 0x8, addend: 0x0, symName: '__ZN4core3ops8function6FnOnce40call_once$u7b$$u7b$vtable.shim$u7d$$u7d$17h5dc2615fd01506e5E', symObjAddr: 0xB84, symBinAddr: 0x1D740, symSize: 0x38 }
  - { offset: 0xFC4A8, size: 0x8, addend: 0x0, symName: '__ZN4core3ops8function6FnOnce40call_once$u7b$$u7b$vtable.shim$u7d$$u7d$17h72daec177b4f46dfE', symObjAddr: 0xBBC, symBinAddr: 0x1D778, symSize: 0x38 }
  - { offset: 0xFC4EC, size: 0x8, addend: 0x0, symName: '__ZN4core3ops8function6FnOnce40call_once$u7b$$u7b$vtable.shim$u7d$$u7d$17h8a718c94ef11b5ddE', symObjAddr: 0xBF4, symBinAddr: 0x1D7B0, symSize: 0x38 }
  - { offset: 0xFC530, size: 0x8, addend: 0x0, symName: '__ZN4core3ops8function6FnOnce40call_once$u7b$$u7b$vtable.shim$u7d$$u7d$17h9162b1861390faf8E', symObjAddr: 0xC2C, symBinAddr: 0x1D7E8, symSize: 0x38 }
  - { offset: 0xFC574, size: 0x8, addend: 0x0, symName: '__ZN4core3ops8function6FnOnce40call_once$u7b$$u7b$vtable.shim$u7d$$u7d$17h92f53a4d2b609595E', symObjAddr: 0xC64, symBinAddr: 0x1D820, symSize: 0x24 }
  - { offset: 0xFC5B8, size: 0x8, addend: 0x0, symName: '__ZN4core3ops8function6FnOnce40call_once$u7b$$u7b$vtable.shim$u7d$$u7d$17h9c71039f38b65003E', symObjAddr: 0xC88, symBinAddr: 0x1D844, symSize: 0x38 }
  - { offset: 0xFC5FC, size: 0x8, addend: 0x0, symName: '__ZN4core3ops8function6FnOnce40call_once$u7b$$u7b$vtable.shim$u7d$$u7d$17haeb7abd77376d002E', symObjAddr: 0xCC0, symBinAddr: 0x1D87C, symSize: 0x38 }
  - { offset: 0xFC640, size: 0x8, addend: 0x0, symName: '__ZN4core3ops8function6FnOnce40call_once$u7b$$u7b$vtable.shim$u7d$$u7d$17haed070d3b23c253fE', symObjAddr: 0xCF8, symBinAddr: 0x1D8B4, symSize: 0x38 }
  - { offset: 0xFC684, size: 0x8, addend: 0x0, symName: '__ZN4core3ops8function6FnOnce40call_once$u7b$$u7b$vtable.shim$u7d$$u7d$17hb4e2da3d27f05acbE', symObjAddr: 0xD30, symBinAddr: 0x1D8EC, symSize: 0x38 }
  - { offset: 0xFC6C8, size: 0x8, addend: 0x0, symName: '__ZN4core3ops8function6FnOnce40call_once$u7b$$u7b$vtable.shim$u7d$$u7d$17hf1e81d2a45efe408E', symObjAddr: 0xD68, symBinAddr: 0x1D924, symSize: 0x38 }
  - { offset: 0xFC70C, size: 0x8, addend: 0x0, symName: __ZN4core3ops8function6FnOnce9call_once17h028daddc7a6a42ecE, symObjAddr: 0xDA0, symBinAddr: 0x1D95C, symSize: 0x34 }
  - { offset: 0xFC750, size: 0x8, addend: 0x0, symName: __ZN4core3ops8function6FnOnce9call_once17h03679a38ff33a19aE, symObjAddr: 0xDD4, symBinAddr: 0x1D990, symSize: 0x58 }
  - { offset: 0xFC794, size: 0x8, addend: 0x0, symName: __ZN4core3ops8function6FnOnce9call_once17h059539bb2d3bbd88E, symObjAddr: 0xE2C, symBinAddr: 0x1D9E8, symSize: 0x44 }
  - { offset: 0xFC7D8, size: 0x8, addend: 0x0, symName: __ZN4core3ops8function6FnOnce9call_once17h0898b647f8dfd7a8E, symObjAddr: 0xE94, symBinAddr: 0x1DA2C, symSize: 0x44 }
  - { offset: 0xFC818, size: 0x8, addend: 0x0, symName: __ZN4core3ops8function6FnOnce9call_once17h0d6b3d8c8978161eE, symObjAddr: 0xED8, symBinAddr: 0x1DA70, symSize: 0x44 }
  - { offset: 0xFC858, size: 0x8, addend: 0x0, symName: __ZN4core3ops8function6FnOnce9call_once17h0eeb2806b1ade702E, symObjAddr: 0xF1C, symBinAddr: 0x1DAB4, symSize: 0x48 }
  - { offset: 0xFC898, size: 0x8, addend: 0x0, symName: __ZN4core3ops8function6FnOnce9call_once17h0f69ae99a80a3447E, symObjAddr: 0xF64, symBinAddr: 0x1DAFC, symSize: 0x44 }
  - { offset: 0xFC8DC, size: 0x8, addend: 0x0, symName: __ZN4core3ops8function6FnOnce9call_once17h1170ee26e62bc40aE, symObjAddr: 0xFA8, symBinAddr: 0x1DB40, symSize: 0x48 }
  - { offset: 0xFC91C, size: 0x8, addend: 0x0, symName: __ZN4core3ops8function6FnOnce9call_once17h14c2b9302169dc54E, symObjAddr: 0xFF0, symBinAddr: 0x1DB88, symSize: 0x5C }
  - { offset: 0xFC960, size: 0x8, addend: 0x0, symName: __ZN4core3ops8function6FnOnce9call_once17h169e1e3b02485cfdE, symObjAddr: 0x104C, symBinAddr: 0x1DBE4, symSize: 0x3C }
  - { offset: 0xFC9A4, size: 0x8, addend: 0x0, symName: __ZN4core3ops8function6FnOnce9call_once17h1739e366679354d2E, symObjAddr: 0x1088, symBinAddr: 0x1DC20, symSize: 0x44 }
  - { offset: 0xFC9E4, size: 0x8, addend: 0x0, symName: __ZN4core3ops8function6FnOnce9call_once17h17581f1575a3526eE, symObjAddr: 0x10CC, symBinAddr: 0x1DC64, symSize: 0x44 }
  - { offset: 0xFCA24, size: 0x8, addend: 0x0, symName: __ZN4core3ops8function6FnOnce9call_once17h17e16b087e2563e1E, symObjAddr: 0x1110, symBinAddr: 0x1DCA8, symSize: 0x44 }
  - { offset: 0xFCA64, size: 0x8, addend: 0x0, symName: __ZN4core3ops8function6FnOnce9call_once17h1bbdc8d86c1adda2E, symObjAddr: 0x1154, symBinAddr: 0x1DCEC, symSize: 0x44 }
  - { offset: 0xFCAA4, size: 0x8, addend: 0x0, symName: __ZN4core3ops8function6FnOnce9call_once17h1bed8a13edca49dcE, symObjAddr: 0x1198, symBinAddr: 0x1DD30, symSize: 0x44 }
  - { offset: 0xFCAE8, size: 0x8, addend: 0x0, symName: __ZN4core3ops8function6FnOnce9call_once17h1dd34df3537d8f13E, symObjAddr: 0x11DC, symBinAddr: 0x1DD74, symSize: 0x48 }
  - { offset: 0xFCB28, size: 0x8, addend: 0x0, symName: __ZN4core3ops8function6FnOnce9call_once17h2042b5b660ba217bE, symObjAddr: 0x1224, symBinAddr: 0x1DDBC, symSize: 0x24 }
  - { offset: 0xFCB6C, size: 0x8, addend: 0x0, symName: __ZN4core3ops8function6FnOnce9call_once17h223c2101ed494283E, symObjAddr: 0x1248, symBinAddr: 0x1DDE0, symSize: 0x48 }
  - { offset: 0xFCBAC, size: 0x8, addend: 0x0, symName: __ZN4core3ops8function6FnOnce9call_once17h24aea2cd037b0fddE, symObjAddr: 0x1290, symBinAddr: 0x1DE28, symSize: 0x3C }
  - { offset: 0xFCBF0, size: 0x8, addend: 0x0, symName: __ZN4core3ops8function6FnOnce9call_once17h24f4803b907bc701E, symObjAddr: 0x12CC, symBinAddr: 0x1DE64, symSize: 0x58 }
  - { offset: 0xFCC34, size: 0x8, addend: 0x0, symName: __ZN4core3ops8function6FnOnce9call_once17h267dd1a76030a3afE, symObjAddr: 0x1324, symBinAddr: 0x1DEBC, symSize: 0x3C }
